ccopy_reg
_reconstructor
p0
(crequests.models
Response
p1
c__builtin__
object
p2
Ntp3
Rp4
(dp5
S'cookies'
p6
g0
(crequests.cookies
RequestsCookieJar
p7
g2
Ntp8
Rp9
(dp10
S'_now'
p11
I1444059542
sS'_policy'
p12
(icookielib
DefaultCookiePolicy
p13
(dp14
S'strict_rfc2965_unverifiable'
p15
I01
sS'strict_ns_domain'
p16
I0
sS'_allowed_domains'
p17
NsS'rfc2109_as_netscape'
p18
NsS'rfc2965'
p19
I00
sS'strict_domain'
p20
I00
sg11
I1444059542
sS'strict_ns_set_path'
p21
I00
sS'strict_ns_unverifiable'
p22
I00
sS'strict_ns_set_initial_dollar'
p23
I00
sS'hide_cookie2'
p24
I00
sS'_blocked_domains'
p25
(tsS'netscape'
p26
I01
sbsS'_cookies'
p27
(dp28
sbsS'_content'
p29
S'<!DOCTYPE html PUBLIC "-//W3C//DTD HTML 4.01 Transitional//EN" "http://www.w3.org/TR/html4/loose.dtd">\n<html lang="en">\n<HEAD>\n<TITLE>Horror - Period Movies at the Box Office - Box Office Mojo</TITLE>\n<META NAME="keywords" CONTENT="horror, period, movie, movies, box office, gross, open, opening, report, result">\n<META NAME="description" CONTENT="Top Grossing Horror - Period Movies at the Box Office.">\n<link rel="stylesheet" href="/css/mojo.css?1" type="text/css" media="screen" title="no title" charset="utf-8">\n<link rel="stylesheet" href="/css/mojo.css?1" type="text/css" media="print" title="no title" charset="utf-8"></head>\n<body>\n<iframe id="sis_pixel_sitewide" width="1" height="1" frameborder="0" marginwidth="0" marginheight="0" style="display: none;"></iframe>\n<script>\n    setTimeout(function(){\n        try{\n            //sis3.0 pixel\n            var cacheBust = Math.random() * 10000000000000000,\n                url_sis3 = \'http://s.amazon-adsystem.com/iu3?\',\n                params_sis3 = [\n                    "d=boxofficemojo.com",\n                    "cb=" + cacheBust\n                ];\n\n            (document.getElementById(\'sis_pixel_sitewide\')).src = url_sis3 + params_sis3.join(\'&\');\n        }catch(e){\n            if (window.ueLogError) { \n                window.ueLogError(e);\n            }\n        }\n    }, 5);\n</script>\n\n<div id="container">\n<div>\n<!-- GOOGLE ANALYTICS CODE STARTS -->\n<script type="text/javascript">\n\n  var _gaq = _gaq || [];\n  _gaq.push([\'_setAccount\', \'UA-2831726-1\']);\n  _gaq.push([\'_trackPageview\']);\n\n  (function() {\n    var ga = document.createElement(\'script\'); ga.type = \'text/javascript\'; ga.async = true;\n    ga.src = (\'https:\' == document.location.protocol ? \'https://ssl\' : \'http://www\') + \'.google-analytics.com/ga.js\';\n    (document.getElementsByTagName(\'head\')[0] || document.getElementsByTagName(\'body\')[0]).appendChild(ga);\n  })();\n\n</script>\n<!-- GOOGLE ANALYTICS CODE ENDS -->\n\t<div id="hp_banner">\n\t<div id="top_links">\n\t\t<div style="float: left"><a href="/daily/chart/">Daily Box Office (Sun.)</a> | <a href="/weekend/chart/">Weekend Box Office (Oct. 2&ndash;4)</a> | <a href="/movies/?id=scott2016.htm">#1 Movie: \'The Martian\'</a> | <a href="http://www.imdb.com/showtimes/?ref_=mojo">Showtimes</a></div>\n\t\t<div style="float: right">Updated 10/4/2015 7:11 P.M. Pacific Time</div>\n\t\t<div style="clear:both; height: 0px"></div>\n\t</div>\n</div>\n\t\t\n<div id="header">\n\t<div id="leaderboard"><!-- begin ad tag (tile=1) -->\r\n<script type="text/javascript">\r\n//<![CDATA[\r\nord=1672107847;\r\ndocument.write(\'<iframe src="http://ad.doubleclick.net/N4215/adi/imdb2.bom.other/;p=t;tile=1;sz=728x90;oe=ISO-8859-1;ord=\' + ord + \'?" width="728" height="90" marginwidth="0" marginheight="0" frameborder="0" scrolling="no">\');\r\n\r\nif (navigator.userAgent.indexOf("Gecko")==-1)\r\n{\r\ndocument.write(\'<script type="text/javascript" src="http://ad.doubleclick.net/N4215/adj/imdb2.bom.other/;p=t;tile=1;sz=728x90;abr=!ie;oe=ISO-8859-1;ord=\' + ord + \'?"><\\/script>\');\r\n}\r\ndocument.write(\'<\\/iframe>\');\r\n//]]>\r\n</script>\r\n<noscript><a href="http://ad.doubleclick.net/N4215/jump/imdb2.bom.other/;p=t;tile=1;sz=728x90;oe=ISO-8859-1;ord=1672107847?" target="_blank" ><img src="http://ad.doubleclick.net/N4215/ad/imdb2.bom.other/;p=t;tile=1;sz=728x90;oe=ISO-8859-1;ord=1672107847?" border="0" alt="" ></a></noscript>\r\n<!-- end ad tag --></div>\t<div id="hp_logo"><a href="/"><img src="/img/misc/bom_logo1.png" width="245" height="56" alt="Box Office Mojo"></a></div>\n\t<div style="clear:both; height: 0px"></div>\n</div>\n\n\n</div>\n\n\n<div id="main">\n<!-- COLUMN 1 of 4 -->\n\t<div id="leftnav">\n<!-- google_ad_section_start(weight=ignore) -->\n<!-- <table id="navleft" cellspacing="0" cellpadding="2" border="0"> -->\n<ul id="leftnav">\n<li class="nl_section">Search Site</li>\n<li class="nl_link" style="padding-left:0px">\n\t<form name="searchbox" method="POST" action="/search/q.php">\n\t<input name="q"  type="text" style="font-size: 9 pt; font-weight: bold; width: 90px;"><br>\n\t<input type="submit" value="Search..." ></form> \n</li>\n<li class=\'nl_section\'>Social</li>\n<li class="nl_link"><a href="http://facebook.com/boxofficemojo" style="vertical-align:middle;"><img src="/images/FaceBook_16x16.png" border="0" alt="Facebook Logo">Facebook</a></li>\n<li class="nl_link"><a href="http://twitter.com/boxofficemojo" style="vertical-align:middle;"><img src="/images/Twitter_16x16.png" border="0" alt="Twitter Logo">Twitter</a></li>\n\n<li class=\'nl_section\'>Features</li>\n<li class=\'nl_link\'><a href="/news/">News</a></li>\n<li class=\'nl_link\'><a href="/schedule/">Release Sched.</a></li>\n<li class=\'nl_link\'><a href="http://www.imdb.com/showtimes?ref_=mojo">Showtimes<br/><span style="margin-left:7px;color: #999999; font-size: 9px;">at <img src="/images/mojo_imdb_sm.png"/></span></a></li>\n<li class=\'nl_section\'>Box Office</li>\n<li class=\'nl_link\'><a href="/daily/">Daily</a></li>\n<li class=\'nl_link\'><a href="/weekend/">Weekend</a></li>\n<li class=\'nl_link\'><a href="/weekly/">Weekly</a></li>\n<li class=\'nl_link\'><a href="/monthly/">Monthly</a></li>\n<li class=\'nl_link\'><a href="/quarterly/">Quarterly</a></li>\n<li class=\'nl_link\'><a href="/seasonal/">Seasonal</a></li>\n<li class=\'nl_link\'><a href="/yearly/">Yearly</a></li>\n<li class=\'nl_link\'><a href="/alltime/">All Time</a></li>\n<li class=\'nl_link\'><a href="/chartwatch/">Chart Watch</a></li>\n<li class=\'nl_link\'><a href="/intl/">International</a></li>\n<li class=\'nl_section\'>Indices</li>\n<li class=\'nl_link\'><a href="/movies/">Movies A-Z</a></li>\n<li class=\'nl_link\'><a href="/studio/">Studios</a></li>\n<li class=\'nl_link\'><a href="/people/">People</a></li>\n<li class=\'nl_link_current\'><a href="/genres/">Genres</a></li>\n<li class=\'nl_link\'><a href="/franchises/">Franchises</a></li>\n<li class=\'nl_link\'><a href="/showdowns/">Showdowns</a></li>\n<li class=\'nl_link\'><a href="/oscar/">Oscar</a></li>\n<li class=\'nl_link\'><a href="/counts/">Theater Counts</a></li>\n</ul>\n</div>\n\t<div id="body">\n<div id="addthis"><table border="0" cellspacing="0" cellpadding="0">\r\n<tr>\r\n<form method="POST" action="/adjuster.php" name="adjuster">\r\n<input type="hidden" name="returnURL" value="/genres/chart/?id=horrorperiod.htm">\r\n<td valign="center">\r\n  <font face="Verdana" size="2"><a href="/about/adjuster.htm"><b>Adjuster:</b></a></font>\r\n  <select size="1" name="ticketyr" style="font-family: Verdana; font-size: 10pt">\r\n  <option value="0" selected>Actuals</option>\r\n  <option value="1" >Est. Tckts</option>\r\n<script language="javascript">\r\n  for(i=2015; i>=1933; i--) {\r\n  \tdocument.write(\'<option value="\' + i + \'"\');\r\n\tif(i==\'0\') document.write(\' selected\');\r\n\tdocument.write(\'>\' + i );\r\n\tif(i==\'0\') document.write(\', $\' + \'0.00\');\r\n\tdocument.write(\'</option>\');\r\n  }\r\n</script>\r\n  <option value="1929" >1929</option>\r\n  <option value="1924" >1924</option>\r\n  <option value="1910" >1910</option>\r\n  </select><input type="submit" name="Go" value="Go" style="font-size: 10pt; height: 22">\r\n\r\n</td></form></tr></table>\r\n\r\n</div>\n<h2><a href="/genres/">Genres</a>\n\n\t<table border="0" cellpadding="0" cellspacing="0"  width="100%">\n\t<tr><td bgcolor="#8b0000" colspan="2"><img src="/images/space.gif" border="0" width="1" height="5"></td></tr>\n\t</table>\n\n<table border="0" cellspacing="0" cellpadding="0" width="100%"><tr><td align="center" valign="top"><br>\n<h1>Horror - Period</h1>\n<p><font face="Verdana" size="2"><b>1980-Present</b></font></p>\n\n<ul class="nav_tabs">\n<li class="nav_tab_current"><a href="/genres/chart/?view=main&id=horrorperiod.htm&p=.htm">Total Grosses</a></li>\n<li><a href="/genres/chart/?view=openings&id=horrorperiod.htm&p=.htm">Opening Weekends</a></li>\n</ul>\n<br><br><table border="0" cellspacing="1" cellpadding="5" width="95%"><tr bgcolor="#dcdcdc"><td align="center"><font size="2"><a href="/genres/chart/?id=horrorperiod.htm&sort=rank&order=ASC&p=.htm">Rank</a></font></td><td align="center"><font size="2"><a href="/genres/chart/?id=horrorperiod.htm&sort=title&order=ASC&p=.htm">Title (click to view)</a></font></td><td align="center"><font size="2"><a href="/genres/chart/?id=horrorperiod.htm&sort=studio&order=ASC&p=.htm">Studio</a></font></td><td align="center" colspan="2"><font size="2"><a href="/genres/chart/?id=horrorperiod.htm&sort=gross&order=ASC&p=.htm"><b>Lifetime Gross</b></a> / </font><font size="2"><a href="/genres/chart/?id=horrorperiod.htm&sort=maxtheaters&order=DESC&p=.htm">Theaters</a></font></td><td align="center" colspan="2"><font size="2"><a href="/genres/chart/?id=horrorperiod.htm&sort=opengross&order=DESC&p=.htm">Opening</a> / </font><font size="2"><a href="/genres/chart/?id=horrorperiod.htm&sort=opentheaters&order=DESC&p=.htm">Theaters</a></font></td><td align="center"><font size="2"><a href="/genres/chart/?id=horrorperiod.htm&sort=date&order=DESC&p=.htm">Date</a></font></td></tr><tr bgcolor="#ffffff"><td align="center"><font size="2">1</font></td>\r\n<td><font size="2"><a href="/movies/?id=conjuring.htm"><b>The Conjuring</b></a></font></td>\r\n<td><font size="2"><a href="/studio/chart/?studio=warnerbros.htm">WB</a></font></td>\r\n<td align="right"><font size="2"><b>$137,400,141</b></font></td>\r\n<td align="right"><font size="2">3,115</font></td>\r\n<td align="right"><font size="2">$41,855,326</font></td>\r\n<td align="right"><font size="2">2,903</font></td>\r\n<td align="right"><font size="2"><a href="/schedule/?view=bydate&release=theatrical&date=2013-07-19&p=.htm">7/19/13</a></font></td>\r\n</tr>\r\n\r\n<tr bgcolor="#f4f4ff"><td align="center"><font size="2">2</font></td>\r\n<td><font size="2"><a href="/movies/?id=shutterisland.htm"><b>Shutter Island</b></a></font></td>\r\n<td><font size="2"><a href="/studio/chart/?studio=paramount.htm">Par.</a></font></td>\r\n<td align="right"><font size="2"><b>$128,012,934</b></font></td>\r\n<td align="right"><font size="2">3,356</font></td>\r\n<td align="right"><font size="2">$41,062,440</font></td>\r\n<td align="right"><font size="2">2,991</font></td>\r\n<td align="right"><font size="2"><a href="/schedule/?view=bydate&release=theatrical&date=2010-02-19&p=.htm">2/19/10</a></font></td>\r\n</tr>\r\n\r\n<tr bgcolor="#ffffff"><td align="center"><font size="2">3</font></td>\r\n<td><font size="2"><a href="/movies/?id=vanhelsing.htm"><b>Van Helsing</b></a></font></td>\r\n<td><font size="2"><a href="/studio/chart/?studio=universal.htm">Uni.</a></font></td>\r\n<td align="right"><font size="2"><b>$120,177,084</b></font></td>\r\n<td align="right"><font size="2">3,580</font></td>\r\n<td align="right"><font size="2">$51,748,040</font></td>\r\n<td align="right"><font size="2">3,575</font></td>\r\n<td align="right"><font size="2"><a href="/schedule/?view=bydate&release=theatrical&date=2004-05-07&p=.htm">5/7/04</a></font></td>\r\n</tr>\r\n\r\n<tr bgcolor="#f4f4ff"><td align="center"><font size="2">4</font></td>\r\n<td><font size="2"><a href="/movies/?id=village.htm"><b>The Village</b></a></font></td>\r\n<td><font size="2"><a href="/studio/chart/?studio=buenavista.htm">BV</a></font></td>\r\n<td align="right"><font size="2"><b>$114,197,520</b></font></td>\r\n<td align="right"><font size="2">3,733</font></td>\r\n<td align="right"><font size="2">$50,746,142</font></td>\r\n<td align="right"><font size="2">3,730</font></td>\r\n<td align="right"><font size="2"><a href="/schedule/?view=bydate&release=theatrical&date=2004-07-30&p=.htm">7/30/04</a></font></td>\r\n</tr>\r\n\r\n<tr bgcolor="#ffffff"><td align="center"><font size="2">5</font></td>\r\n<td><font size="2"><a href="/movies/?id=interviewwiththevampire.htm"><b>Interview with the Vampire</b></a></font></td>\r\n<td><font size="2"><a href="/studio/chart/?studio=warnerbros.htm">WB</a></font></td>\r\n<td align="right"><font size="2"><b>$105,264,608</b></font></td>\r\n<td align="right"><font size="2">2,604</font></td>\r\n<td align="right"><font size="2">$36,389,705</font></td>\r\n<td align="right"><font size="2">2,604</font></td>\r\n<td align="right"><font size="2"><a href="/schedule/?view=bydate&release=theatrical&date=1994-11-11&p=.htm">11/11/94</a></font></td>\r\n</tr>\r\n\r\n<tr bgcolor="#f4f4ff"><td align="center"><font size="2">6</font></td>\r\n<td><font size="2"><a href="/movies/?id=paranormalactivity3.htm"><b>Paranormal Activity 3</b></a></font></td>\r\n<td><font size="2"><a href="/studio/chart/?studio=paramount.htm">Par.</a></font></td>\r\n<td align="right"><font size="2"><b>$104,028,807</b></font></td>\r\n<td align="right"><font size="2">3,329</font></td>\r\n<td align="right"><font size="2">$52,568,183</font></td>\r\n<td align="right"><font size="2">3,321</font></td>\r\n<td align="right"><font size="2"><a href="/schedule/?view=bydate&release=theatrical&date=2011-10-21&p=.htm">10/21/11</a></font></td>\r\n</tr>\r\n\r\n<tr bgcolor="#ffffff"><td align="center"><font size="2">7</font></td>\r\n<td><font size="2"><a href="/movies/?id=sleepyhollow.htm"><b>Sleepy Hollow</b></a></font></td>\r\n<td><font size="2"><a href="/studio/chart/?studio=paramount.htm">Par.</a></font></td>\r\n<td align="right"><font size="2"><b>$101,071,502</b></font></td>\r\n<td align="right"><font size="2">3,069</font></td>\r\n<td align="right"><font size="2">$30,060,467</font></td>\r\n<td align="right"><font size="2">3,064</font></td>\r\n<td align="right"><font size="2"><a href="/schedule/?view=bydate&release=theatrical&date=1999-11-19&p=.htm">11/19/99</a></font></td>\r\n</tr>\r\n\r\n<tr bgcolor="#f4f4ff"><td align="center"><font size="2">8</font></td>\r\n<td><font size="2"><a href="/movies/?id=others.htm"><b>The Others</b></a></font></td>\r\n<td><font size="2"><a href="/studio/chart/?studio=miramax.htm">Mira.</a></font></td>\r\n<td align="right"><font size="2"><b>$96,522,687</b></font></td>\r\n<td align="right"><font size="2">2,843</font></td>\r\n<td align="right"><font size="2">$14,089,952</font></td>\r\n<td align="right"><font size="2">1,678</font></td>\r\n<td align="right"><font size="2"><a href="/schedule/?view=bydate&release=theatrical&date=2001-08-10&p=.htm">8/10/01</a></font></td>\r\n</tr>\r\n\r\n<tr bgcolor="#ffffff"><td align="center"><font size="2">9</font></td>\r\n<td><font size="2"><a href="/movies/?id=newlinehorror.htm"><b>Annabelle</b></a></font></td>\r\n<td><font size="2"><a href="/studio/chart/?studio=wb-newline.htm">WB (NL)</a></font></td>\r\n<td align="right"><font size="2"><b>$84,273,813</b></font></td>\r\n<td align="right"><font size="2">3,215</font></td>\r\n<td align="right"><font size="2">$37,134,255</font></td>\r\n<td align="right"><font size="2">3,185</font></td>\r\n<td align="right"><font size="2"><a href="/schedule/?view=bydate&release=theatrical&date=2014-10-03&p=.htm">10/3/14</a></font></td>\r\n</tr>\r\n\r\n<tr bgcolor="#f4f4ff"><td align="center"><font size="2">10</font></td>\r\n<td><font size="2"><a href="/movies/?id=bramstokersdracula.htm"><b>Bram Stoker\'s Dracula</b></a></font></td>\r\n<td><font size="2"><a href="/studio/chart/?studio=columbia.htm">Col.</a></font></td>\r\n<td align="right"><font size="2"><b>$82,522,790</b></font></td>\r\n<td align="right"><font size="2">2,491</font></td>\r\n<td align="right"><font size="2">$30,521,679</font></td>\r\n<td align="right"><font size="2">2,491</font></td>\r\n<td align="right"><font size="2"><a href="/schedule/?view=bydate&release=theatrical&date=1992-11-13&p=.htm">11/13/92</a></font></td>\r\n</tr>\r\n\r\n<tr bgcolor="#ffffff"><td align="center"><font size="2">11</font></td>\r\n<td><font size="2"><a href="/movies/?id=wolfman.htm"><b>The Wolfman</b></a></font></td>\r\n<td><font size="2"><a href="/studio/chart/?studio=universal.htm">Uni.</a></font></td>\r\n<td align="right"><font size="2"><b>$61,979,680</b></font></td>\r\n<td align="right"><font size="2">3,223</font></td>\r\n<td align="right"><font size="2">$31,479,235</font></td>\r\n<td align="right"><font size="2">3,222</font></td>\r\n<td align="right"><font size="2"><a href="/schedule/?view=bydate&release=theatrical&date=2010-02-12&p=.htm">2/12/10</a></font></td>\r\n</tr>\r\n\r\n<tr bgcolor="#f4f4ff"><td align="center"><font size="2">12</font></td>\r\n<td><font size="2"><a href="/movies/?id=womaninblack.htm"><b>The Woman in Black</b></a></font></td>\r\n<td><font size="2"><a href="/studio/chart/?studio=cbsfilms.htm">CBS</a></font></td>\r\n<td align="right"><font size="2"><b>$54,333,290</b></font></td>\r\n<td align="right"><font size="2">2,856</font></td>\r\n<td align="right"><font size="2">$20,874,072</font></td>\r\n<td align="right"><font size="2">2,855</font></td>\r\n<td align="right"><font size="2"><a href="/schedule/?view=bydate&release=theatrical&date=2012-02-03&p=.htm">2/3/12</a></font></td>\r\n</tr>\r\n\r\n<tr bgcolor="#ffffff"><td align="center"><font size="2">13</font></td>\r\n<td><font size="2"><a href="/movies/?id=exorcist4.htm"><b>Exorcist: The Beginning</b></a></font></td>\r\n<td><font size="2"><a href="/studio/chart/?studio=warnerbros.htm">WB</a></font></td>\r\n<td align="right"><font size="2"><b>$41,821,986</b></font></td>\r\n<td align="right"><font size="2">2,813</font></td>\r\n<td align="right"><font size="2">$18,054,001</font></td>\r\n<td align="right"><font size="2">2,803</font></td>\r\n<td align="right"><font size="2"><a href="/schedule/?view=bydate&release=theatrical&date=2004-08-20&p=.htm">8/20/04</a></font></td>\r\n</tr>\r\n\r\n<tr bgcolor="#f4f4ff"><td align="center"><font size="2">14</font></td>\r\n<td><font size="2"><a href="/movies/?id=ghostandthedarkness.htm"><b>The Ghost and the Darkness</b></a></font></td>\r\n<td><font size="2"><a href="/studio/chart/?studio=paramount.htm">Par.</a></font></td>\r\n<td align="right"><font size="2"><b>$38,619,405</b></font></td>\r\n<td align="right"><font size="2">2,202</font></td>\r\n<td align="right"><font size="2">$9,215,063</font></td>\r\n<td align="right"><font size="2">2,142</font></td>\r\n<td align="right"><font size="2"><a href="/schedule/?view=bydate&release=theatrical&date=1996-10-11&p=.htm">10/11/96</a></font></td>\r\n</tr>\r\n\r\n<tr bgcolor="#ffffff"><td align="center"><font size="2">15</font></td>\r\n<td><font size="2"><a href="/movies/?id=abrahamlincolnvampirehunter.htm"><b>Abraham Lincoln: Vampire Hunter</b></a></font></td>\r\n<td><font size="2"><a href="/studio/chart/?studio=fox.htm">Fox</a></font></td>\r\n<td align="right"><font size="2"><b>$37,519,139</b></font></td>\r\n<td align="right"><font size="2">3,109</font></td>\r\n<td align="right"><font size="2">$16,306,974</font></td>\r\n<td align="right"><font size="2">3,108</font></td>\r\n<td align="right"><font size="2"><a href="/schedule/?view=bydate&release=theatrical&date=2012-06-22&p=.htm">6/22/12</a></font></td>\r\n</tr>\r\n\r\n<tr bgcolor="#f4f4ff"><td align="center"><font size="2">16</font></td>\r\n<td><font size="2"><a href="/movies/?id=fromhell.htm"><b>From Hell</b></a></font></td>\r\n<td><font size="2"><a href="/studio/chart/?studio=fox.htm">Fox</a></font></td>\r\n<td align="right"><font size="2"><b>$31,602,566</b></font></td>\r\n<td align="right"><font size="2">2,334</font></td>\r\n<td align="right"><font size="2">$11,014,818</font></td>\r\n<td align="right"><font size="2">2,305</font></td>\r\n<td align="right"><font size="2"><a href="/schedule/?view=bydate&release=theatrical&date=2001-10-19&p=.htm">10/19/01</a></font></td>\r\n</tr>\r\n\r\n<tr bgcolor="#ffffff"><td align="center"><font size="2">17</font></td>\r\n<td><font size="2"><a href="/movies/?id=missing03.htm"><b>The Missing</b></a></font></td>\r\n<td><font size="2"><a href="/studio/chart/?studio=revolutionstudios.htm">SonR</a></font></td>\r\n<td align="right"><font size="2"><b>$27,011,180</b></font></td>\r\n<td align="right"><font size="2">2,756</font></td>\r\n<td align="right"><font size="2">$10,833,633</font></td>\r\n<td align="right"><font size="2">2,756</font></td>\r\n<td align="right"><font size="2"><a href="/schedule/?view=bydate&release=theatrical&date=2003-11-26&p=.htm">11/26/03</a></font></td>\r\n</tr>\r\n\r\n<tr bgcolor="#f4f4ff"><td align="center"><font size="2">18</font></td>\r\n<td><font size="2"><a href="/movies/?id=womaninblack2.htm"><b>The Woman in Black 2: Angel of Death</b></a></font></td>\r\n<td><font size="2"><a href="/studio/chart/?studio=relativity.htm">Rela.</a></font></td>\r\n<td align="right"><font size="2"><b>$26,501,323</b></font></td>\r\n<td align="right"><font size="2">2,602</font></td>\r\n<td align="right"><font size="2">$15,027,415</font></td>\r\n<td align="right"><font size="2">2,602</font></td>\r\n<td align="right"><font size="2"><a href="/schedule/?view=bydate&release=theatrical&date=2015-01-02&p=.htm">1/2/15</a></font></td>\r\n</tr>\r\n\r\n<tr bgcolor="#ffffff"><td align="center"><font size="2">19</font></td>\r\n<td><font size="2"><a href="/movies/?id=maryshelleysfrankenstein.htm"><b>Mary Shelley\'s Frankenstein</b></a></font></td>\r\n<td><font size="2"><a href="/studio/chart/?studio=sony.htm">Sony</a></font></td>\r\n<td align="right"><font size="2"><b>$22,006,296</b></font></td>\r\n<td align="right"><font size="2">2,177</font></td>\r\n<td align="right"><font size="2">$11,212,889</font></td>\r\n<td align="right"><font size="2">2,177</font></td>\r\n<td align="right"><font size="2"><a href="/schedule/?view=bydate&release=theatrical&date=1994-11-04&p=.htm">11/4/94</a></font></td>\r\n</tr>\r\n\r\n<tr bgcolor="#f4f4ff"><td align="center"><font size="2">20</font></td>\r\n<td><font size="2"><a href="/movies/?id=americanhaunting.htm"><b>An American Haunting</b></a></font></td>\r\n<td><font size="2"><a href="/studio/chart/?studio=freestyle.htm">Free</a></font></td>\r\n<td align="right"><font size="2"><b>$16,298,046</b></font></td>\r\n<td align="right"><font size="2">1,703</font></td>\r\n<td align="right"><font size="2">$5,783,508</font></td>\r\n<td align="right"><font size="2">1,675</font></td>\r\n<td align="right"><font size="2"><a href="/schedule/?view=bydate&release=theatrical&date=2006-05-05&p=.htm">5/5/06</a></font></td>\r\n</tr>\r\n\r\n<tr bgcolor="#ffffff"><td align="center"><font size="2">21</font></td>\r\n<td><font size="2"><a href="/movies/?id=raven.htm"><b>The Raven</b></a></font></td>\r\n<td><font size="2"><a href="/studio/chart/?studio=relativity.htm">Rela.</a></font></td>\r\n<td align="right"><font size="2"><b>$16,008,272</b></font></td>\r\n<td align="right"><font size="2">2,209</font></td>\r\n<td align="right"><font size="2">$7,289,642</font></td>\r\n<td align="right"><font size="2">2,203</font></td>\r\n<td align="right"><font size="2"><a href="/schedule/?view=bydate&release=theatrical&date=2012-04-27&p=.htm">4/27/12</a></font></td>\r\n</tr>\r\n\r\n<tr bgcolor="#f4f4ff"><td align="center"><font size="2">22</font></td>\r\n<td><font size="2"><a href="/movies/?id=maryreilly.htm"><b>Mary Reilly</b></a></font></td>\r\n<td><font size="2"><a href="/studio/chart/?studio=sony.htm">Sony</a></font></td>\r\n<td align="right"><font size="2"><b>$5,707,094</b></font></td>\r\n<td align="right"><font size="2">1,470</font></td>\r\n<td align="right"><font size="2">$2,812,620</font></td>\r\n<td align="right"><font size="2">1,470</font></td>\r\n<td align="right"><font size="2"><a href="/schedule/?view=bydate&release=theatrical&date=1996-02-23&p=.htm">2/23/96</a></font></td>\r\n</tr>\r\n\r\n<tr bgcolor="#ffffff"><td align="center"><font size="2">23</font></td>\r\n<td><font size="2"><a href="/movies/?id=ravenous.htm"><b>Ravenous</b></a></font></td>\r\n<td><font size="2"><a href="/studio/chart/?studio=fox.htm">Fox</a></font></td>\r\n<td align="right"><font size="2"><b>$2,062,405</b></font></td>\r\n<td align="right"><font size="2">1,040</font></td>\r\n<td align="right"><font size="2">$1,040,727</font></td>\r\n<td align="right"><font size="2">1,040</font></td>\r\n<td align="right"><font size="2"><a href="/schedule/?view=bydate&release=theatrical&date=1999-03-19&p=.htm">3/19/99</a></font></td>\r\n</tr>\r\n\r\n<tr bgcolor="#f4f4ff"><td align="center"><font size="2">24</font></td>\r\n<td><font size="2"><a href="/movies/?id=gothic.htm"><b>Gothic</b></a></font></td>\r\n<td><font size="2"><a href="/studio/chart/?studio=vestron.htm">Vest</a></font></td>\r\n<td align="right"><font size="2"><b>$916,172</b></font></td>\r\n<td align="right"><font size="2">20</font></td>\r\n<td align="right"><font size="2">$32,061</font></td>\r\n<td align="right"><font size="2">1</font></td>\r\n<td align="right"><font size="2"><a href="/schedule/?view=bydate&release=theatrical&date=1987-04-10&p=.htm">4/10/87</a></font></td>\r\n</tr>\r\n\r\n<tr bgcolor="#ffffff"><td align="center"><font size="2">25</font></td>\r\n<td><font size="2"><a href="/movies/?id=devilsbackbone.htm"><b>The Devil\'s Backbone</b></a></font></td>\r\n<td><font size="2"><a href="/studio/chart/?studio=sonyclassics.htm">SPC</a></font></td>\r\n<td align="right"><font size="2"><b>$755,249</b></font></td>\r\n<td align="right"><font size="2">35</font></td>\r\n<td align="right"><font size="2">$34,963</font></td>\r\n<td align="right"><font size="2">4</font></td>\r\n<td align="right"><font size="2"><a href="/schedule/?view=bydate&release=theatrical&date=2001-11-21&p=.htm">11/21/01</a></font></td>\r\n</tr>\r\n\r\n<tr bgcolor="#f4f4ff"><td align="center"><font size="2">26</font></td>\r\n<td><font size="2"><a href="/movies/?id=cronos.htm"><b>Cronos</b></a></font></td>\r\n<td><font size="2"><a href="/studio/chart/?studio=october.htm">Oct.</a></font></td>\r\n<td align="right"><font size="2"><b>$621,392</b></font></td>\r\n<td align="right"><font size="2">28</font></td>\r\n<td align="right"><font size="2">$17,538</font></td>\r\n<td align="right"><font size="2">2</font></td>\r\n<td align="right"><font size="2"><a href="/schedule/?view=bydate&release=theatrical&date=1994-04-01&p=.htm">4/1/94</a></font></td>\r\n</tr>\r\n\r\n<tr bgcolor="#ffffff"><td align="center"><font size="2">27</font></td>\r\n<td><font size="2"><a href="/movies/?id=below.htm"><b>Below</b></a></font></td>\r\n<td><font size="2"><a href="/studio/chart/?studio=dimension.htm">Dim.</a></font></td>\r\n<td align="right"><font size="2"><b>$605,562</b></font></td>\r\n<td align="right"><font size="2">353</font></td>\r\n<td align="right"><font size="2">$201,431</font></td>\r\n<td align="right"><font size="2">168</font></td>\r\n<td align="right"><font size="2"><a href="/schedule/?view=bydate&release=theatrical&date=2002-10-11&p=.htm">10/11/02</a></font></td>\r\n</tr>\r\n\r\n<tr bgcolor="#f4f4ff"><td align="center"><font size="2">28</font></td>\r\n<td><font size="2"><a href="/movies/?id=dominion.htm"><b>Dominion: Prequel to the Exorcist</b></a></font></td>\r\n<td><font size="2"><a href="/studio/chart/?studio=warnerbros.htm">WB</a></font></td>\r\n<td align="right"><font size="2"><b>$251,495</b></font></td>\r\n<td align="right"><font size="2">110</font></td>\r\n<td align="right"><font size="2">$140,703</font></td>\r\n<td align="right"><font size="2">110</font></td>\r\n<td align="right"><font size="2"><a href="/schedule/?view=bydate&release=theatrical&date=2005-05-20&p=.htm">5/20/05</a></font></td>\r\n</tr>\r\n\r\n<tr bgcolor="#ffffff"><td align="center"><font size="2">29</font></td>\r\n<td><font size="2"><a href="/movies/?id=berberiansoundstudio.htm"><b>Berberian Sound Studio</b></a></font></td>\r\n<td><font size="2"><a href="/studio/chart/?studio=ifc.htm">IFC</a></font></td>\r\n<td align="right"><font size="2"><b>$38,493</b></font></td>\r\n<td align="right"><font size="2">11</font></td>\r\n<td align="right"><font size="2">$6,605</font></td>\r\n<td align="right"><font size="2">5</font></td>\r\n<td align="right"><font size="2"><a href="/schedule/?view=bydate&release=theatrical&date=2013-06-14&p=.htm">6/14/13</a></font></td>\r\n</tr>\r\n\r\n<tr bgcolor="#f4f4ff"><td align="center"><font size="2">30</font></td>\r\n<td><font size="2"><a href="/movies/?id=marsh.htm"><b>The Marsh</b></a></font></td>\r\n<td><font size="2"><a href="/studio/chart/?studio=alliance.htm">All.</a></font></td>\r\n<td align="right"><font size="2"><b>$336</b></font></td>\r\n<td align="right"><font size="2">1</font></td>\r\n<td align="right"><font size="2">$336</font></td>\r\n<td align="right"><font size="2">1</font></td>\r\n<td align="right"><font size="2"><a href="/schedule/?view=bydate&release=theatrical&date=2007-03-23&p=.htm">3/23/07</a></font></td>\r\n</tr>\r\n\r\n<tr bgcolor="#dcdcdc"><td align="right" colspan="3"><font size="2"><b>TOTAL (All Movies):</b></font><font size="2"></font></td><font size="2"></font></td><td align="right"><font size="2"><b>$1,458,131,267</b></font></td><td align="right"><font size="2">-</font></td><td align="right"><font size="2">-</font></td><td align="right"><font size="2">-</font></td><td align="center"><font size="2">-</font></td></tr><tr bgcolor="#dcdcdc"><td align="right" colspan="3"><font size="2"><b>AVERAGE (All Movies):</b></font><font size="2"></font></td><font size="2"></font></td><td align="right"><font size="2"><b>$48,604,376</b></font></td><td align="right"><font size="2">2,080</font></td><td align="right"><font size="2">$18,251,814</font></td><td align="right"><font size="2">2,006</font></td><td align="center"><font size="2">-</font></td></tr><tr bgcolor="#dcdcdc"><td align="right" colspan="3"><font size="2"><b>TOTAL<br>(Wide Releases Only):</b></font><font size="2"></font></td><font size="2"></font></td><td align="right"><font size="2"><b>$1,454,942,568</b></font></td><td align="right"><font size="2">-</font></td><td align="right"><font size="2">-</font></td><td align="right"><font size="2">-</font></td><td align="center"><font size="2">-</font></td></tr><tr bgcolor="#dcdcdc"><td align="right" colspan="3"><font size="2"><b>AVERAGE<br>(Wide Releases Only):</b></font><font size="2"></font></td><font size="2"></font></td><td align="right"><font size="2"><b>$63,258,373</b></font></td><td align="right"><font size="2">2,688</font></td><td align="right"><font size="2">$23,787,860</font></td><td align="right"><font size="2">2,604</font></td><td align="center"><font size="2">-</font></td></tr></table><br><br><ul class="nav_tabs">\n<li class="nav_tab_current"><a href="/genres/chart/?view=main&id=horrorperiod.htm&p=.htm">Total Grosses</a></li>\n<li><a href="/genres/chart/?view=openings&id=horrorperiod.htm&p=.htm">Opening Weekends</a></li>\n</ul>\n<br>\n<p align="center"><font face="Verdana" size="2">\nIf there are any movies that you think should be on this list, e-mail us at <a href="mailto:mail@boxofficemojo.com">mail@boxofficemojo.com</a>.</font></p>\n\n<br></td><td valign="top" align="center" width="300"><!-- begin ad tag (tile=2) -->\r\n<script type="text/javascript">\r\n//<![CDATA[\r\nord=1672107847;\r\ndocument.write(\'<iframe src="http://ad.doubleclick.net/N4215/adi/imdb2.bom.other/;p=rh;tile=2;sz=300x250;oe=ISO-8859-1;ord=\' + ord + \'?" width="300" height="250" marginwidth="0" marginheight="0" frameborder="0" scrolling="no">\');\r\n\r\nif (navigator.userAgent.indexOf("Gecko")==-1)\r\n{\r\ndocument.write(\'<script type="text/javascript" src="http://ad.doubleclick.net/N4215/adj/imdb2.bom.other/;p=rh;tile=2;sz=300x250;abr=!ie;oe=ISO-8859-1;ord=\' + ord + \'?"><\\/script>\');\r\n}\r\ndocument.write(\'</iframe>\');\r\n//]]>\r\n</script>\r\n<noscript><a href="http://ad.doubleclick.net/N4215/jump/imdb2.bom.other/;p=rh;tile=2;sz=300x250;oe=ISO-8859-1;ord=1672107847?" target="_blank" ><img src="http://ad.doubleclick.net/N4215/ad/imdb2.bom.2/;p=rh;tile=2;sz=300x250;oe=ISO-8859-1;ord=1672107847?" border="0" alt="" /></a></noscript>\r\n<!-- end ad tag --><br><br></td></tr></table><br>\n\t</div>\n\t</div>\n\t<div id="hp_footer">\n\t\t<div style="padding-bottom: 20px;">\n\n\t\t\t<div style="margin: 0px 121px; vertical-align: top;">\n\t\t\t\t<div id="footer_links">\n\t\t\t\t\t<ul class="footer_link_list">\n\t\t\t\t\t\t<li><strong>Latest Updates</strong></li>\n\t\t\t\t\t\t<li><a href="/news/?ref=ft">Movie News</a>\n\t\t\t\t\t\t<li><a href="/daily/chart/?ref=ft">Daily Chart</a></li>\n\t\t\t\t\t\t<li><a href="/weekend/chart/?ref=ft">Weekend Chart</a></li>\n\t\t\t\t\t\t<li><a href="/alltime/?ref=ft">All Time Charts</a></li>\n\t\t\t\t\t\t<li><a href="/intl/?ref=ft">International Charts</a></li>\n\t\t\t\t\t</ul>\n\t\t\t\t\t<!--\n\t\t\t\t\t<ul class="footer_link_list">\n\t\t\t\t\t\t<li><strong>Popular Movies</strong></li>\n\t\t\t\t\t\t\t\t\t\t\t</ul>\n\t\t\t\t\t-->\n\t\t\t\t\t<ul class="footer_link_list">\n\t\t\t\t\t\t<li><strong>Indices</strong></li>\n\t\t\t\t\t\t<li><a href="/movies/?ref=ft">Movies A-Z</a></li>\n\t\t\t\t\t\t<li><a href="/people/?ref=ft">People</a></li>\n\t\t\t\t\t\t<li><a href="/genres/?ref=ft">Genres</a></li>\n\t\t\t\t\t\t<li><a href="/franchises/?ref=ft">Franchises</a></li>\n\t\t\t\t\t\t<li><a href="/showdowns/?ref=ft">Showdowns</a></li>\n\t\t\t\t\t</ul>\n\t\t\t\t\t<ul class="footer_link_list">\n\t\t\t\t\t\t<li><strong>Other</strong></li>\n\t\t\t\t\t\t<li><a href="/about/?ref=ft">About This Site</a></li>\n\t\t\t\t\t\t<li><a href="/about/advertise.htm?ref=ft">Advertising</a></li>\n\t\t\t\t\t\t<li><a href="/users/?ref=ft">My Account</a></li>\n\t\t\t\t\t\t<li><a href="/about/rss.htm?ref=ft">RSS Feeds</a></li>\n\t\t\t\t\t</ul>\n\t\t\t\t</div>\n\t\t\t\t<div id="copyright">\n\t\t\t\t\t<a href="/?ref=ft"><img src="/img/misc/bom_logo1.png" width="245" height="56" alt="Box Office Mojo"></a><br>\n\t\t\t\t\t<p>An <a href="http://imdb.com/"><img src="/img/misc/IMDbSm.png" width="34" height="16" alt="IMDb" valign="middle"></a> company<br><br></p>\n\t\t\t\t\t<p>&copy; <a href="http://imdb.com/">IMDb.com</a>, Inc. or its affiliates. All rights reserved. Box Office Mojo and IMDb are trademarks or registered trademarks of IMDb.com, Inc. or its affiliates. <a href="/about/termsofuse.htm">Terms of Use</a> and <a href="/about/privacy.htm">Privacy Policy</a> under which this service is provided to you.</p>\n\t\t\t\t\t</div>\t\t\t\n\t\t\t\t</div>\n\t\t\t\t<div style="clear:both;">\n\t\t\t\t<div>\n\t\t\t\t <!-- begin ad tag (tile=6) -->\r\n<script type="text/javascript">\r\n//<![CDATA[\r\nord=1672107847;\r\ndocument.write(\'<iframe src="http://ad.doubleclick.net/N4215/adi/imdb2.bom.other/;p=b;tile=3;sz=728x90;oe=ISO-8859-1;ord=\' + ord + \'?" width="728" height="90" marginwidth="0" marginheight="0" frameborder="0" scrolling="no">\');\r\n\r\nif (navigator.userAgent.indexOf("Gecko")==-1)\r\n{\r\ndocument.write(\'<script type="text/javascript" src="http://ad.doubleclick.net/N4215/adj/imdb2.bom.other/;p=b;tile=3;sz=728x90;abr=!ie;oe=ISO-8859-1;ord=\' + ord + \'?"><\\/script>\');\r\n}\r\ndocument.write(\'<\\/iframe>\');\r\n//]]>\r\n</script>\r\n<noscript><a href="http://ad.doubleclick.net/N4215/jump/imdb2.bom.other/;p=b;tile=3;sz=728x90;oe=ISO-8859-1;ord=1672107847?" target="_blank" ><img src="http://ad.doubleclick.net/N4215/ad/imdb2.bom.other/;p=b;tile=3;sz=728x90;oe=ISO-8859-1;ord=1672107847?" border="0" alt="" ></a></noscript>\r\n<!-- end ad tag --></div>\n\n\t\t\t\t</div>\n\t</div>\n</div>\n\n\n\n\n\n<!-- Page generated in 0.04 seconds | . -->\n<script>\n  var _comscore = _comscore || [];\n  _comscore.push({ c1: "2", c2: "6034961" });\n  (function() {\n    var s = document.createElement("script"), el = document.getElementsByTagName("script")[0]; s.async = true;\n    s.src = (document.location.protocol == "https:" ? "https://sb" : "http://b") + ".scorecardresearch.com/beacon.js";\n  el.parentNode.insertBefore(s, el);\n  })();\n</script>\n<noscript>\n    <img src="http://b.scorecardresearch.com/p?c1=2&c2=6034961&cv=2.0&cj=1" />\n</noscript>\n</body>\n</html>\n'
p30
sS'encoding'
p31
S'ISO-8859-1'
p32
sS'url'
p33
Vhttp://www.boxofficemojo.com/genres/chart/?id=horrorperiod.htm
p34
sS'status_code'
p35
I200
sS'request'
p36
g0
(crequests.models
PreparedRequest
p37
g2
Ntp38
Rp39
(dp40
S'body'
p41
Nsg33
S'http://www.boxofficemojo.com/genres/chart/?id=horrorperiod.htm'
p42
sS'hooks'
p43
(dp44
S'response'
p45
(lp46
ssS'headers'
p47
g0
(crequests.structures
CaseInsensitiveDict
p48
g2
Ntp49
Rp50
(dp51
S'_store'
p52
(dp53
S'connection'
p54
(S'Connection'
p55
S'keep-alive'
p56
tp57
sS'accept-encoding'
p58
(S'Accept-Encoding'
p59
S'gzip, deflate'
p60
tp61
sS'accept'
p62
(S'Accept'
p63
S'*/*'
p64
tp65
sS'user-agent'
p66
(S'User-Agent'
p67
S'python-requests/2.7.0 CPython/2.7.10 Darwin/14.5.0'
p68
tp69
ssbsg27
g0
(g7
g2
Ntp70
Rp71
(dp72
g11
I1444059542
sg12
(icookielib
DefaultCookiePolicy
p73
(dp74
g15
I01
sg16
I0
sg17
Nsg18
Nsg19
I00
sg20
I00
sg11
I1444059542
sg21
I00
sg22
I00
sg23
I00
sg24
I00
sg25
(tsg26
I01
sbsg27
(dp75
sbsS'method'
p76
S'GET'
p77
sbsS'elapsed'
p78
cdatetime
timedelta
p79
(I0
I0
I474714
tp80
Rp81
sg47
g0
(g48
g2
Ntp82
Rp83
(dp84
g52
(dp85
S'content-length'
p86
(S'content-length'
p87
S'7490'
p88
tp89
sS'x-xss-protection'
p90
(S'x-xss-protection'
p91
S'1; mode=block'
p92
tp93
sS'x-content-type-options'
p94
(S'x-content-type-options'
p95
S'nosniff'
p96
tp97
sS'content-encoding'
p98
(S'content-encoding'
p99
S'gzip'
p100
tp101
sS'expires'
p102
(S'expires'
p103
S'Thu, 19 Nov 1981 08:52:00 GMT'
p104
tp105
sS'server'
p106
(S'server'
p107
S'Server'
p108
tp109
sS'connection'
p110
(S'connection'
p111
S'keep-alive'
p112
tp113
sS'x-permitted-cross-domain-policies'
p114
(S'x-permitted-cross-domain-policies'
p115
S'master-only'
p116
tp117
sS'pragma'
p118
(S'pragma'
p119
S'no-cache'
p120
tp121
sS'cache-control'
p122
(S'cache-control'
p123
S'no-store, no-cache, must-revalidate, post-check=0, pre-check=0'
p124
tp125
sS'date'
p126
(S'date'
p127
S'Mon, 05 Oct 2015 15:38:03 GMT'
p128
tp129
sS'x-frame-options'
p130
(S'x-frame-options'
p131
S'SAMEORIGIN'
p132
tp133
sS'content-type'
p134
(S'content-type'
p135
S'text/html'
p136
tp137
ssbsS'reason'
p138
S'OK'
p139
sS'history'
p140
(lp141
sb.