ccopy_reg
_reconstructor
p0
(cpandas.core.frame
DataFrame
p1
c__builtin__
object
p2
Ntp3
Rp4
g0
(cpandas.core.internals
BlockManager
p5
g2
Ntp6
Rp7
((lp8
cpandas.core.index
_new_Index
p9
(cpandas.core.index
Index
p10
(dp11
S'data'
p12
cnumpy.core.multiarray
_reconstruct
p13
(cnumpy
ndarray
p14
(I0
tp15
S'b'
p16
tp17
Rp18
(I1
(I3
tp19
cnumpy
dtype
p20
(S'O8'
p21
I0
I1
tp22
Rp23
(I3
S'|'
p24
NNNI-1
I-1
I63
tp25
bI00
(lp26
S'Distributor'
p27
aS'Market Share'
p28
aS'Distributor Abbrv'
p29
atp30
bsS'name'
p31
Nstp32
Rp33
ag9
(cpandas.core.index
Int64Index
p34
(dp35
g12
g13
(g14
(I0
tp36
g16
tp37
Rp38
(I1
(I6
tp39
g20
(S'i8'
p40
I0
I1
tp41
Rp42
(I3
S'<'
p43
NNNI-1
I-1
I0
tp44
bI00
S'\x00\x00\x00\x00\x00\x00\x00\x00\x01\x00\x00\x00\x00\x00\x00\x00\x02\x00\x00\x00\x00\x00\x00\x00\x03\x00\x00\x00\x00\x00\x00\x00\x04\x00\x00\x00\x00\x00\x00\x00\x05\x00\x00\x00\x00\x00\x00\x00'
p45
tp46
bsg31
Nstp47
Rp48
a(lp49
g13
(g14
(I0
tp50
g16
tp51
Rp52
(I1
(I2
I6
tp53
g23
I00
(lp54
VUniversal
p55
aVBuena Vista
p56
aVWarner Bros.
p57
aV20th Century Fox
p58
aVParamount
p59
aVSony / Columbia
p60
aS'Uni.'
p61
aS'BV'
p62
aS'WB'
p63
aS'Fox'
p64
aS'Par.'
p65
aS'Sony'
p66
atp67
bag13
(g14
(I0
tp68
g16
tp69
Rp70
(I1
(I1
I6
tp71
g20
(S'f8'
p72
I0
I1
tp73
Rp74
(I3
S'<'
p75
NNNI-1
I-1
I0
tp76
bI00
S'D\x8bl\xe7\xfb\xa9\xd1?\xbbI\x0c\x02+\x87\xc6?#\xdb\xf9~j\xbc\xc4?A`\xe5\xd0"\xdb\xb9?D\x8bl\xe7\xfb\xa9\xb1?\x18\x04V\x0e-\xb2\xad?'
p77
tp78
ba(lp79
g9
(g10
(dp80
g12
g13
(g14
(I0
tp81
g16
tp82
Rp83
(I1
(I2
tp84
g23
I00
(lp85
g27
ag29
atp86
bsg31
Nstp87
Rp88
ag9
(g10
(dp89
g12
g13
(g14
(I0
tp90
g16
tp91
Rp92
(I1
(I1
tp93
g23
I00
(lp94
g28
atp95
bsg31
Nstp96
Rp97
a(dp98
S'0.14.1'
p99
(dp100
S'axes'
p101
g8
sS'blocks'
p102
(lp103
(dp104
S'mgr_locs'
p105
c__builtin__
slice
p106
(I0
I4
I2
tp107
Rp108
sS'values'
p109
g52
sa(dp110
g105
g106
(I1
I2
I1
tp111
Rp112
sg109
g70
sasstp113
bb.