ccopy_reg
_reconstructor
p0
(crequests.models
Response
p1
c__builtin__
object
p2
Ntp3
Rp4
(dp5
S'cookies'
p6
g0
(crequests.cookies
RequestsCookieJar
p7
g2
Ntp8
Rp9
(dp10
S'_now'
p11
I1444058510
sS'_policy'
p12
(icookielib
DefaultCookiePolicy
p13
(dp14
S'strict_rfc2965_unverifiable'
p15
I01
sS'strict_ns_domain'
p16
I0
sS'_allowed_domains'
p17
NsS'rfc2109_as_netscape'
p18
NsS'rfc2965'
p19
I00
sS'strict_domain'
p20
I00
sg11
I1444058510
sS'strict_ns_set_path'
p21
I00
sS'strict_ns_unverifiable'
p22
I00
sS'strict_ns_set_initial_dollar'
p23
I00
sS'hide_cookie2'
p24
I00
sS'_blocked_domains'
p25
(tsS'netscape'
p26
I01
sbsS'_cookies'
p27
(dp28
sbsS'_content'
p29
S'<!DOCTYPE html PUBLIC "-//W3C//DTD HTML 4.01 Transitional//EN" "http://www.w3.org/TR/html4/loose.dtd">\n<html lang="en">\n<HEAD>\n<TITLE>2014 Yearly Box Office Results - Box Office Mojo</TITLE>\n<META NAME="keywords" CONTENT="2014, year, yearly, box, office, result, list, movie, movies, listing, listings, top movies, all time, film">\n<META NAME="description" CONTENT="Yearly box office results for 2014.">\n<link rel="stylesheet" href="/css/mojo.css?1" type="text/css" media="screen" title="no title" charset="utf-8">\n<link rel="stylesheet" href="/css/mojo.css?1" type="text/css" media="print" title="no title" charset="utf-8"></head>\n<body>\n\t<iframe id="sis_pixel_sitewide" width="1" height="1" frameborder="0" marginwidth="0" marginheight="0" style="display: none;"></iframe>\n<script>\n    setTimeout(function(){\n        try{\n            //sis3.0 pixel\n            var cacheBust = Math.random() * 10000000000000000,\n                url_sis3 = \'http://s.amazon-adsystem.com/iu3?\',\n                params_sis3 = [\n                    "d=boxofficemojo.com",\n                    "cb=" + cacheBust\n                ];\n\n            (document.getElementById(\'sis_pixel_sitewide\')).src = url_sis3 + params_sis3.join(\'&\');\n        }catch(e){\n            if (window.ueLogError) { \n                window.ueLogError(e);\n            }\n        }\n    }, 5);\n</script>\n\n<div id="container">\n<div>\n<!-- GOOGLE ANALYTICS CODE STARTS -->\n<script type="text/javascript">\n\n  var _gaq = _gaq || [];\n  _gaq.push([\'_setAccount\', \'UA-2831726-1\']);\n  _gaq.push([\'_trackPageview\']);\n\n  (function() {\n    var ga = document.createElement(\'script\'); ga.type = \'text/javascript\'; ga.async = true;\n    ga.src = (\'https:\' == document.location.protocol ? \'https://ssl\' : \'http://www\') + \'.google-analytics.com/ga.js\';\n    (document.getElementsByTagName(\'head\')[0] || document.getElementsByTagName(\'body\')[0]).appendChild(ga);\n  })();\n\n</script>\n<!-- GOOGLE ANALYTICS CODE ENDS -->\n\t<div id="hp_banner">\n\t<div id="top_links">\n\t\t<div style="float: left"><a href="/daily/chart/">Daily Box Office (Sun.)</a> | <a href="/weekend/chart/">Weekend Box Office (Oct. 2&ndash;4)</a> | <a href="/movies/?id=scott2016.htm">#1 Movie: \'The Martian\'</a> | <a href="http://www.imdb.com/showtimes/?ref_=mojo">Showtimes</a></div>\n\t\t<div style="float: right">Updated 10/4/2015 7:11 P.M. Pacific Time</div>\n\t\t<div style="clear:both; height: 0px"></div>\n\t</div>\n</div>\n\t\t\n<div id="header">\n\t<div id="leaderboard"><!-- begin ad tag (tile=1) -->\r\n<script type="text/javascript">\r\n//<![CDATA[\r\nord=1859399127;\r\ndocument.write(\'<iframe src="http://ad.doubleclick.net/N4215/adi/imdb2.bom.other/;p=t;tile=1;sz=728x90;oe=ISO-8859-1;ord=\' + ord + \'?" width="728" height="90" marginwidth="0" marginheight="0" frameborder="0" scrolling="no">\');\r\n\r\nif (navigator.userAgent.indexOf("Gecko")==-1)\r\n{\r\ndocument.write(\'<script type="text/javascript" src="http://ad.doubleclick.net/N4215/adj/imdb2.bom.other/;p=t;tile=1;sz=728x90;abr=!ie;oe=ISO-8859-1;ord=\' + ord + \'?"><\\/script>\');\r\n}\r\ndocument.write(\'<\\/iframe>\');\r\n//]]>\r\n</script>\r\n<noscript><a href="http://ad.doubleclick.net/N4215/jump/imdb2.bom.other/;p=t;tile=1;sz=728x90;oe=ISO-8859-1;ord=1859399127?" target="_blank" ><img src="http://ad.doubleclick.net/N4215/ad/imdb2.bom.other/;p=t;tile=1;sz=728x90;oe=ISO-8859-1;ord=1859399127?" border="0" alt="" ></a></noscript>\r\n<!-- end ad tag --></div>\t<div id="hp_logo"><a href="/"><img src="/img/misc/bom_logo1.png" width="245" height="56" alt="Box Office Mojo"></a></div>\n\t<div style="clear:both; height: 0px"></div>\n</div>\n\n\n</div>\n\n\n<div id="main">\n<!-- COLUMN 1 of 4 -->\n\t<div id="leftnav">\n<!-- google_ad_section_start(weight=ignore) -->\n<!-- <table id="navleft" cellspacing="0" cellpadding="2" border="0"> -->\n<ul id="leftnav">\n<li class="nl_section">Search Site</li>\n<li class="nl_link" style="padding-left:0px">\n\t<form name="searchbox" method="POST" action="/search/q.php">\n\t<input name="q"  type="text" style="font-size: 9 pt; font-weight: bold; width: 90px;"><br>\n\t<input type="submit" value="Search..." ></form> \n</li>\n<li class=\'nl_section\'>Social</li>\n<li class="nl_link"><a href="http://facebook.com/boxofficemojo" style="vertical-align:middle;"><img src="/images/FaceBook_16x16.png" border="0" alt="Facebook Logo">Facebook</a></li>\n<li class="nl_link"><a href="http://twitter.com/boxofficemojo" style="vertical-align:middle;"><img src="/images/Twitter_16x16.png" border="0" alt="Twitter Logo">Twitter</a></li>\n\n<li class=\'nl_section\'>Features</li>\n<li class=\'nl_link\'><a href="/news/">News</a></li>\n<li class=\'nl_link\'><a href="/schedule/">Release Sched.</a></li>\n<li class=\'nl_link\'><a href="http://www.imdb.com/showtimes?ref_=mojo">Showtimes<br/><span style="margin-left:7px;color: #999999; font-size: 9px;">at <img src="/images/mojo_imdb_sm.png"/></span></a></li>\n<li class=\'nl_section\'>Box Office</li>\n<li class=\'nl_link\'><a href="/daily/">Daily</a></li>\n<li class=\'nl_link\'><a href="/weekend/">Weekend</a></li>\n<li class=\'nl_link\'><a href="/weekly/">Weekly</a></li>\n<li class=\'nl_link\'><a href="/monthly/">Monthly</a></li>\n<li class=\'nl_link\'><a href="/quarterly/">Quarterly</a></li>\n<li class=\'nl_link\'><a href="/seasonal/">Seasonal</a></li>\n<li class=\'nl_link_current\'><a href="/yearly/">Yearly</a></li>\n<li class=\'nl_link\'><a href="/alltime/">All Time</a></li>\n<li class=\'nl_link\'><a href="/chartwatch/">Chart Watch</a></li>\n<li class=\'nl_link\'><a href="/intl/">International</a></li>\n<li class=\'nl_section\'>Indices</li>\n<li class=\'nl_link\'><a href="/movies/">Movies A-Z</a></li>\n<li class=\'nl_link\'><a href="/studio/">Studios</a></li>\n<li class=\'nl_link\'><a href="/people/">People</a></li>\n<li class=\'nl_link\'><a href="/genres/">Genres</a></li>\n<li class=\'nl_link\'><a href="/franchises/">Franchises</a></li>\n<li class=\'nl_link\'><a href="/showdowns/">Showdowns</a></li>\n<li class=\'nl_link\'><a href="/oscar/">Oscar</a></li>\n<li class=\'nl_link\'><a href="/counts/">Theater Counts</a></li>\n</ul>\n</div>\n\t<div id="body">\n\t<div id="addthis"><table border="0" cellspacing="0" cellpadding="0">\r\n<tr>\r\n<form method="POST" action="/adjuster.php" name="adjuster">\r\n<input type="hidden" name="returnURL" value="/yearly/chart/?page=2&amp;view=releasedate&amp;view2=domestic&amp;yr=2014&amp;p=.htm">\r\n<td valign="center">\r\n  <font face="Verdana" size="2"><a href="/about/adjuster.htm"><b>Adjuster:</b></a></font>\r\n  <select size="1" name="ticketyr" style="font-family: Verdana; font-size: 10pt">\r\n  <option value="0" selected>Actuals</option>\r\n  <option value="1" >Est. Tckts</option>\r\n<script language="javascript">\r\n  for(i=2015; i>=1933; i--) {\r\n  \tdocument.write(\'<option value="\' + i + \'"\');\r\n\tif(i==\'0\') document.write(\' selected\');\r\n\tdocument.write(\'>\' + i );\r\n\tif(i==\'0\') document.write(\', $\' + \'0.00\');\r\n\tdocument.write(\'</option>\');\r\n  }\r\n</script>\r\n  <option value="1929" >1929</option>\r\n  <option value="1924" >1924</option>\r\n  <option value="1910" >1910</option>\r\n  </select><input type="submit" name="Go" value="Go" style="font-size: 10pt; height: 22">\r\n\r\n</td></form></tr></table>\r\n\r\n</div>\t\n\t<h2><a href="/yearly/">Yearly Box Office</a></h2>\n\n\t<table border="0" cellpadding="0" cellspacing="0" width="100%">\n\t\t<tr><td bgcolor="#8b0000" colspan="2"><img src="/images/space.gif" border="0" width="1" height="5"></td></tr>\n\t</table>\n\t\n<table border="0" width="100%" cellspacing="0" cellpadding="3">\n\t<tr>\n\t\t<td bgcolor="#FFFFFF" align="center"><b><font face="Verdana" size="1"><a href="/yearly/chart/?view=releasedate&view2=domestic&page=2&yr=2014&p=.htm">ALL RELEASES</a></font></b></td>\n\t\t<td bgcolor="#DCDCDC" align="center"><b><font face="Verdana" size="1"><a href="/yearly/chart/?view=widedate&view2=domestic&page=2&yr=2014&p=.htm">WIDE RELEASES</font></b></td>\n\t\t<td bgcolor="#DCDCDC" align="center"><b><font face="Verdana" size="1"><a href="/yearly/chart/?view=limited&view2=domestic&page=2&yr=2014&p=.htm">LIMITED RELEASES</font></b></td>\n\t\t\t\t<td bgcolor="#DCDCDC" align="center"><b><font face="Verdana" size="1"><a href="/yearly/chart/?view=calendargross&view2=domestic&page=2&yr=2014&p=.htm">CALENDAR GROSSES</font></b></td>\n\t\t\t</tr>\n</table>\n<table border="0" cellspacing="0" cellpadding="0" width="100%"><tr><td valign="top" align="center"><br>\n<h1>2014 DOMESTIC GROSSES</h1><p>Total Grosses of all Movies Released in 2014</h1></b></FONT></p>\n\n<center><font face="Verdana" size="4"><b><a href="/yearly/chart/?page=1&view=releasedate&view2=domestic&yr=2014&p=.htm">#1&#150;100</a> - <font face="Verdana" size="5">#101&#150;200</font> - <a href="/yearly/chart/?page=3&view=releasedate&view2=domestic&yr=2014&p=.htm">#201&#150;300</a> - <a href="/yearly/chart/?page=4&view=releasedate&view2=domestic&yr=2014&p=.htm">#301&#150;400</a> - <a href="/yearly/chart/?page=5&view=releasedate&view2=domestic&yr=2014&p=.htm">#401&#150;500</a> - <a href="/yearly/chart/?page=6&view=releasedate&view2=domestic&yr=2014&p=.htm">#501&#150;600</a> - <a href="/yearly/chart/?page=7&view=releasedate&view2=domestic&yr=2014&p=.htm">#601&#150;700</a> - <a href="/yearly/chart/?page=8&view=releasedate&view2=domestic&yr=2014&p=.htm">#701&#150;701</a></b></font></center><table border="0" cellspacing="0" cellpadding="0"><tr><td valign="bottom"><font face="Verdana" size="1"><b><a href="/yearly/chart/?yr=2013&view=releasedate&view2=domestic&sort=gross&order=DESC&&p=.htm">&lt; Previous Year</a></b></font></td><td align="center"><table border="0" cellspacing="0" cellpadding="0">\n\t\t\t\t\t<form method="POST" action="yearly.asof.php" name="asofjump">\n\t\t\t\t\t<tr><td><font face="Verdana" size="1"><br>Data as of:\n\t\t\t\t\t<select size="1" name="asof" style="font-size: 8pt">\n\t\t\t\t\t<option selected value="today">Today</option>\n\t\t\t\t\t<option  value="sametime">Today in 2014</option>\n\t\t\t\t\t<option value="2014-01-31">Jan. 31, 2014</option>\n\t\t\t\t\t<option value="2014-02-28">Feb. 28, 2014</option>\n\t\t\t\t\t<option value="2014-03-31">Mar. 31, 2014</option>\n\t\t\t\t\t<option value="2014-04-30">Apr. 30, 2014</option>\n\t\t\t\t\t<option value="2014-05-31">May 31, 2014</option>\n\t\t\t\t\t<option value="2014-06-30">Jun. 30, 2014</option>\n\t\t\t\t\t<option value="2014-07-31">Jul. 31, 2014</option>\n\t\t\t\t\t<option value="2014-08-31">Aug. 31, 2014</option>\n\t\t\t\t\t<option value="2014-09-30">Sep. 30, 2014</option>\n\t\t\t\t\t<option value="2014-10-31">Oct. 31, 2014</option>\n\t\t\t\t\t<option value="2014-11-30">Nov. 30, 2014</option>\n\t\t\t\t\t<option value="2014-12-31">Dec. 31, 2014</option>\n\t\t\t\t\t<option value="specify">Specify Date</option>\n\t\t\t\t\t<option value="about">About this feature</option>\n\t\t\t\t\t</select> or (<select size="1" name="asof_mo" style="font-size: 8pt">\n\t\t\t\t\t<option selected value="">Month</option>\n\t\t\t\t\t\n\t\t\t\t\t<option value="01">Jan.</option>\n\t\t\t\t\t<option value="02">Feb.</option>\n\t\t\t\t\t<option value="03">Mar.</option>\n\t\t\t\t\t<option value="04">Apr.</option>\n\t\t\t\t\t<option value="05">May</option>\n\t\t\t\t\t<option value="06">Jun.</option>\n\t\t\t\t\t<option value="07">Jul.</option>\n\t\t\t\t\t<option value="08">Aug.</option>\n\t\t\t\t\t<option value="09">Sep.</option>\n\t\t\t\t\t<option value="10">Oct.</option>\n\t\t\t\t\t<option value="11">Nov.</option>\n\t\t\t\t\t<option value="12">Dec.</option>\n\t\t\t\t\t</select> / <select size="1" name="asof_day" style="font-size: 8pt">\n\t\t\t\t\t<option selected value="">Day</option>\n\t\t\t\t\t<option value="01">1</option>\n\t\t\t\t\t<option value="02">2</option>\n\t\t\t\t\t<option value="03">3</option>\n\t\t\t\t\t<option value="04">4</option>\n\t\t\t\t\t<option value="05">5</option>\n\t\t\t\t\t<option value="06">6</option>\n\t\t\t\t\t<option value="07">7</option>\n\t\t\t\t\t<option value="08">8</option>\n\t\t\t\t\t<option value="09">9</option>\n\t\t\t\t\t<option value="10">10</option>\n\t\t\t\t\t<option value="11">11</option>\n\t\t\t\t\t<option value="12">12</option>\n\t\t\t\t\t<option value="13">13</option>\n\t\t\t\t\t<option value="14">14</option>\n\t\t\t\t\t<option value="15">15</option>\n\t\t\t\t\t<option value="16">16</option>\n\t\t\t\t\t<option value="17">17</option>\n\t\t\t\t\t<option value="18">18</option>\n\t\t\t\t\t<option value="19">19</option>\n\t\t\t\t\t<option value="20">20</option>\n\t\t\t\t\t<option value="21">21</option>\n\t\t\t\t\t<option value="22">22</option>\n\t\t\t\t\t<option value="23">23</option>\n\t\t\t\t\t<option value="24">24</option>\n\t\t\t\t\t<option value="25">25</option>\n\t\t\t\t\t<option value="26">26</option>\n\t\t\t\t\t<option value="27">27</option>\n\t\t\t\t\t<option value="28">28</option>\n\t\t\t\t\t<option value="29">29</option>\n\t\t\t\t\t<option value="30">30</option>\n\t\t\t\t\t<option value="31">31</option>\n\t\t\t\t\t</select> / <select size="1" name="asof_yr" style="font-size: 8pt">\n\t\t\t\t\t\t<option selected>2014</option>\n\t\t\t\t\t\t<option>2015</option>\n\t\t\t\t\t\t</select>) <input type="submit" value="Go" name="go" style="font-size: 8pt; height: 16">\n\t\t\t\t\t</font></td></tr>\n\t\t\t\t\t<input type="hidden" name="jumpstuff" value="view=releasedate&view2=domestic&yr=2014&sort=gross&order=DESC&p=.htm">\n\t\t\t\t\t<input type="hidden" name="curasof" value="today">\n\t\t\t\t\t<input type="hidden" name="yr" value="2014">\n\t\t\t\t\t</form>\n\t\t\t\t\t</table>\n\t\t\t\t</font></td><td valign="bottom" align="right"><font face="Verdana" size="1"><b><a href="/yearly/chart/?yr=2015&view=releasedate&view2=domestic&sort=gross&order=DESC&&p=.htm">Next Year &gt;</a></b></font></td></tr><tr><td colspan="3"><table border="0" cellspacing="1" cellpadding="5" bgcolor="#ffffff"><tr bgcolor="#dcdcdc"><td align="center"><font size="2"><a href="/yearly/chart/?view=releasedate&view2=domestic&yr=2014&sort=gross&order=ASC&p=.htm"><b>Rank</b></a></font></td><td align="center"><font size="2"><a href="/yearly/chart/?view=releasedate&view2=domestic&yr=2014&sort=title&order=ASC&p=.htm">Movie Title (click to view)</a></font></td><td align="center"><font size="2"><a href="/yearly/chart/?view=releasedate&view2=domestic&yr=2014&sort=studio&order=ASC&p=.htm">Studio</a><br><script language="javascript">\r\nfunction MojoDrop1() {\r\nvar number = document.MojoDropDown1.mojolinks1.selectedIndex;location.href = document.MojoDropDown1.mojolinks1.options[number].value;}</script>\r\n<table border="0" cellspacing="0" cellpadding="0">\r\n<form name="MojoDropDown1"><tr><td>\r\n<select name="mojolinks1" style="font-family: Verdana; font-size: 8pt" onChange="MojoDrop1(this.form)">\r\n<option selected>Filter</option><option value="/yearly/chart/?view=releasedate&view2=domestic&yr=2014&sort=gross&order=DESC&studio=tenfurlongs.htm">10F</option>\r\n<option value="/yearly/chart/?view=releasedate&view2=domestic&yr=2014&sort=gross&order=DESC&studio=fiveandtwo.htm">5&amp;2</option>\r\n<option value="/yearly/chart/?view=releasedate&view2=domestic&yr=2014&sort=gross&order=DESC&studio=area23a.htm">A23</option>\r\n<option value="/yearly/chart/?view=releasedate&view2=domestic&yr=2014&sort=gross&order=DESC&studio=a24.htm">A24</option>\r\n<option value="/yearly/chart/?view=releasedate&view2=domestic&yr=2014&sort=gross&order=DESC&studio=abkcofilms.htm">Abk.</option>\r\n<option value="/yearly/chart/?view=releasedate&view2=domestic&yr=2014&sort=gross&order=DESC&studio=abramorama.htm">Abr.</option>\r\n<option value="/yearly/chart/?view=releasedate&view2=domestic&yr=2014&sort=gross&order=DESC&studio=archstone.htm">AD</option>\r\n<option value="/yearly/chart/?view=releasedate&view2=domestic&yr=2014&sort=gross&order=DESC&studio=atlas.htm">ADC</option>\r\n<option value="/yearly/chart/?view=releasedate&view2=domestic&yr=2014&sort=gross&order=DESC&studio=aef.htm">AEF</option>\r\n<option value="/yearly/chart/?view=releasedate&view2=domestic&yr=2014&sort=gross&order=DESC&studio=adoptfilms.htm">AF</option>\r\n<option value="/yearly/chart/?view=releasedate&view2=domestic&yr=2014&sort=gross&order=DESC&studio=amplify.htm">Ampl.</option>\r\n<option value="/yearly/chart/?view=releasedate&view2=domestic&yr=2014&sort=gross&order=DESC&studio=anchorbayentertainment.htm">Anch.</option>\r\n<option value="/yearly/chart/?view=releasedate&view2=domestic&yr=2014&sort=gross&order=DESC&studio=apdcinema.htm">APD/C</option>\r\n<option value="/yearly/chart/?view=releasedate&view2=domestic&yr=2014&sort=gross&order=DESC&studio=argotpictures.htm">Argo.</option>\r\n<option value="/yearly/chart/?view=releasedate&view2=domestic&yr=2014&sort=gross&order=DESC&studio=artmattan.htm">Artma</option>\r\n<option value="/yearly/chart/?view=releasedate&view2=domestic&yr=2014&sort=gross&order=DESC&studio=bond360.htm">B360</option>\r\n<option value="/yearly/chart/?view=releasedate&view2=domestic&yr=2014&sort=gross&order=DESC&studio=baxterbros.htm">BBFR</option>\r\n<option value="/yearly/chart/?view=releasedate&view2=domestic&yr=2014&sort=gross&order=DESC&studio=barkingcow.htm">BCMG</option>\r\n<option value="/yearly/chart/?view=releasedate&view2=domestic&yr=2014&sort=gross&order=DESC&studio=breakingglass.htm">BGP</option>\r\n<option value="/yearly/chart/?view=releasedate&view2=domestic&yr=2014&sort=gross&order=DESC&studio=brothersink.htm">BIP</option>\r\n<option value="/yearly/chart/?view=releasedate&view2=domestic&yr=2014&sort=gross&order=DESC&studio=buenavista.htm">BV</option>\r\n<option value="/yearly/chart/?view=releasedate&view2=domestic&yr=2014&sort=gross&order=DESC&studio=bigworld.htm">BWP</option>\r\n<option value="/yearly/chart/?view=releasedate&view2=domestic&yr=2014&sort=gross&order=DESC&studio=cbsfilms.htm">CBS</option>\r\n<option value="/yearly/chart/?view=releasedate&view2=domestic&yr=2014&sort=gross&order=DESC&studio=cinedigmentertainment.htm">Cdgm.</option>\r\n<option value="/yearly/chart/?view=releasedate&view2=domestic&yr=2014&sort=gross&order=DESC&studio=clarius.htm">CE</option>\r\n<option value="/yearly/chart/?view=releasedate&view2=domestic&yr=2014&sort=gross&order=DESC&studio=counterpoint.htm">CF&amp;SR</option>\r\n<option value="/yearly/chart/?view=releasedate&view2=domestic&yr=2014&sort=gross&order=DESC&studio=carlotta.htm">CFilms</option>\r\n<option value="/yearly/chart/?view=releasedate&view2=domestic&yr=2014&sort=gross&order=DESC&studio=cinemaguild.htm">CGld</option>\r\n<option value="/yearly/chart/?view=releasedate&view2=domestic&yr=2014&sort=gross&order=DESC&studio=cjentertainment.htm">CJ</option>\r\n<option value="/yearly/chart/?view=releasedate&view2=domestic&yr=2014&sort=gross&order=DESC&studio=chinalion.htm">CL</option>\r\n<option value="/yearly/chart/?view=releasedate&view2=domestic&yr=2014&sort=gross&order=DESC&studio=cohenmedia.htm">Cohen</option>\r\n<option value="/yearly/chart/?view=releasedate&view2=domestic&yr=2014&sort=gross&order=DESC&studio=cinemapurgatorio.htm">CP</option>\r\n<option value="/yearly/chart/?view=releasedate&view2=domestic&yr=2014&sort=gross&order=DESC&studio=corinthfilmsinc.htm">Crnth</option>\r\n<option value="/yearly/chart/?view=releasedate&view2=domestic&yr=2014&sort=gross&order=DESC&studio=dada.htm">Da.</option>\r\n<option value="/yearly/chart/?view=releasedate&view2=domestic&yr=2014&sort=gross&order=DESC&studio=defineamerican.htm">DefA</option>\r\n<option value="/yearly/chart/?view=releasedate&view2=domestic&yr=2014&sort=gross&order=DESC&studio=distribfilms.htm">Distrib.</option>\r\n<option value="/yearly/chart/?view=releasedate&view2=domestic&yr=2014&sort=gross&order=DESC&studio=disruptivela.htm">DLA</option>\r\n<option value="/yearly/chart/?view=releasedate&view2=domestic&yr=2014&sort=gross&order=DESC&studio=doppelganger.htm">DR</option>\r\n<option value="/yearly/chart/?view=releasedate&view2=domestic&yr=2014&sort=gross&order=DESC&studio=drafthousefilms.htm">Drft.</option>\r\n<option value="/yearly/chart/?view=releasedate&view2=domestic&yr=2014&sort=gross&order=DESC&studio=elevenarts.htm">Elev.</option>\r\n<option value="/yearly/chart/?view=releasedate&view2=domestic&yr=2014&sort=gross&order=DESC&studio=entertainmentone.htm">EOne</option>\r\n<option value="/yearly/chart/?view=releasedate&view2=domestic&yr=2014&sort=gross&order=DESC&studio=eros.htm">Eros</option>\r\n<option value="/yearly/chart/?view=releasedate&view2=domestic&yr=2014&sort=gross&order=DESC&studio=filmbuffparticipant.htm">FB/Part.</option>\r\n<option value="/yearly/chart/?view=releasedate&view2=domestic&yr=2014&sort=gross&order=DESC&studio=thefilmdesk.htm">FDesk</option>\r\n<option value="/yearly/chart/?view=releasedate&view2=domestic&yr=2014&sort=gross&order=DESC&studio=fip.htm">FIP</option>\r\n<option value="/yearly/chart/?view=releasedate&view2=domestic&yr=2014&sort=gross&order=DESC&studio=filmmovement.htm">FM</option>\r\n<option value="/yearly/chart/?view=releasedate&view2=domestic&yr=2014&sort=gross&order=DESC&studio=focus.htm">Focus</option>\r\n<option value="/yearly/chart/?view=releasedate&view2=domestic&yr=2014&sort=gross&order=DESC&studio=fox.htm">Fox</option>\r\n<option value="/yearly/chart/?view=releasedate&view2=domestic&yr=2014&sort=gross&order=DESC&studio=foxsearchlight.htm">FoxS</option>\r\n<option value="/yearly/chart/?view=releasedate&view2=domestic&yr=2014&sort=gross&order=DESC&studio=firstpond.htm">FPE</option>\r\n<option value="/yearly/chart/?view=releasedate&view2=domestic&yr=2014&sort=gross&order=DESC&studio=filmrise.htm">FR</option>\r\n<option value="/yearly/chart/?view=releasedate&view2=domestic&yr=2014&sort=gross&order=DESC&studio=freestyle.htm">Free</option>\r\n<option value="/yearly/chart/?view=releasedate&view2=domestic&yr=2014&sort=gross&order=DESC&studio=firstrun.htm">FRun</option>\r\n<option value="/yearly/chart/?view=releasedate&view2=domestic&yr=2014&sort=gross&order=DESC&studio=ftp.htm">FTP</option>\r\n<option value="/yearly/chart/?view=releasedate&view2=domestic&yr=2014&sort=gross&order=DESC&studio=gathrfilms.htm">Gathr</option>\r\n<option value="/yearly/chart/?view=releasedate&view2=domestic&yr=2014&sort=gross&order=DESC&studio=giantflick.htm">GFl</option>\r\n<option value="/yearly/chart/?view=releasedate&view2=domestic&yr=2014&sort=gross&order=DESC&studio=gkids.htm">GK</option>\r\n<option value="/yearly/chart/?view=releasedate&view2=domestic&yr=2014&sort=gross&order=DESC&studio=samuelgoldwyn.htm">Gold.</option>\r\n<option value="/yearly/chart/?view=releasedate&view2=domestic&yr=2014&sort=gross&order=DESC&studio=gravitas.htm">Grav.</option>\r\n<option value="/yearly/chart/?view=releasedate&view2=domestic&yr=2014&sort=gross&order=DESC&studio=hannoverhouse.htm">Hann.</option>\r\n<option value="/yearly/chart/?view=releasedate&view2=domestic&yr=2014&sort=gross&order=DESC&studio=hightop.htm">HTR</option>\r\n<option value="/yearly/chart/?view=releasedate&view2=domestic&yr=2014&sort=gross&order=DESC&studio=icarus.htm">Icar.</option>\r\n<option value="/yearly/chart/?view=releasedate&view2=domestic&yr=2014&sort=gross&order=DESC&studio=intlfilmcircuit.htm">ICir</option>\r\n<option value="/yearly/chart/?view=releasedate&view2=domestic&yr=2014&sort=gross&order=DESC&studio=ifc.htm">IFC</option>\r\n<option value="/yearly/chart/?view=releasedate&view2=domestic&yr=2014&sort=gross&order=DESC&studio=janusfilms.htm">Jan.</option>\r\n<option value="/yearly/chart/?view=releasedate&view2=domestic&yr=2014&sort=gross&order=DESC&studio=jsc.htm">JSC</option>\r\n<option value="/yearly/chart/?view=releasedate&view2=domestic&yr=2014&sort=gross&order=DESC&studio=ketchup.htm">KE</option>\r\n<option value="/yearly/chart/?view=releasedate&view2=domestic&yr=2014&sort=gross&order=DESC&studio=kartemquinfilms.htm">KF</option>\r\n<option value="/yearly/chart/?view=releasedate&view2=domestic&yr=2014&sort=gross&order=DESC&studio=kinolorber.htm">KL</option>\r\n<option value="/yearly/chart/?view=releasedate&view2=domestic&yr=2014&sort=gross&order=DESC&studio=kimstim.htm">KS</option>\r\n<option value="/yearly/chart/?view=releasedate&view2=domestic&yr=2014&sort=gross&order=DESC&studio=level.htm">Level</option>\r\n<option value="/yearly/chart/?view=releasedate&view2=domestic&yr=2014&sort=gross&order=DESC&studio=lionsgatesummit.htm">LG/S</option>\r\n<option value="/yearly/chart/?view=releasedate&view2=domestic&yr=2014&sort=gross&order=DESC&studio=lionsgate.htm">LGF</option>\r\n<option value="/yearly/chart/?view=releasedate&view2=domestic&yr=2014&sort=gross&order=DESC&studio=cinemalibre.htm">Libre</option>\r\n<option value="/yearly/chart/?view=releasedate&view2=domestic&yr=2014&sort=gross&order=DESC&studio=longshotfactory.htm">Long Shot</option>\r\n<option value="/yearly/chart/?view=releasedate&view2=domestic&yr=2014&sort=gross&order=DESC&studio=libertystudios.htm">LS</option>\r\n<option value="/yearly/chart/?view=releasedate&view2=domestic&yr=2014&sort=gross&order=DESC&studio=magnolia.htm">Magn.</option>\r\n<option value="/yearly/chart/?view=releasedate&view2=domestic&yr=2014&sort=gross&order=DESC&studio=musicboxfilms.htm">MBox</option>\r\n<option value="/yearly/chart/?view=releasedate&view2=domestic&yr=2014&sort=gross&order=DESC&studio=mance.htm">MM</option>\r\n<option value="/yearly/chart/?view=releasedate&view2=domestic&yr=2014&sort=gross&order=DESC&studio=millenniumentertainment.htm">MNE</option>\r\n<option value="/yearly/chart/?view=releasedate&view2=domestic&yr=2014&sort=gross&order=DESC&studio=montereymediainc.htm">Mont.</option>\r\n<option value="/yearly/chart/?view=releasedate&view2=domestic&yr=2014&sort=gross&order=DESC&studio=mtuckman.htm">mTuck</option>\r\n<option value="/yearly/chart/?view=releasedate&view2=domestic&yr=2014&sort=gross&order=DESC&studio=movingvisions.htm">MVE</option>\r\n<option value="/yearly/chart/?view=releasedate&view2=domestic&yr=2014&sort=gross&order=DESC&studio=unknown.htm">N/A</option>\r\n<option value="/yearly/chart/?view=releasedate&view2=domestic&yr=2014&sort=gross&order=DESC&studio=northsouth.htm">NS</option>\r\n<option value="/yearly/chart/?view=releasedate&view2=domestic&yr=2014&sort=gross&order=DESC&studio=oceanavenue.htm">OAE</option>\r\n<option value="/yearly/chart/?view=releasedate&view2=domestic&yr=2014&sort=gross&order=DESC&studio=oldglove.htm">OGP</option>\r\n<option value="/yearly/chart/?view=releasedate&view2=domestic&yr=2014&sort=gross&order=DESC&studio=orchard.htm">Orch.</option>\r\n<option value="/yearly/chart/?view=releasedate&view2=domestic&yr=2014&sort=gross&order=DESC&studio=openroads.htm">ORF</option>\r\n<option value="/yearly/chart/?view=releasedate&view2=domestic&yr=2014&sort=gross&order=DESC&studio=oscilloscopepictures.htm">Osci.</option>\r\n<option value="/yearly/chart/?view=releasedate&view2=domestic&yr=2014&sort=gross&order=DESC&studio=outsiderpictures.htm">Outs</option>\r\n<option value="/yearly/chart/?view=releasedate&view2=domestic&yr=2014&sort=gross&order=DESC&studio=phase4.htm">P4</option>\r\n<option value="/yearly/chart/?view=releasedate&view2=domestic&yr=2014&sort=gross&order=DESC&studio=paladin.htm">Pala.</option>\r\n<option value="/yearly/chart/?view=releasedate&view2=domestic&yr=2014&sort=gross&order=DESC&studio=paramount.htm">Par.</option>\r\n<option value="/yearly/chart/?view=releasedate&view2=domestic&yr=2014&sort=gross&order=DESC&studio=paradedeck.htm">PDF</option>\r\n<option value="/yearly/chart/?view=releasedate&view2=domestic&yr=2014&sort=gross&order=DESC&studio=providencefilm.htm">PFP</option>\r\n<option value="/yearly/chart/?view=releasedate&view2=domestic&yr=2014&sort=gross&order=DESC&studio=picturehouse2.htm">PH</option>\r\n<option value="/yearly/chart/?view=releasedate&view2=domestic&yr=2014&sort=gross&order=DESC&studio=phantompain.htm">PPF</option>\r\n<option value="/yearly/chart/?view=releasedate&view2=domestic&yr=2014&sort=gross&order=DESC&studio=proudmother.htm">Proud</option>\r\n<option value="/yearly/chart/?view=releasedate&view2=domestic&yr=2014&sort=gross&order=DESC&studio=purdie.htm">Purd.</option>\r\n<option value="/yearly/chart/?view=releasedate&view2=domestic&yr=2014&sort=gross&order=DESC&studio=quadraticmedia.htm">Quad</option>\r\n<option value="/yearly/chart/?view=releasedate&view2=domestic&yr=2014&sort=gross&order=DESC&studio=roadsideattractions.htm">RAtt.</option>\r\n<option value="/yearly/chart/?view=releasedate&view2=domestic&yr=2014&sort=gross&order=DESC&studio=relativity.htm">Rela.</option>\r\n<option value="/yearly/chart/?view=releasedate&view2=domestic&yr=2014&sort=gross&order=DESC&studio=reliancebigpictures.htm">Relbig.</option>\r\n<option value="/yearly/chart/?view=releasedate&view2=domestic&yr=2014&sort=gross&order=DESC&studio=rialto.htm">Rialto</option>\r\n<option value="/yearly/chart/?view=releasedate&view2=domestic&yr=2014&sort=gross&order=DESC&studio=riotstudios.htm">Riot</option>\r\n<option value="/yearly/chart/?view=releasedate&view2=domestic&yr=2014&sort=gross&order=DESC&studio=rockymountainpictures.htm">RM</option>\r\n<option value="/yearly/chart/?view=releasedate&view2=domestic&yr=2014&sort=gross&order=DESC&studio=richmondmedia.htm">RME</option>\r\n<option value="/yearly/chart/?view=releasedate&view2=domestic&yr=2014&sort=gross&order=DESC&studio=radiustwc.htm">RTWC</option>\r\n<option value="/yearly/chart/?view=releasedate&view2=domestic&yr=2014&sort=gross&order=DESC&studio=revolverentertainment.htm">Rvl</option>\r\n<option value="/yearly/chart/?view=releasedate&view2=domestic&yr=2014&sort=gross&order=DESC&studio=seatzyima.htm">S/IMA</option>\r\n<option value="/yearly/chart/?view=releasedate&view2=domestic&yr=2014&sort=gross&order=DESC&studio=saboteur.htm">Sab.</option>\r\n<option value="/yearly/chart/?view=releasedate&view2=domestic&yr=2014&sort=gross&order=DESC&studio=sabanfilms.htm">Saban</option>\r\n<option value="/yearly/chart/?view=releasedate&view2=domestic&yr=2014&sort=gross&order=DESC&studio=salient.htm">Sal.</option>\r\n<option value="/yearly/chart/?view=releasedate&view2=domestic&yr=2014&sort=gross&order=DESC&studio=screenmedia.htm">Scre.</option>\r\n<option value="/yearly/chart/?view=releasedate&view2=domestic&yr=2014&sort=gross&order=DESC&studio=submarinedeluxe.htm">SD</option>\r\n<option value="/yearly/chart/?view=releasedate&view2=domestic&yr=2014&sort=gross&order=DESC&studio=striped.htm">SE</option>\r\n<option value="/yearly/chart/?view=releasedate&view2=domestic&yr=2014&sort=gross&order=DESC&studio=seatzy.htm">SEA</option>\r\n<option value="/yearly/chart/?view=releasedate&view2=domestic&yr=2014&sort=gross&order=DESC&studio=shootfirst.htm">SFI</option>\r\n<option value="/yearly/chart/?view=releasedate&view2=domestic&yr=2014&sort=gross&order=DESC&studio=screengems.htm">SGem</option>\r\n<option value="/yearly/chart/?view=releasedate&view2=domestic&yr=2014&sort=gross&order=DESC&studio=shoutfactory.htm">Shout!</option>\r\n<option value="/yearly/chart/?view=releasedate&view2=domestic&yr=2014&sort=gross&order=DESC&studio=shortsinternational.htm">Shrts.</option>\r\n<option value="/yearly/chart/?view=releasedate&view2=domestic&yr=2014&sort=gross&order=DESC&studio=starzmedia.htm">SM</option>\r\n<option value="/yearly/chart/?view=releasedate&view2=domestic&yr=2014&sort=gross&order=DESC&studio=sony.htm">Sony</option>\r\n<option value="/yearly/chart/?view=releasedate&view2=domestic&yr=2014&sort=gross&order=DESC&studio=spacey.htm">Spa.</option>\r\n<option value="/yearly/chart/?view=releasedate&view2=domestic&yr=2014&sort=gross&order=DESC&studio=sonyclassics.htm">SPC</option>\r\n<option value="/yearly/chart/?view=releasedate&view2=domestic&yr=2014&sort=gross&order=DESC&studio=scarletsky.htm">SSP</option>\r\n<option value="/yearly/chart/?view=releasedate&view2=domestic&yr=2014&sort=gross&order=DESC&studio=sideshow.htm">SSR</option>\r\n<option value="/yearly/chart/?view=releasedate&view2=domestic&yr=2014&sort=gross&order=DESC&studio=strand.htm">Strand</option>\r\n<option value="/yearly/chart/?view=releasedate&view2=domestic&yr=2014&sort=gross&order=DESC&studio=screenvision.htm">SV</option>\r\n<option value="/yearly/chart/?view=releasedate&view2=domestic&yr=2014&sort=gross&order=DESC&studio=filmarcade.htm">TFA</option>\r\n<option value="/yearly/chart/?view=releasedate&view2=domestic&yr=2014&sort=gross&order=DESC&studio=filmcollaborative.htm">TFC</option>\r\n<option value="/yearly/chart/?view=releasedate&view2=domestic&yr=2014&sort=gross&order=DESC&studio=torg.htm">TORG</option>\r\n<option value="/yearly/chart/?view=releasedate&view2=domestic&yr=2014&sort=gross&order=DESC&studio=tribecafilm.htm">Trib.</option>\r\n<option value="/yearly/chart/?view=releasedate&view2=domestic&yr=2014&sort=gross&order=DESC&studio=tristar.htm">TriS</option>\r\n<option value="/yearly/chart/?view=releasedate&view2=domestic&yr=2014&sort=gross&order=DESC&studio=triumph.htm">Triu</option>\r\n<option value="/yearly/chart/?view=releasedate&view2=domestic&yr=2014&sort=gross&order=DESC&studio=touchthewall.htm">TTW</option>\r\n<option value="/yearly/chart/?view=releasedate&view2=domestic&yr=2014&sort=gross&order=DESC&studio=vladarcompany.htm">TVC</option>\r\n<option value="/yearly/chart/?view=releasedate&view2=domestic&yr=2014&sort=gross&order=DESC&studio=universal.htm">Uni.</option>\r\n<option value="/yearly/chart/?view=releasedate&view2=domestic&yr=2014&sort=gross&order=DESC&studio=milkyway.htm">UTMW</option>\r\n<option value="/yearly/chart/?view=releasedate&view2=domestic&yr=2014&sort=gross&order=DESC&studio=utv.htm">UTV</option>\r\n<option value="/yearly/chart/?view=releasedate&view2=domestic&yr=2014&sort=gross&order=DESC&studio=variancefilms.htm">Vari.</option>\r\n<option value="/yearly/chart/?view=releasedate&view2=domestic&yr=2014&sort=gross&order=DESC&studio=vertical.htm">VE</option>\r\n<option value="/yearly/chart/?view=releasedate&view2=domestic&yr=2014&sort=gross&order=DESC&studio=velvet.htm">Velv.</option>\r\n<option value="/yearly/chart/?view=releasedate&view2=domestic&yr=2014&sort=gross&order=DESC&studio=vitagraph.htm">Vita.</option>\r\n<option value="/yearly/chart/?view=releasedate&view2=domestic&yr=2014&sort=gross&order=DESC&studio=vivapictures.htm">VPD</option>\r\n<option value="/yearly/chart/?view=releasedate&view2=domestic&yr=2014&sort=gross&order=DESC&studio=wdimension.htm">W/Dim.</option>\r\n<option value="/yearly/chart/?view=releasedate&view2=domestic&yr=2014&sort=gross&order=DESC&studio=warnerbros.htm">WB</option>\r\n<option value="/yearly/chart/?view=releasedate&view2=domestic&yr=2014&sort=gross&order=DESC&studio=wb-newline.htm">WB (NL)</option>\r\n<option value="/yearly/chart/?view=releasedate&view2=domestic&yr=2014&sort=gross&order=DESC&studio=weinsteincompany.htm">Wein.</option>\r\n<option value="/yearly/chart/?view=releasedate&view2=domestic&yr=2014&sort=gross&order=DESC&studio=wordfilms.htm">WF</option>\r\n<option value="/yearly/chart/?view=releasedate&view2=domestic&yr=2014&sort=gross&order=DESC&studio=wellgo.htm">WGUSA</option>\r\n<option value="/yearly/chart/?view=releasedate&view2=domestic&yr=2014&sort=gross&order=DESC&studio=walkingonwater.htm">WOWF</option>\r\n<option value="/yearly/chart/?view=releasedate&view2=domestic&yr=2014&sort=gross&order=DESC&studio=xlratormedia.htm">XL</option>\r\n<option value="/yearly/chart/?view=releasedate&view2=domestic&yr=2014&sort=gross&order=DESC&studio=yashraj.htm">Yash</option>\r\n<option value="/yearly/chart/?view=releasedate&view2=domestic&yr=2014&sort=gross&order=DESC&studio=zeitgeist.htm">Zeit.</option>\r\n<option value="/yearly/chart/?view=releasedate&view2=domestic&yr=2014&sort=gross&order=DESC&studio=zipporahfilms.htm">Zipp.</option>\r\n<option value="/yearly/chart/?view=releasedate&view2=domestic&yr=2014&sort=gross&order=DESC&p=.htm">ALL</option>\r\n</select></td></tr></form></table><a></a></font></td><td align="center" colspan="2"><font size="2"><a href="/yearly/chart/?view=releasedate&view2=domestic&yr=2014&sort=gross&order=ASC&p=.htm"><b>Total Gross</b></a> / </font><font size="2"><a href="/yearly/chart/?view=releasedate&view2=domestic&yr=2014&sort=theaters&order=DESC&p=.htm">Theaters</a></font></td><td align="center" colspan="2"><font size="2"><a href="/yearly/chart/?view=releasedate&view2=domestic&yr=2014&sort=opengross&order=DESC&p=.htm">Opening</a> / </font><font size="2"><a href="/yearly/chart/?view=releasedate&view2=domestic&yr=2014&sort=opentheaters&order=DESC&p=.htm">Theaters</a></font></td><td align="center"><font size="2"><a href="/yearly/chart/?view=releasedate&view2=domestic&yr=2014&sort=open&order=DESC&p=.htm">Open</a></font></td><td align="center"><font size="2"><a href="/yearly/chart/?view=releasedate&view2=domestic&yr=2014&sort=close&order=DESC&p=.htm">Close</a></font></td></tr><tr bgcolor="#ffffff"><td align="center"><font size="2">101</font></td><td><b><font size="2"><a href="/movies/?id=topfive.htm">Top Five</a></font></b></td><td><font size="2"><a href="/studio/chart/?studio=paramount.htm">Par.</a></font></td><td align="right"><font size="2"><b>$25,317,291</b></font></td><td align="right"><font size="2">1,426</font></td><td align="right"><font size="2">$6,896,593</font></td><td align="right"><font size="2">979</font></td><td align="right"><font size="2"><a href="/schedule/?view=bydate&release=theatrical&date=2014-12-12&p=.htm">12/12</a></font></td><td align="right"><font size="2">2/5</font></td></tr><tr bgcolor="#f4f4ff"><td align="center"><font size="2">102</font></td><td><b><font size="2"><a href="/movies/?id=novemberman.htm">The November Man</a></font></b></td><td><font size="2"><a href="/studio/chart/?studio=relativity.htm">Rela.</a></font></td><td align="right"><font size="2"><b>$25,018,119</b></font></td><td align="right"><font size="2">2,776</font></td><td align="right"><font size="2">$7,911,597</font></td><td align="right"><font size="2">2,776</font></td><td align="right"><font size="2"><a href="/schedule/?view=bydate&release=theatrical&date=2014-08-27&p=.htm">8/27</a></font></td><td align="right"><font size="2">10/30</font></td></tr><tr bgcolor="#ffffff"><td align="center"><font size="2">103</font></td><td><b><font size="2"><a href="/movies/?id=endlesslove14.htm">Endless Love (2014)</a></font></b></td><td><font size="2"><a href="/studio/chart/?studio=universal.htm">Uni.</a></font></td><td align="right"><font size="2"><b>$23,438,250</b></font></td><td align="right"><font size="2">2,896</font></td><td align="right"><font size="2">$13,307,125</font></td><td align="right"><font size="2">2,896</font></td><td align="right"><font size="2"><a href="/schedule/?view=bydate&release=theatrical&date=2014-02-14&p=.htm">2/14</a></font></td><td align="right"><font size="2">3/20</font></td></tr><tr bgcolor="#f4f4ff"><td align="center"><font size="2">104</font></td><td><b><font size="2"><a href="/movies/?id=pompeii.htm">Pompeii</a></font></b></td><td><font size="2"><a href="/studio/chart/?studio=tristar.htm">TriS</a></font></td><td align="right"><font size="2"><b>$23,219,748</b></font></td><td align="right"><font size="2">2,658</font></td><td align="right"><font size="2">$10,340,823</font></td><td align="right"><font size="2">2,658</font></td><td align="right"><font size="2"><a href="/schedule/?view=bydate&release=theatrical&date=2014-02-21&p=.htm">2/21</a></font></td><td align="right"><font size="2">4/20</font></td></tr><tr bgcolor="#ffffff"><td align="center"><font size="2">105</font></td><td><b><font size="2"><a href="/movies/?id=transcendence.htm">Transcendence</a></font></b></td><td><font size="2"><a href="/studio/chart/?studio=warnerbros.htm">WB</a></font></td><td align="right"><font size="2"><b>$23,022,309</b></font></td><td align="right"><font size="2">3,455</font></td><td align="right"><font size="2">$10,886,386</font></td><td align="right"><font size="2">3,455</font></td><td align="right"><font size="2"><a href="/schedule/?view=bydate&release=theatrical&date=2014-04-18&p=.htm">4/18</a></font></td><td align="right"><font size="2">6/19</font></td></tr><tr bgcolor="#f4f4ff"><td align="center"><font size="2">106</font></td><td><b><font size="2"><a href="/movies/?id=asabovesobelow.htm">As Above/So Below</a></font></b></td><td><font size="2"><a href="/studio/chart/?studio=universal.htm">Uni.</a></font></td><td align="right"><font size="2"><b>$21,321,100</b></font></td><td align="right"><font size="2">2,650</font></td><td align="right"><font size="2">$8,632,820</font></td><td align="right"><font size="2">2,640</font></td><td align="right"><font size="2"><a href="/schedule/?view=bydate&release=theatrical&date=2014-08-29&p=.htm">8/29</a></font></td><td align="right"><font size="2">10/9</font></td></tr><tr bgcolor="#ffffff"><td align="center"><font size="2">107</font></td><td><b><font size="2"><a href="/movies/?id=brickmansions.htm">Brick Mansions</a></font></b></td><td><font size="2"><a href="/studio/chart/?studio=relativity.htm">Rela.</a></font></td><td align="right"><font size="2"><b>$20,396,829</b></font></td><td align="right"><font size="2">2,647</font></td><td align="right"><font size="2">$9,516,855</font></td><td align="right"><font size="2">2,647</font></td><td align="right"><font size="2"><a href="/schedule/?view=bydate&release=theatrical&date=2014-04-25&p=.htm">4/25</a></font></td><td align="right"><font size="2">7/3</font></td></tr><tr bgcolor="#f4f4ff"><td align="center"><font size="2">108</font></td><td><b><font size="2"><a href="/movies/?id=ifrankenstein.htm">I, Frankenstein</a></font></b></td><td><font size="2"><a href="/studio/chart/?studio=lionsgate.htm">LGF</a></font></td><td align="right"><font size="2"><b>$19,075,290</b></font></td><td align="right"><font size="2">2,753</font></td><td align="right"><font size="2">$8,610,441</font></td><td align="right"><font size="2">2,753</font></td><td align="right"><font size="2"><a href="/schedule/?view=bydate&release=theatrical&date=2014-01-24&p=.htm">1/24</a></font></td><td align="right"><font size="2">3/20</font></td></tr><tr bgcolor="#ffffff"><td align="center"><font size="2">109</font></td><td><b><font size="2"><a href="/movies/?id=herculesbegins.htm">The Legend of Hercules</a></font></b></td><td><font size="2"><a href="/studio/chart/?studio=lionsgatesummit.htm">LG/S</a></font></td><td align="right"><font size="2"><b>$18,848,538</b></font></td><td align="right"><font size="2">2,104</font></td><td align="right"><font size="2">$8,868,318</font></td><td align="right"><font size="2">2,104</font></td><td align="right"><font size="2"><a href="/schedule/?view=bydate&release=theatrical&date=2014-01-10&p=.htm">1/10</a></font></td><td align="right"><font size="2">3/13</font></td></tr><tr bgcolor="#f4f4ff"><td align="center"><font size="2">110</font></td><td><b><font size="2"><a href="/movies/?id=bears.htm">Bears</a></font></b></td><td><font size="2"><a href="/studio/chart/?studio=buenavista.htm">BV</a></font></td><td align="right"><font size="2"><b>$17,780,194</b></font></td><td align="right"><font size="2">1,790</font></td><td align="right"><font size="2">$4,776,267</font></td><td align="right"><font size="2">1,720</font></td><td align="right"><font size="2"><a href="/schedule/?view=bydate&release=theatrical&date=2014-04-18&p=.htm">4/18</a></font></td><td align="right"><font size="2">7/17</font></td></tr><tr bgcolor="#ffffff"><td align="center"><font size="2">111</font></td><td><b><font size="2"><a href="/movies/?id=addicted.htm">Addicted</a></font></b></td><td><font size="2"><a href="/studio/chart/?studio=lionsgate.htm">LGF</a></font></td><td align="right"><font size="2"><b>$17,390,770</b></font></td><td align="right"><font size="2">1,037</font></td><td align="right"><font size="2">$7,485,346</font></td><td align="right"><font size="2">846</font></td><td align="right"><font size="2"><a href="/schedule/?view=bydate&release=theatrical&date=2014-10-10&p=.htm">10/10</a></font></td><td align="right"><font size="2">12/4</font></td></tr><tr bgcolor="#f4f4ff"><td align="center"><font size="2">112</font></td><td><b><font size="2"><a href="/movies/?id=hauntedhouse2.htm">A Haunted House 2</a></font></b></td><td><font size="2"><a href="/studio/chart/?studio=openroads.htm">ORF</a></font></td><td align="right"><font size="2"><b>$17,329,486</b></font></td><td align="right"><font size="2">2,310</font></td><td align="right"><font size="2">$8,843,875</font></td><td align="right"><font size="2">2,310</font></td><td align="right"><font size="2"><a href="/schedule/?view=bydate&release=theatrical&date=2014-04-18&p=.htm">4/18</a></font></td><td align="right"><font size="2">6/12</font></td></tr><tr bgcolor="#ffffff"><td align="center"><font size="2">113</font></td><td><b><font size="2"><a href="/movies/?id=amostwantedman.htm">A Most Wanted Man</a></font></b></td><td><font size="2"><a href="/studio/chart/?studio=roadsideattractions.htm">RAtt.</a></font></td><td align="right"><font size="2"><b>$17,237,855</b></font></td><td align="right"><font size="2">801</font></td><td align="right"><font size="2">$2,687,227</font></td><td align="right"><font size="2">361</font></td><td align="right"><font size="2"><a href="/schedule/?view=bydate&release=theatrical&date=2014-07-25&p=.htm">7/25</a></font></td><td align="right"><font size="2">11/13</font></td></tr><tr bgcolor="#f4f4ff"><td align="center"><font size="2">114</font></td><td><b><font size="2"><a href="/movies/?id=canasong.htm">Begin Again</a></font></b></td><td><font size="2"><a href="/studio/chart/?studio=weinsteincompany.htm">Wein.</a></font></td><td align="right"><font size="2"><b>$16,170,632</b></font></td><td align="right"><font size="2">1,302</font></td><td align="right"><font size="2">$134,064</font></td><td align="right"><font size="2">5</font></td><td align="right"><font size="2"><a href="/schedule/?view=bydate&release=theatrical&date=2014-06-27&p=.htm">6/27</a></font></td><td align="right"><font size="2">10/16</font></td></tr><tr bgcolor="#ffffff"><td align="center"><font size="2">115</font></td><td><b><font size="2"><a href="/movies/?id=singlemomsclub.htm">Tyler Perry\'s The Single Moms Club</a></font></b></td><td><font size="2"><a href="/studio/chart/?studio=lionsgate.htm">LGF</a></font></td><td align="right"><font size="2"><b>$15,973,881</b></font></td><td align="right"><font size="2">1,896</font></td><td align="right"><font size="2">$8,075,111</font></td><td align="right"><font size="2">1,896</font></td><td align="right"><font size="2"><a href="/schedule/?view=bydate&release=theatrical&date=2014-03-14&p=.htm">3/14</a></font></td><td align="right"><font size="2">5/1</font></td></tr><tr bgcolor="#f4f4ff"><td align="center"><font size="2">116</font></td><td><b><font size="2"><a href="/movies/?id=devilsdue.htm">Devil\'s Due</a></font></b></td><td><font size="2"><a href="/studio/chart/?studio=fox.htm">Fox</a></font></td><td align="right"><font size="2"><b>$15,821,461</b></font></td><td align="right"><font size="2">2,544</font></td><td align="right"><font size="2">$8,308,220</font></td><td align="right"><font size="2">2,544</font></td><td align="right"><font size="2"><a href="/schedule/?view=bydate&release=theatrical&date=2014-01-17&p=.htm">1/17</a></font></td><td align="right"><font size="2">3/20</font></td></tr><tr bgcolor="#ffffff"><td align="center"><font size="2">117</font></td><td><b><font size="2"><a href="/movies/?id=andsoitgoes.htm">And So It Goes</a></font></b></td><td><font size="2"><a href="/studio/chart/?studio=clarius.htm">CE</a></font></td><td align="right"><font size="2"><b>$15,160,801</b></font></td><td align="right"><font size="2">1,816</font></td><td align="right"><font size="2">$4,642,329</font></td><td align="right"><font size="2">1,762</font></td><td align="right"><font size="2"><a href="/schedule/?view=bydate&release=theatrical&date=2014-07-25&p=.htm">7/25</a></font></td><td align="right"><font size="2">10/2</font></td></tr><tr bgcolor="#f4f4ff"><td align="center"><font size="2">118</font></td><td><b><font size="2"><a href="/movies/?id=stepup5.htm">Step Up All In</a></font></b></td><td><font size="2"><a href="/studio/chart/?studio=lionsgatesummit.htm">LG/S</a></font></td><td align="right"><font size="2"><b>$14,904,384</b></font></td><td align="right"><font size="2">2,072</font></td><td align="right"><font size="2">$6,469,857</font></td><td align="right"><font size="2">2,072</font></td><td align="right"><font size="2"><a href="/schedule/?view=bydate&release=theatrical&date=2014-08-08&p=.htm">8/8</a></font></td><td align="right"><font size="2">10/2</font></td></tr><tr bgcolor="#ffffff"><td align="center"><font size="2">119</font></td><td><b><font size="2"><a href="/movies/?id=blackbird.htm">Beyond the Lights</a></font></b></td><td><font size="2"><a href="/studio/chart/?studio=relativity.htm">Rela.</a></font></td><td align="right"><font size="2"><b>$14,618,727</b></font></td><td align="right"><font size="2">1,789</font></td><td align="right"><font size="2">$6,200,284</font></td><td align="right"><font size="2">1,789</font></td><td align="right"><font size="2"><a href="/schedule/?view=bydate&release=theatrical&date=2014-11-14&p=.htm">11/14</a></font></td><td align="right"><font size="2">2/5</font></td></tr><tr bgcolor="#f4f4ff"><td align="center"><font size="2">120</font></td><td><b><font size="2"><a href="/movies/?id=bigeyes.htm">Big Eyes</a></font></b></td><td><font size="2"><a href="/studio/chart/?studio=weinsteincompany.htm">Wein.</a></font></td><td align="right"><font size="2"><b>$14,482,031</b></font></td><td align="right"><font size="2">1,408</font></td><td align="right"><font size="2">$3,001,738</font></td><td align="right"><font size="2">1,307</font></td><td align="right"><font size="2"><a href="/schedule/?view=bydate&release=theatrical&date=2014-12-25&p=.htm">12/25</a></font></td><td align="right"><font size="2">3/26</font></td></tr><tr bgcolor="#ffffff"><td align="center"><font size="2">121</font></td><td><b><font size="2"><a href="/movies/?id=america2014.htm">America (2014)</a></font></b></td><td><font size="2"><a href="/studio/chart/?studio=lionsgate.htm">LGF</a></font></td><td align="right"><font size="2"><b>$14,444,502</b></font></td><td align="right"><font size="2">1,105</font></td><td align="right"><font size="2">$38,608</font></td><td align="right"><font size="2">3</font></td><td align="right"><font size="2"><a href="/schedule/?view=bydate&release=theatrical&date=2014-06-27&p=.htm">6/27</a></font></td><td align="right"><font size="2">9/4</font></td></tr><tr bgcolor="#f4f4ff"><td align="center"><font size="2">122</font></td><td><b><font size="2"><a href="/movies/?id=leftbehind2014.htm">Left Behind (2014)</a></font></b></td><td><font size="2"><a href="/studio/chart/?studio=freestyle.htm">Free</a></font></td><td align="right"><font size="2"><b>$14,019,924</b></font></td><td align="right"><font size="2">1,887</font></td><td align="right"><font size="2">$6,300,147</font></td><td align="right"><font size="2">1,825</font></td><td align="right"><font size="2"><a href="/schedule/?view=bydate&release=theatrical&date=2014-10-03&p=.htm">10/3</a></font></td><td align="right"><font size="2">12/11</font></td></tr><tr bgcolor="#ffffff"><td align="center"><font size="2">123</font></td><td><b><font size="2"><a href="/movies/?id=sincity2.htm">Frank Miller\'s Sin City: A Dame to Kill For</a></font></b></td><td><font size="2"><a href="/studio/chart/?studio=wdimension.htm">W/Dim.</a></font></td><td align="right"><font size="2"><b>$13,757,804</b></font></td><td align="right"><font size="2">2,894</font></td><td align="right"><font size="2">$6,317,683</font></td><td align="right"><font size="2">2,894</font></td><td align="right"><font size="2"><a href="/schedule/?view=bydate&release=theatrical&date=2014-08-22&p=.htm">8/22</a></font></td><td align="right"><font size="2">10/9</font></td></tr><tr bgcolor="#f4f4ff"><td align="center"><font size="2">124</font></td><td><b><font size="2"><a href="/movies/?id=laborday.htm">Labor Day</a></font></b></td><td><font size="2"><a href="/studio/chart/?studio=paramount.htm">Par.</a></font></td><td align="right"><font size="2"><b>$13,371,528</b></font></td><td align="right"><font size="2">2,584</font></td><td align="right"><font size="2">$5,175,282</font></td><td align="right"><font size="2">2,584</font></td><td align="right"><font size="2"><a href="/schedule/?view=bydate&release=theatrical&date=2014-01-31&p=.htm">1/31</a></font></td><td align="right"><font size="2">3/20</font></td></tr><tr bgcolor="#ffffff"><td align="center"><font size="2">125</font></td><td><b><font size="2"><a href="/movies/?id=whiplash.htm">Whiplash</a></font></b></td><td><font size="2"><a href="/studio/chart/?studio=sonyclassics.htm">SPC</a></font></td><td align="right"><font size="2"><b>$13,092,000</b></font></td><td align="right"><font size="2">567</font></td><td align="right"><font size="2">$135,388</font></td><td align="right"><font size="2">6</font></td><td align="right"><font size="2"><a href="/schedule/?view=bydate&release=theatrical&date=2014-10-10&p=.htm">10/10</a></font></td><td align="right"><font size="2">4/12</font></td></tr><tr bgcolor="#f4f4ff"><td align="center"><font size="2">126</font></td><td><b><font size="2"><a href="/movies/?id=winterstale.htm">Winter\'s Tale</a></font></b></td><td><font size="2"><a href="/studio/chart/?studio=warnerbros.htm">WB</a></font></td><td align="right"><font size="2"><b>$12,600,231</b></font></td><td align="right"><font size="2">2,965</font></td><td align="right"><font size="2">$7,297,694</font></td><td align="right"><font size="2">2,965</font></td><td align="right"><font size="2"><a href="/schedule/?view=bydate&release=theatrical&date=2014-02-14&p=.htm">2/14</a></font></td><td align="right"><font size="2">4/3</font></td></tr><tr bgcolor="#ffffff"><td align="center"><font size="2">127</font></td><td><b><font size="2"><a href="/movies/?id=foxcatcher.htm">Foxcatcher</a></font></b></td><td><font size="2"><a href="/studio/chart/?studio=sonyclassics.htm">SPC</a></font></td><td align="right"><font size="2"><b>$12,096,300</b></font></td><td align="right"><font size="2">759</font></td><td align="right"><font size="2">$270,877</font></td><td align="right"><font size="2">6</font></td><td align="right"><font size="2"><a href="/schedule/?view=bydate&release=theatrical&date=2014-11-14&p=.htm">11/14</a></font></td><td align="right"><font size="2">3/8</font></td></tr><tr bgcolor="#f4f4ff"><td align="center"><font size="2">128</font></td><td><b><font size="2"><a href="/movies/?id=belle.htm">Belle</a></font></b></td><td><font size="2"><a href="/studio/chart/?studio=foxsearchlight.htm">FoxS</a></font></td><td align="right"><font size="2"><b>$10,726,630</b></font></td><td align="right"><font size="2">525</font></td><td align="right"><font size="2">$106,578</font></td><td align="right"><font size="2">4</font></td><td align="right"><font size="2"><a href="/schedule/?view=bydate&release=theatrical&date=2014-05-02&p=.htm">5/2</a></font></td><td align="right"><font size="2">8/28</font></td></tr><tr bgcolor="#ffffff"><td align="center"><font size="2">129</font></td><td><b><font size="2"><a href="/movies/?id=drop.htm">The Drop</a></font></b></td><td><font size="2"><a href="/studio/chart/?studio=foxsearchlight.htm">FoxS</a></font></td><td align="right"><font size="2"><b>$10,724,389</b></font></td><td align="right"><font size="2">1,192</font></td><td align="right"><font size="2">$4,104,552</font></td><td align="right"><font size="2">809</font></td><td align="right"><font size="2"><a href="/schedule/?view=bydate&release=theatrical&date=2014-09-12&p=.htm">9/12</a></font></td><td align="right"><font size="2">11/13</font></td></tr><tr bgcolor="#f4f4ff"><td align="center"><font size="2">130</font></td><td><b><font size="2"><a href="/movies/?id=pk.htm">P.K.</a></font></b></td><td><font size="2"><a href="/studio/chart/?studio=utv.htm">UTV</a></font></td><td align="right"><font size="2"><b>$10,616,104</b></font></td><td align="right"><font size="2">272</font></td><td align="right"><font size="2">$3,565,258</font></td><td align="right"><font size="2">272</font></td><td align="right"><font size="2"><a href="/schedule/?view=bydate&release=theatrical&date=2014-12-19&p=.htm">12/19</a></font></td><td align="right"><font size="2">2/12</font></td></tr><tr bgcolor="#ffffff"><td align="center"><font size="2">131</font></td><td><b><font size="2"><a href="/movies/?id=magicinthemoonlight.htm">Magic in the Moonlight</a></font></b></td><td><font size="2"><a href="/studio/chart/?studio=sonyclassics.htm">SPC</a></font></td><td align="right"><font size="2"><b>$10,539,326</b></font></td><td align="right"><font size="2">964</font></td><td align="right"><font size="2">$412,095</font></td><td align="right"><font size="2">17</font></td><td align="right"><font size="2"><a href="/schedule/?view=bydate&release=theatrical&date=2014-07-25&p=.htm">7/25</a></font></td><td align="right"><font size="2">11/20</font></td></tr><tr bgcolor="#f4f4ff"><td align="center"><font size="2">132</font></td><td><b><font size="2"><a href="/movies/?id=ten2014.htm">Sabotage (2014)</a></font></b></td><td><font size="2"><a href="/studio/chart/?studio=openroads.htm">ORF</a></font></td><td align="right"><font size="2"><b>$10,508,518</b></font></td><td align="right"><font size="2">2,486</font></td><td align="right"><font size="2">$5,272,444</font></td><td align="right"><font size="2">2,486</font></td><td align="right"><font size="2"><a href="/schedule/?view=bydate&release=theatrical&date=2014-03-28&p=.htm">3/28</a></font></td><td align="right"><font size="2">5/15</font></td></tr><tr bgcolor="#ffffff"><td align="center"><font size="2">133</font></td><td><b><font size="2"><a href="/movies/?id=momsnightout.htm">Moms\' Night Out</a></font></b></td><td><font size="2"><a href="/studio/chart/?studio=tristar.htm">TriS</a></font></td><td align="right"><font size="2"><b>$10,429,707</b></font></td><td align="right"><font size="2">1,046</font></td><td align="right"><font size="2">$4,311,083</font></td><td align="right"><font size="2">1,044</font></td><td align="right"><font size="2"><a href="/schedule/?view=bydate&release=theatrical&date=2014-05-09&p=.htm">5/9</a></font></td><td align="right"><font size="2">7/13</font></td></tr><tr bgcolor="#f4f4ff"><td align="center"><font size="2">134</font></td><td><b><font size="2"><a href="/movies/?id=islandoflemurs.htm">Island of Lemurs: Madagascar (IMAX)</a></font></b></td><td><font size="2"><a href="/studio/chart/?studio=warnerbros.htm">WB</a></font></td><td align="right"><font size="2"><b>$10,357,243</b></font></td><td align="right"><font size="2">302</font></td><td align="right"><font size="2">$188,307</font></td><td align="right"><font size="2">37</font></td><td align="right"><font size="2"><a href="/schedule/?view=bydate&release=theatrical&date=2014-04-04&p=.htm">4/4</a></font></td><td align="right"><font size="2">-</font></td></tr><tr bgcolor="#ffffff"><td align="center"><font size="2">135</font></td><td><b><font size="2"><a href="/movies/?id=quietones.htm">The Quiet Ones</a></font></b></td><td><font size="2"><a href="/studio/chart/?studio=lionsgate.htm">LGF</a></font></td><td align="right"><font size="2"><b>$8,509,867</b></font></td><td align="right"><font size="2">2,027</font></td><td align="right"><font size="2">$3,880,053</font></td><td align="right"><font size="2">2,027</font></td><td align="right"><font size="2"><a href="/schedule/?view=bydate&release=theatrical&date=2014-04-25&p=.htm">4/25</a></font></td><td align="right"><font size="2">6/5</font></td></tr><tr bgcolor="#f4f4ff"><td align="center"><font size="2">136</font></td><td><b><font size="2"><a href="/movies/?id=legendsofoz.htm">Legends of Oz: Dorothy\'s Return</a></font></b></td><td><font size="2"><a href="/studio/chart/?studio=clarius.htm">CE</a></font></td><td align="right"><font size="2"><b>$8,462,027</b></font></td><td align="right"><font size="2">2,658</font></td><td align="right"><font size="2">$3,747,780</font></td><td align="right"><font size="2">2,658</font></td><td align="right"><font size="2"><a href="/schedule/?view=bydate&release=theatrical&date=2014-05-09&p=.htm">5/9</a></font></td><td align="right"><font size="2">7/31</font></td></tr><tr bgcolor="#ffffff"><td align="center"><font size="2">137</font></td><td><b><font size="2"><a href="/movies/?id=inherentvice.htm">Inherent Vice</a></font></b></td><td><font size="2"><a href="/studio/chart/?studio=warnerbros.htm">WB</a></font></td><td align="right"><font size="2"><b>$8,110,975</b></font></td><td align="right"><font size="2">653</font></td><td align="right"><font size="2">$328,184</font></td><td align="right"><font size="2">5</font></td><td align="right"><font size="2"><a href="/schedule/?view=bydate&release=theatrical&date=2014-12-12&p=.htm">12/12</a></font></td><td align="right"><font size="2">2/26</font></td></tr><tr bgcolor="#f4f4ff"><td align="center"><font size="2">138</font></td><td><b><font size="2"><a href="/movies/?id=vampireacademy.htm">Vampire Academy</a></font></b></td><td><font size="2"><a href="/studio/chart/?studio=weinsteincompany.htm">Wein.</a></font></td><td align="right"><font size="2"><b>$7,791,979</b></font></td><td align="right"><font size="2">2,676</font></td><td align="right"><font size="2">$3,921,742</font></td><td align="right"><font size="2">2,676</font></td><td align="right"><font size="2"><a href="/schedule/?view=bydate&release=theatrical&date=2014-02-07&p=.htm">2/7</a></font></td><td align="right"><font size="2">4/10</font></td></tr><tr bgcolor="#ffffff"><td align="center"><font size="2">139</font></td><td><b><font size="2"><a href="/movies/?id=badwords.htm">Bad Words</a></font></b></td><td><font size="2"><a href="/studio/chart/?studio=focus.htm">Focus</a></font></td><td align="right"><font size="2"><b>$7,779,614</b></font></td><td align="right"><font size="2">1,074</font></td><td align="right"><font size="2">$113,301</font></td><td align="right"><font size="2">6</font></td><td align="right"><font size="2"><a href="/schedule/?view=bydate&release=theatrical&date=2014-03-14&p=.htm">3/14</a></font></td><td align="right"><font size="2">5/29</font></td></tr><tr bgcolor="#f4f4ff"><td align="center"><font size="2">140</font></td><td><b><font size="2"><a href="/movies/?id=cantinflas.htm">Cantinflas</a></font></b></td><td><font size="2"><a href="/studio/chart/?studio=lionsgate.htm">LGF</a></font></td><td align="right"><font size="2"><b>$6,382,924</b></font></td><td align="right"><font size="2">429</font></td><td align="right"><font size="2">$2,661,253</font></td><td align="right"><font size="2">382</font></td><td align="right"><font size="2"><a href="/schedule/?view=bydate&release=theatrical&date=2014-08-29&p=.htm">8/29</a></font></td><td align="right"><font size="2">10/16</font></td></tr><tr bgcolor="#ffffff"><td align="center"><font size="2">141</font></td><td><b><font size="2"><a href="/movies/?id=interview2014.htm">The Interview (2014)</a></font></b></td><td><font size="2"><a href="/studio/chart/?studio=sony.htm">Sony</a></font></td><td align="right"><font size="2"><b>$6,105,175</b></font></td><td align="right"><font size="2">581</font></td><td align="right"><font size="2">$1,794,666</font></td><td align="right"><font size="2">331</font></td><td align="right"><font size="2"><a href="/schedule/?view=bydate&release=theatrical&date=2014-12-25&p=.htm">12/25</a></font></td><td align="right"><font size="2">1/25</font></td></tr><tr bgcolor="#f4f4ff"><td align="center"><font size="2">142</font></td><td><b><font size="2"><a href="/movies/?id=meetthemormons.htm">Meet the Mormons</a></font></b></td><td><font size="2"><a href="/studio/chart/?studio=purdie.htm">Purd.</a></font></td><td align="right"><font size="2"><b>$6,047,363</b></font></td><td align="right"><font size="2">333</font></td><td align="right"><font size="2">$2,509,808</font></td><td align="right"><font size="2">317</font></td><td align="right"><font size="2"><a href="/schedule/?view=bydate&release=theatrical&date=2014-10-10&p=.htm">10/10</a></font></td><td align="right"><font size="2">2/12</font></td></tr><tr bgcolor="#ffffff"><td align="center"><font size="2">143</font></td><td><b><font size="2"><a href="/movies/?id=amostviolentyear.htm">A Most Violent Year</a></font></b></td><td><font size="2"><a href="/studio/chart/?studio=a24.htm">A24</a></font></td><td align="right"><font size="2"><b>$5,749,134</b></font></td><td align="right"><font size="2">818</font></td><td align="right"><font size="2">$172,788</font></td><td align="right"><font size="2">4</font></td><td align="right"><font size="2"><a href="/schedule/?view=bydate&release=theatrical&date=2014-12-31&p=.htm">12/31</a></font></td><td align="right"><font size="2">-</font></td></tr><tr bgcolor="#f4f4ff"><td align="center"><font size="2">144</font></td><td><b><font size="2"><a href="/movies/?id=cesarchavez.htm">Cesar Chavez</a></font></b></td><td><font size="2"><a href="/studio/chart/?studio=lionsgate.htm">LGF</a></font></td><td align="right"><font size="2"><b>$5,571,497</b></font></td><td align="right"><font size="2">664</font></td><td align="right"><font size="2">$2,861,528</font></td><td align="right"><font size="2">664</font></td><td align="right"><font size="2"><a href="/schedule/?view=bydate&release=theatrical&date=2014-03-28&p=.htm">3/28</a></font></td><td align="right"><font size="2">5/8</font></td></tr><tr bgcolor="#ffffff"><td align="center"><font size="2">145</font></td><td><b><font size="2"><a href="/movies/?id=skeletontwins.htm">The Skeleton Twins</a></font></b></td><td><font size="2"><a href="/studio/chart/?studio=roadsideattractions.htm">RAtt.</a></font></td><td align="right"><font size="2"><b>$5,284,309</b></font></td><td align="right"><font size="2">461</font></td><td align="right"><font size="2">$380,691</font></td><td align="right"><font size="2">15</font></td><td align="right"><font size="2"><a href="/schedule/?view=bydate&release=theatrical&date=2014-09-12&p=.htm">9/12</a></font></td><td align="right"><font size="2">12/25</font></td></tr><tr bgcolor="#f4f4ff"><td align="center"><font size="2">146</font></td><td><b><font size="2"><a href="/movies/?id=windrises.htm">The Wind Rises</a></font></b></td><td><font size="2"><a href="/studio/chart/?studio=buenavista.htm">BV</a></font></td><td align="right"><font size="2"><b>$5,209,580</b></font></td><td align="right"><font size="2">496</font></td><td align="right"><font size="2">$313,751</font></td><td align="right"><font size="2">21</font></td><td align="right"><font size="2"><a href="/schedule/?view=bydate&release=theatrical&date=2014-02-21&p=.htm">2/21</a></font></td><td align="right"><font size="2">5/22</font></td></tr><tr bgcolor="#ffffff"><td align="center"><font size="2">147</font></td><td><b><font size="2"><a href="/movies/?id=snowpiercer.htm">Snowpiercer</a></font></b></td><td><font size="2"><a href="/studio/chart/?studio=radiustwc.htm">RTWC</a></font></td><td align="right"><font size="2"><b>$4,563,650</b></font></td><td align="right"><font size="2">356</font></td><td align="right"><font size="2">$171,187</font></td><td align="right"><font size="2">8</font></td><td align="right"><font size="2"><a href="/schedule/?view=bydate&release=theatrical&date=2014-06-27&p=.htm">6/27</a></font></td><td align="right"><font size="2">10/23</font></td></tr><tr bgcolor="#f4f4ff"><td align="center"><font size="2">148</font></td><td><b><font size="2"><a href="/movies/?id=railwayman.htm">The Railway Man</a></font></b></td><td><font size="2"><a href="/studio/chart/?studio=weinsteincompany.htm">Wein.</a></font></td><td align="right"><font size="2"><b>$4,438,438</b></font></td><td align="right"><font size="2">600</font></td><td align="right"><font size="2">$61,845</font></td><td align="right"><font size="2">4</font></td><td align="right"><font size="2"><a href="/schedule/?view=bydate&release=theatrical&date=2014-04-11&p=.htm">4/11</a></font></td><td align="right"><font size="2">7/17</font></td></tr><tr bgcolor="#ffffff"><td align="center"><font size="2">149</font></td><td><b><font size="2"><a href="/movies/?id=dearwhitepeople.htm">Dear White People</a></font></b></td><td><font size="2"><a href="/studio/chart/?studio=roadsideattractions.htm">RAtt.</a></font></td><td align="right"><font size="2"><b>$4,404,154</b></font></td><td align="right"><font size="2">393</font></td><td align="right"><font size="2">$347,959</font></td><td align="right"><font size="2">11</font></td><td align="right"><font size="2"><a href="/schedule/?view=bydate&release=theatrical&date=2014-10-17&p=.htm">10/17</a></font></td><td align="right"><font size="2">1/25</font></td></tr><tr bgcolor="#f4f4ff"><td align="center"><font size="2">150</font></td><td><b><font size="2"><a href="/movies/?id=lunchbox.htm">The Lunchbox</a></font></b></td><td><font size="2"><a href="/studio/chart/?studio=sonyclassics.htm">SPC</a></font></td><td align="right"><font size="2"><b>$4,235,151</b></font></td><td align="right"><font size="2">165</font></td><td align="right"><font size="2">$44,542</font></td><td align="right"><font size="2">3</font></td><td align="right"><font size="2"><a href="/schedule/?view=bydate&release=theatrical&date=2014-02-28&p=.htm">2/28</a></font></td><td align="right"><font size="2">9/18</font></td></tr><tr bgcolor="#ffffff"><td align="center"><font size="2">151</font></td><td><b><font size="2"><a href="/movies/?id=myoldlady.htm">My Old Lady</a></font></b></td><td><font size="2"><a href="/studio/chart/?studio=cohenmedia.htm">Cohen</a></font></td><td align="right"><font size="2"><b>$4,013,786</b></font></td><td align="right"><font size="2">273</font></td><td align="right"><font size="2">$124,680</font></td><td align="right"><font size="2">11</font></td><td align="right"><font size="2"><a href="/schedule/?view=bydate&release=theatrical&date=2014-09-10&p=.htm">9/10</a></font></td><td align="right"><font size="2">1/15</font></td></tr><tr bgcolor="#f4f4ff"><td align="center"><font size="2">152</font></td><td><b><font size="2"><a href="/movies/?id=mrturner.htm">Mr. Turner</a></font></b></td><td><font size="2"><a href="/studio/chart/?studio=sonyclassics.htm">SPC</a></font></td><td align="right"><font size="2"><b>$3,958,500</b></font></td><td align="right"><font size="2">120</font></td><td align="right"><font size="2">$109,000</font></td><td align="right"><font size="2">5</font></td><td align="right"><font size="2"><a href="/schedule/?view=bydate&release=theatrical&date=2014-12-19&p=.htm">12/19</a></font></td><td align="right"><font size="2">-</font></td></tr><tr bgcolor="#ffffff"><td align="center"><font size="2">153</font></td><td><b><font size="2"><a href="/movies/?id=ida.htm">Ida</a></font></b></td><td><font size="2"><a href="/studio/chart/?studio=musicboxfilms.htm">MBox</a></font></td><td align="right"><font size="2"><b>$3,827,060</b></font></td><td align="right"><font size="2">137</font></td><td align="right"><font size="2">$55,438</font></td><td align="right"><font size="2">3</font></td><td align="right"><font size="2"><a href="/schedule/?view=bydate&release=theatrical&date=2014-05-02&p=.htm">5/2</a></font></td><td align="right"><font size="2">5/7</font></td></tr><tr bgcolor="#f4f4ff"><td align="center"><font size="2">154</font></td><td><b><font size="2"><a href="/movies/?id=fadinggigolo.htm">Fading Gigolo</a></font></b></td><td><font size="2"><a href="/studio/chart/?studio=millenniumentertainment.htm">MNE</a></font></td><td align="right"><font size="2"><b>$3,769,873</b></font></td><td align="right"><font size="2">356</font></td><td align="right"><font size="2">$180,801</font></td><td align="right"><font size="2">5</font></td><td align="right"><font size="2"><a href="/schedule/?view=bydate&release=theatrical&date=2014-04-18&p=.htm">4/18</a></font></td><td align="right"><font size="2">7/17</font></td></tr><tr bgcolor="#ffffff"><td align="center"><font size="2">155</font></td><td><b><font size="2"><a href="/movies/?id=calvary.htm">Calvary</a></font></b></td><td><font size="2"><a href="/studio/chart/?studio=foxsearchlight.htm">FoxS</a></font></td><td align="right"><font size="2"><b>$3,600,006</b></font></td><td align="right"><font size="2">322</font></td><td align="right"><font size="2">$74,149</font></td><td align="right"><font size="2">4</font></td><td align="right"><font size="2"><a href="/schedule/?view=bydate&release=theatrical&date=2014-08-01&p=.htm">8/1</a></font></td><td align="right"><font size="2">10/16</font></td></tr><tr bgcolor="#f4f4ff"><td align="center"><font size="2">156</font></td><td><b><font size="2"><a href="/movies/?id=wishiwashere.htm">Wish I Was Here</a></font></b></td><td><font size="2"><a href="/studio/chart/?studio=focus.htm">Focus</a></font></td><td align="right"><font size="2"><b>$3,591,299</b></font></td><td align="right"><font size="2">753</font></td><td align="right"><font size="2">$484,401</font></td><td align="right"><font size="2">68</font></td><td align="right"><font size="2"><a href="/schedule/?view=bydate&release=theatrical&date=2014-07-18&p=.htm">7/18</a></font></td><td align="right"><font size="2">9/11</font></td></tr><tr bgcolor="#ffffff"><td align="center"><font size="2">157</font></td><td><b><font size="2"><a href="/movies/?id=ghostbusters2014.htm">Ghostbusters (30th Anniversary re-release)</a></font></b></td><td><font size="2"><a href="/studio/chart/?studio=sony.htm">Sony</a></font></td><td align="right"><font size="2"><b>$3,580,343</b></font></td><td align="right"><font size="2">784</font></td><td align="right"><font size="2">$1,756,513</font></td><td align="right"><font size="2">784</font></td><td align="right"><font size="2"><a href="/schedule/?view=bydate&release=theatrical&date=2014-08-29&p=.htm">8/29</a></font></td><td align="right"><font size="2">9/18</font></td></tr><tr bgcolor="#f4f4ff"><td align="center"><font size="2">158</font></td><td><b><font size="2"><a href="/movies/?id=mommy.htm">Mommy</a></font></b></td><td><font size="2"><a href="/studio/chart/?studio=roadsideattractions.htm">RAtt.</a></font></td><td align="right"><font size="2"><b>$3,494,070</b></font></td><td align="right"><font size="2">83</font></td><td align="right"><font size="2">$473,882</font></td><td align="right"><font size="2">62</font></td><td align="right"><font size="2"><a href="/schedule/?view=bydate&release=theatrical&date=2014-09-19&p=.htm">9/19</a></font></td><td align="right"><font size="2">-</font></td></tr><tr bgcolor="#ffffff"><td align="center"><font size="2">159</font></td><td><b><font size="2"><a href="/movies/?id=whatif2014.htm">What If (2014)</a></font></b></td><td><font size="2"><a href="/studio/chart/?studio=cbsfilms.htm">CBS</a></font></td><td align="right"><font size="2"><b>$3,493,000</b></font></td><td align="right"><font size="2">787</font></td><td align="right"><font size="2">$133,898</font></td><td align="right"><font size="2">20</font></td><td align="right"><font size="2"><a href="/schedule/?view=bydate&release=theatrical&date=2014-08-08&p=.htm">8/8</a></font></td><td align="right"><font size="2">9/18</font></td></tr><tr bgcolor="#f4f4ff"><td align="center"><font size="2">160</font></td><td><b><font size="2"><a href="/movies/?id=grandseduction.htm">The Grand Seduction</a></font></b></td><td><font size="2"><a href="/studio/chart/?studio=entertainmentone.htm">EOne</a></font></td><td align="right"><font size="2"><b>$3,430,018</b></font></td><td align="right"><font size="2">124</font></td><td align="right"><font size="2">$323,743</font></td><td align="right"><font size="2">94</font></td><td align="right"><font size="2"><a href="/schedule/?view=bydate&release=theatrical&date=2014-05-30&p=.htm">5/30</a></font></td><td align="right"><font size="2">9/11</font></td></tr><tr bgcolor="#ffffff"><td align="center"><font size="2">161</font></td><td><b><font size="2"><a href="/movies/?id=veronicamars.htm">Veronica Mars</a></font></b></td><td><font size="2"><a href="/studio/chart/?studio=warnerbros.htm">WB</a></font></td><td align="right"><font size="2"><b>$3,322,127</b></font></td><td align="right"><font size="2">347</font></td><td align="right"><font size="2">$1,988,351</font></td><td align="right"><font size="2">291</font></td><td align="right"><font size="2"><a href="/schedule/?view=bydate&release=theatrical&date=2014-03-14&p=.htm">3/14</a></font></td><td align="right"><font size="2">4/24</font></td></tr><tr bgcolor="#f4f4ff"><td align="center"><font size="2">162</font></td><td><b><font size="2"><a href="/movies/?id=beforeigotosleep.htm">Before I Go To Sleep</a></font></b></td><td><font size="2"><a href="/studio/chart/?studio=clarius.htm">CE</a></font></td><td align="right"><font size="2"><b>$3,242,457</b></font></td><td align="right"><font size="2">1,902</font></td><td align="right"><font size="2">$1,843,347</font></td><td align="right"><font size="2">1,902</font></td><td align="right"><font size="2"><a href="/schedule/?view=bydate&release=theatrical&date=2014-10-31&p=.htm">10/31</a></font></td><td align="right"><font size="2">11/20</font></td></tr><tr bgcolor="#ffffff"><td align="center"><font size="2">163</font></td><td><b><font size="2"><a href="/movies/?id=rosewater.htm">Rosewater</a></font></b></td><td><font size="2"><a href="/studio/chart/?studio=openroads.htm">ORF</a></font></td><td align="right"><font size="2"><b>$3,128,941</b></font></td><td align="right"><font size="2">371</font></td><td align="right"><font size="2">$1,154,303</font></td><td align="right"><font size="2">371</font></td><td align="right"><font size="2"><a href="/schedule/?view=bydate&release=theatrical&date=2014-11-14&p=.htm">11/14</a></font></td><td align="right"><font size="2">1/1</font></td></tr><tr bgcolor="#f4f4ff"><td align="center"><font size="2">164</font></td><td><b><font size="2"><a href="/movies/?id=obviouschild.htm">Obvious Child</a></font></b></td><td><font size="2"><a href="/studio/chart/?studio=a24.htm">A24</a></font></td><td align="right"><font size="2"><b>$3,123,963</b></font></td><td align="right"><font size="2">202</font></td><td align="right"><font size="2">$77,315</font></td><td align="right"><font size="2">3</font></td><td align="right"><font size="2"><a href="/schedule/?view=bydate&release=theatrical&date=2014-06-06&p=.htm">6/6</a></font></td><td align="right"><font size="2">10/9</font></td></tr><tr bgcolor="#ffffff"><td align="center"><font size="2">165</font></td><td><b><font size="2"><a href="/movies/?id=triptoitaly.htm">The Trip to Italy</a></font></b></td><td><font size="2"><a href="/studio/chart/?studio=ifc.htm">IFC</a></font></td><td align="right"><font size="2"><b>$2,880,537</b></font></td><td align="right"><font size="2">199</font></td><td align="right"><font size="2">$71,712</font></td><td align="right"><font size="2">3</font></td><td align="right"><font size="2"><a href="/schedule/?view=bydate&release=theatrical&date=2014-08-15&p=.htm">8/15</a></font></td><td align="right"><font size="2">11/9</font></td></tr><tr bgcolor="#f4f4ff"><td align="center"><font size="2">166</font></td><td><b><font size="2"><a href="/movies/?id=identical.htm">The Identical</a></font></b></td><td><font size="2"><a href="/studio/chart/?studio=freestyle.htm">Free</a></font></td><td align="right"><font size="2"><b>$2,827,666</b></font></td><td align="right"><font size="2">1,956</font></td><td align="right"><font size="2">$1,587,137</font></td><td align="right"><font size="2">1,956</font></td><td align="right"><font size="2"><a href="/schedule/?view=bydate&release=theatrical&date=2014-09-05&p=.htm">9/5</a></font></td><td align="right"><font size="2">9/25</font></td></tr><tr bgcolor="#ffffff"><td align="center"><font size="2">167</font></td><td><b><font size="2"><a href="/movies/?id=fluffymovie.htm">The Fluffy Movie</a></font></b></td><td><font size="2"><a href="/studio/chart/?studio=openroads.htm">ORF</a></font></td><td align="right"><font size="2"><b>$2,827,393</b></font></td><td align="right"><font size="2">432</font></td><td align="right"><font size="2">$1,311,446</font></td><td align="right"><font size="2">432</font></td><td align="right"><font size="2"><a href="/schedule/?view=bydate&release=theatrical&date=2014-07-25&p=.htm">7/25</a></font></td><td align="right"><font size="2">8/28</font></td></tr><tr bgcolor="#f4f4ff"><td align="center"><font size="2">168</font></td><td><b><font size="2"><a href="/movies/?id=citizenfour.htm">Citizenfour</a></font></b></td><td><font size="2"><a href="/studio/chart/?studio=radiustwc.htm">RTWC</a></font></td><td align="right"><font size="2"><b>$2,799,318</b></font></td><td align="right"><font size="2">105</font></td><td align="right"><font size="2">$126,321</font></td><td align="right"><font size="2">5</font></td><td align="right"><font size="2"><a href="/schedule/?view=bydate&release=theatrical&date=2014-10-24&p=.htm">10/24</a></font></td><td align="right"><font size="2">-</font></td></tr><tr bgcolor="#ffffff"><td align="center"><font size="2">169</font></td><td><b><font size="2"><a href="/movies/?id=savingchristmas.htm">Kirk Cameron\'s Saving Christmas</a></font></b></td><td><font size="2"><a href="/studio/chart/?studio=samuelgoldwyn.htm">Gold.</a></font></td><td align="right"><font size="2"><b>$2,783,970</b></font></td><td align="right"><font size="2">410</font></td><td align="right"><font size="2">$992,087</font></td><td align="right"><font size="2">410</font></td><td align="right"><font size="2"><a href="/schedule/?view=bydate&release=theatrical&date=2014-11-14&p=.htm">11/14</a></font></td><td align="right"><font size="2">12/25</font></td></tr><tr bgcolor="#f4f4ff"><td align="center"><font size="2">170</font></td><td><b><font size="2"><a href="/movies/?id=pyramid.htm">The Pyramid</a></font></b></td><td><font size="2"><a href="/studio/chart/?studio=fox.htm">Fox</a></font></td><td align="right"><font size="2"><b>$2,756,333</b></font></td><td align="right"><font size="2">685</font></td><td align="right"><font size="2">$1,369,935</font></td><td align="right"><font size="2">589</font></td><td align="right"><font size="2"><a href="/schedule/?view=bydate&release=theatrical&date=2014-12-05&p=.htm">12/5</a></font></td><td align="right"><font size="2">1/29</font></td></tr><tr bgcolor="#ffffff"><td align="center"><font size="2">171</font></td><td><b><font size="2"><a href="/movies/?id=goodlie.htm">The Good Lie</a></font></b></td><td><font size="2"><a href="/studio/chart/?studio=warnerbros.htm">WB</a></font></td><td align="right"><font size="2"><b>$2,722,209</b></font></td><td align="right"><font size="2">461</font></td><td align="right"><font size="2">$841,422</font></td><td align="right"><font size="2">461</font></td><td align="right"><font size="2"><a href="/schedule/?view=bydate&release=theatrical&date=2014-10-03&p=.htm">10/3</a></font></td><td align="right"><font size="2">1/8</font></td></tr><tr bgcolor="#f4f4ff"><td align="center"><font size="2">172</font></td><td><b><font size="2"><a href="/movies/?id=raid2.htm">The Raid 2</a></font></b></td><td><font size="2"><a href="/studio/chart/?studio=sonyclassics.htm">SPC</a></font></td><td align="right"><font size="2"><b>$2,627,209</b></font></td><td align="right"><font size="2">954</font></td><td align="right"><font size="2">$165,292</font></td><td align="right"><font size="2">7</font></td><td align="right"><font size="2"><a href="/schedule/?view=bydate&release=theatrical&date=2014-03-28&p=.htm">3/28</a></font></td><td align="right"><font size="2">6/19</font></td></tr><tr bgcolor="#ffffff"><td align="center"><font size="2">173</font></td><td><b><font size="2"><a href="/movies/?id=undertheskin2014.htm">Under the Skin (2014)</a></font></b></td><td><font size="2"><a href="/studio/chart/?studio=a24.htm">A24</a></font></td><td align="right"><font size="2"><b>$2,614,251</b></font></td><td align="right"><font size="2">176</font></td><td align="right"><font size="2">$133,154</font></td><td align="right"><font size="2">4</font></td><td align="right"><font size="2"><a href="/schedule/?view=bydate&release=theatrical&date=2014-04-04&p=.htm">4/4</a></font></td><td align="right"><font size="2">8/14</font></td></tr><tr bgcolor="#f4f4ff"><td align="center"><font size="2">174</font></td><td><b><font size="2"><a href="/movies/?id=admiral.htm">The Admiral: Roaring Currents</a></font></b></td><td><font size="2"><a href="/studio/chart/?studio=cjentertainment.htm">CJ</a></font></td><td align="right"><font size="2"><b>$2,589,811</b></font></td><td align="right"><font size="2">45</font></td><td align="right"><font size="2">$51,431</font></td><td align="right"><font size="2">1</font></td><td align="right"><font size="2"><a href="/schedule/?view=bydate&release=theatrical&date=2014-08-08&p=.htm">8/8</a></font></td><td align="right"><font size="2">11/6</font></td></tr><tr bgcolor="#ffffff"><td align="center"><font size="2">175</font></td><td><b><font size="2"><a href="/movies/?id=dragonballz2014.htm">Dragon Ball Z: Battle of Gods</a></font></b></td><td><font size="2"><a href="/studio/chart/?studio=screenvision.htm">SV</a></font></td><td align="right"><font size="2"><b>$2,553,002</b></font></td><td align="right"><font size="2">692</font></td><td align="right"><font size="2">$296,414</font></td><td align="right"><font size="2">62</font></td><td align="right"><font size="2"><a href="/schedule/?view=bydate&release=theatrical&date=2014-08-05&p=.htm">8/5</a></font></td><td align="right"><font size="2">8/14</font></td></tr><tr bgcolor="#f4f4ff"><td align="center"><font size="2">176</font></td><td><b><font size="2"><a href="/movies/?id=bangbang.htm">Bang Bang</a></font></b></td><td><font size="2"><a href="/studio/chart/?studio=fip.htm">FIP</a></font></td><td align="right"><font size="2"><b>$2,546,172</b></font></td><td align="right"><font size="2">271</font></td><td align="right"><font size="2">$1,278,690</font></td><td align="right"><font size="2">271</font></td><td align="right"><font size="2"><a href="/schedule/?view=bydate&release=theatrical&date=2014-10-02&p=.htm">10/2</a></font></td><td align="right"><font size="2">10/19</font></td></tr><tr bgcolor="#ffffff"><td align="center"><font size="2">177</font></td><td><b><font size="2"><a href="/movies/?id=kick.htm">Kick</a></font></b></td><td><font size="2"><a href="/studio/chart/?studio=utv.htm">UTV</a></font></td><td align="right"><font size="2"><b>$2,472,695</b></font></td><td align="right"><font size="2">180</font></td><td align="right"><font size="2">$1,071,373</font></td><td align="right"><font size="2">180</font></td><td align="right"><font size="2"><a href="/schedule/?view=bydate&release=theatrical&date=2014-07-25&p=.htm">7/25</a></font></td><td align="right"><font size="2">8/21</font></td></tr><tr bgcolor="#f4f4ff"><td align="center"><font size="2">178</font></td><td><b><font size="2"><a href="/movies/?id=killthemessenger.htm">Kill the Messenger</a></font></b></td><td><font size="2"><a href="/studio/chart/?studio=focus.htm">Focus</a></font></td><td align="right"><font size="2"><b>$2,450,846</b></font></td><td align="right"><font size="2">427</font></td><td align="right"><font size="2">$941,809</font></td><td align="right"><font size="2">374</font></td><td align="right"><font size="2"><a href="/schedule/?view=bydate&release=theatrical&date=2014-10-10&p=.htm">10/10</a></font></td><td align="right"><font size="2">12/11</font></td></tr><tr bgcolor="#ffffff"><td align="center"><font size="2">179</font></td><td><b><font size="2"><a href="/movies/?id=homesman.htm">The Homesman</a></font></b></td><td><font size="2"><a href="/studio/chart/?studio=sabanfilms.htm">Saban</a></font></td><td align="right"><font size="2"><b>$2,429,989</b></font></td><td align="right"><font size="2">222</font></td><td align="right"><font size="2">$45,433</font></td><td align="right"><font size="2">4</font></td><td align="right"><font size="2"><a href="/schedule/?view=bydate&release=theatrical&date=2014-11-14&p=.htm">11/14</a></font></td><td align="right"><font size="2">2/26</font></td></tr><tr bgcolor="#f4f4ff"><td align="center"><font size="2">180</font></td><td><b><font size="2"><a href="/movies/?id=odetomyfather.htm">Ode to My Father</a></font></b></td><td><font size="2"><a href="/studio/chart/?studio=cjentertainment.htm">CJ</a></font></td><td align="right"><font size="2"><b>$2,300,121</b></font></td><td align="right"><font size="2">38</font></td><td align="right"><font size="2">$33,880</font></td><td align="right"><font size="2">1</font></td><td align="right"><font size="2"><a href="/schedule/?view=bydate&release=theatrical&date=2014-12-25&p=.htm">12/25</a></font></td><td align="right"><font size="2">-</font></td></tr><tr bgcolor="#ffffff"><td align="center"><font size="2">181</font></td><td><b><font size="2"><a href="/movies/?id=loveisstrange.htm">Love is Strange</a></font></b></td><td><font size="2"><a href="/studio/chart/?studio=sonyclassics.htm">SPC</a></font></td><td align="right"><font size="2"><b>$2,262,223</b></font></td><td align="right"><font size="2">138</font></td><td align="right"><font size="2">$117,276</font></td><td align="right"><font size="2">5</font></td><td align="right"><font size="2"><a href="/schedule/?view=bydate&release=theatrical&date=2014-08-22&p=.htm">8/22</a></font></td><td align="right"><font size="2">11/20</font></td></tr><tr bgcolor="#f4f4ff"><td align="center"><font size="2">182</font></td><td><b><font size="2"><a href="/movies/?id=2states.htm">2 States</a></font></b></td><td><font size="2"><a href="/studio/chart/?studio=utv.htm">UTV</a></font></td><td align="right"><font size="2"><b>$2,238,174</b></font></td><td align="right"><font size="2">137</font></td><td align="right"><font size="2">$1,073,898</font></td><td align="right"><font size="2">135</font></td><td align="right"><font size="2"><a href="/schedule/?view=bydate&release=theatrical&date=2014-04-18&p=.htm">4/18</a></font></td><td align="right"><font size="2">5/29</font></td></tr><tr bgcolor="#ffffff"><td align="center"><font size="2">183</font></td><td><b><font size="2"><a href="/movies/?id=leweekend.htm">Le Week-End</a></font></b></td><td><font size="2"><a href="/studio/chart/?studio=musicboxfilms.htm">MBox</a></font></td><td align="right"><font size="2"><b>$2,225,098</b></font></td><td align="right"><font size="2">157</font></td><td align="right"><font size="2">$43,608</font></td><td align="right"><font size="2">3</font></td><td align="right"><font size="2"><a href="/schedule/?view=bydate&release=theatrical&date=2014-03-14&p=.htm">3/14</a></font></td><td align="right"><font size="2">7/3</font></td></tr><tr bgcolor="#f4f4ff"><td align="center"><font size="2">184</font></td><td><b><font size="2"><a href="/movies/?id=anchorman2r.htm">Anchorman 2 (R-Rated Extended Cut)</a></font></b></td><td><font size="2"><a href="/studio/chart/?studio=paramount.htm">Par.</a></font></td><td align="right"><font size="2"><b>$2,184,339</b></font></td><td align="right"><font size="2">1,317</font></td><td align="right"><font size="2">$1,358,833</font></td><td align="right"><font size="2">1,317</font></td><td align="right"><font size="2"><a href="/schedule/?view=bydate&release=theatrical&date=2014-02-28&p=.htm">2/28</a></font></td><td align="right"><font size="2">3/20</font></td></tr><tr bgcolor="#ffffff"><td align="center"><font size="2">185</font></td><td><b><font size="2"><a href="/movies/?id=2014oscar.htm">2014 Oscar Nominated Short Films</a></font></b></td><td><font size="2"><a href="/studio/chart/?studio=shortsinternational.htm">Shrts.</a></font></td><td align="right"><font size="2"><b>$2,171,849</b></font></td><td align="right"><font size="2">167</font></td><td align="right"><font size="2">$329,505</font></td><td align="right"><font size="2">105</font></td><td align="right"><font size="2"><a href="/schedule/?view=bydate&release=theatrical&date=2014-01-31&p=.htm">1/31</a></font></td><td align="right"><font size="2">3/2</font></td></tr><tr bgcolor="#f4f4ff"><td align="center"><font size="2">186</font></td><td><b><font size="2"><a href="/movies/?id=wordsandpictures.htm">Words and Pictures</a></font></b></td><td><font size="2"><a href="/studio/chart/?studio=roadsideattractions.htm">RAtt.</a></font></td><td align="right"><font size="2"><b>$2,171,257</b></font></td><td align="right"><font size="2">216</font></td><td align="right"><font size="2">$87,879</font></td><td align="right"><font size="2">10</font></td><td align="right"><font size="2"><a href="/schedule/?view=bydate&release=theatrical&date=2014-05-23&p=.htm">5/23</a></font></td><td align="right"><font size="2">8/21</font></td></tr><tr bgcolor="#ffffff"><td align="center"><font size="2">187</font></td><td><b><font size="2"><a href="/movies/?id=gloria14.htm">Gloria (2014)</a></font></b></td><td><font size="2"><a href="/studio/chart/?studio=roadsideattractions.htm">RAtt.</a></font></td><td align="right"><font size="2"><b>$2,107,925</b></font></td><td align="right"><font size="2">110</font></td><td align="right"><font size="2">$56,454</font></td><td align="right"><font size="2">3</font></td><td align="right"><font size="2"><a href="/schedule/?view=bydate&release=theatrical&date=2014-01-24&p=.htm">1/24</a></font></td><td align="right"><font size="2">5/15</font></td></tr><tr bgcolor="#f4f4ff"><td align="center"><font size="2">188</font></td><td><b><font size="2"><a href="/movies/?id=theimmigrant.htm">The Immigrant</a></font></b></td><td><font size="2"><a href="/studio/chart/?studio=weinsteincompany.htm">Wein.</a></font></td><td align="right"><font size="2"><b>$2,025,328</b></font></td><td align="right"><font size="2">150</font></td><td align="right"><font size="2">$44,064</font></td><td align="right"><font size="2">3</font></td><td align="right"><font size="2"><a href="/schedule/?view=bydate&release=theatrical&date=2014-05-16&p=.htm">5/16</a></font></td><td align="right"><font size="2">7/3</font></td></tr><tr bgcolor="#ffffff"><td align="center"><font size="2">189</font></td><td><b><font size="2"><a href="/movies/?id=onlyloversleftalive.htm">Only Lovers Left Alive</a></font></b></td><td><font size="2"><a href="/studio/chart/?studio=sonyclassics.htm">SPC</a></font></td><td align="right"><font size="2"><b>$1,879,534</b></font></td><td align="right"><font size="2">95</font></td><td align="right"><font size="2">$87,989</font></td><td align="right"><font size="2">4</font></td><td align="right"><font size="2"><a href="/schedule/?view=bydate&release=theatrical&date=2014-04-11&p=.htm">4/11</a></font></td><td align="right"><font size="2">9/18</font></td></tr><tr bgcolor="#f4f4ff"><td align="center"><font size="2">190</font></td><td><b><font size="2"><a href="/movies/?id=tusk.htm">Tusk</a></font></b></td><td><font size="2"><a href="/studio/chart/?studio=a24.htm">A24</a></font></td><td align="right"><font size="2"><b>$1,826,705</b></font></td><td align="right"><font size="2">602</font></td><td align="right"><font size="2">$846,831</font></td><td align="right"><font size="2">602</font></td><td align="right"><font size="2"><a href="/schedule/?view=bydate&release=theatrical&date=2014-09-19&p=.htm">9/19</a></font></td><td align="right"><font size="2">11/13</font></td></tr><tr bgcolor="#ffffff"><td align="center"><font size="2">191</font></td><td><b><font size="2"><a href="/movies/?id=timsvermeer.htm">Tim\'s Vermeer</a></font></b></td><td><font size="2"><a href="/studio/chart/?studio=sonyclassics.htm">SPC</a></font></td><td align="right"><font size="2"><b>$1,671,377</b></font></td><td align="right"><font size="2">129</font></td><td align="right"><font size="2">$49,777</font></td><td align="right"><font size="2">4</font></td><td align="right"><font size="2"><a href="/schedule/?view=bydate&release=theatrical&date=2014-01-31&p=.htm">1/31</a></font></td><td align="right"><font size="2">5/29</font></td></tr><tr bgcolor="#f4f4ff"><td align="center"><font size="2">192</font></td><td><b><font size="2"><a href="/movies/?id=persecuted.htm">Persecuted</a></font></b></td><td><font size="2"><a href="/studio/chart/?studio=millenniumentertainment.htm">MNE</a></font></td><td align="right"><font size="2"><b>$1,558,836</b></font></td><td align="right"><font size="2">736</font></td><td align="right"><font size="2">$851,391</font></td><td align="right"><font size="2">736</font></td><td align="right"><font size="2"><a href="/schedule/?view=bydate&release=theatrical&date=2014-07-18&p=.htm">7/18</a></font></td><td align="right"><font size="2">8/14</font></td></tr><tr bgcolor="#ffffff"><td align="center"><font size="2">193</font></td><td><b><font size="2"><a href="/movies/?id=awakeyogananda.htm">Awake: The Life of Yogananda</a></font></b></td><td><font size="2"><a href="/studio/chart/?studio=counterpoint.htm">CF&amp;SR</a></font></td><td align="right"><font size="2"><b>$1,539,680</b></font></td><td align="right"><font size="2">21</font></td><td align="right"><font size="2">$18,885</font></td><td align="right"><font size="2">1</font></td><td align="right"><font size="2"><a href="/schedule/?view=bydate&release=theatrical&date=2014-10-10&p=.htm">10/10</a></font></td><td align="right"><font size="2">-</font></td></tr><tr bgcolor="#f4f4ff"><td align="center"><font size="2">194</font></td><td><b><font size="2"><a href="/movies/?id=fedup.htm">Fed Up</a></font></b></td><td><font size="2"><a href="/studio/chart/?studio=radiustwc.htm">RTWC</a></font></td><td align="right"><font size="2"><b>$1,538,899</b></font></td><td align="right"><font size="2">104</font></td><td align="right"><font size="2">$126,028</font></td><td align="right"><font size="2">18</font></td><td align="right"><font size="2"><a href="/schedule/?view=bydate&release=theatrical&date=2014-05-09&p=.htm">5/9</a></font></td><td align="right"><font size="2">8/28</font></td></tr><tr bgcolor="#ffffff"><td align="center"><font size="2">195</font></td><td><b><font size="2"><a href="/movies/?id=findingvivianmaier.htm">Finding Vivian Maier</a></font></b></td><td><font size="2"><a href="/studio/chart/?studio=ifc.htm">IFC</a></font></td><td align="right"><font size="2"><b>$1,514,782</b></font></td><td align="right"><font size="2">97</font></td><td align="right"><font size="2">$63,600</font></td><td align="right"><font size="2">3</font></td><td align="right"><font size="2"><a href="/schedule/?view=bydate&release=theatrical&date=2014-03-28&p=.htm">3/28</a></font></td><td align="right"><font size="2">8/10</font></td></tr><tr bgcolor="#f4f4ff"><td align="center"><font size="2">196</font></td><td><b><font size="2"><a href="/movies/?id=pride2014.htm">Pride (2014)</a></font></b></td><td><font size="2"><a href="/studio/chart/?studio=cbsfilms.htm">CBS</a></font></td><td align="right"><font size="2"><b>$1,446,634</b></font></td><td align="right"><font size="2">124</font></td><td align="right"><font size="2">$100,040</font></td><td align="right"><font size="2">10</font></td><td align="right"><font size="2"><a href="/schedule/?view=bydate&release=theatrical&date=2014-09-26&p=.htm">9/26</a></font></td><td align="right"><font size="2">11/20</font></td></tr><tr bgcolor="#ffffff"><td align="center"><font size="2">197</font></td><td><b><font size="2"><a href="/movies/?id=twodaysonenight.htm">Two Days, One Night</a></font></b></td><td><font size="2"><a href="/studio/chart/?studio=ifc.htm">IFC</a></font></td><td align="right"><font size="2"><b>$1,433,853</b></font></td><td align="right"><font size="2">120</font></td><td align="right"><font size="2">$30,700</font></td><td align="right"><font size="2">2</font></td><td align="right"><font size="2"><a href="/schedule/?view=bydate&release=theatrical&date=2014-12-24&p=.htm">12/24</a></font></td><td align="right"><font size="2">-</font></td></tr><tr bgcolor="#f4f4ff"><td align="center"><font size="2">198</font></td><td><b><font size="2"><a href="/movies/?id=locke.htm">Locke</a></font></b></td><td><font size="2"><a href="/studio/chart/?studio=a24.htm">A24</a></font></td><td align="right"><font size="2"><b>$1,375,769</b></font></td><td align="right"><font size="2">121</font></td><td align="right"><font size="2">$81,006</font></td><td align="right"><font size="2">4</font></td><td align="right"><font size="2"><a href="/schedule/?view=bydate&release=theatrical&date=2014-04-25&p=.htm">4/25</a></font></td><td align="right"><font size="2">8/14</font></td></tr><tr bgcolor="#ffffff"><td align="center"><font size="2">199</font></td><td><b><font size="2"><a href="/movies/?id=gimmeshelter.htm">Gimme Shelter</a></font></b></td><td><font size="2"><a href="/studio/chart/?studio=roadsideattractions.htm">RAtt.</a></font></td><td align="right"><font size="2"><b>$1,359,910</b></font></td><td align="right"><font size="2">385</font></td><td align="right"><font size="2">$689,070</font></td><td align="right"><font size="2">385</font></td><td align="right"><font size="2"><a href="/schedule/?view=bydate&release=theatrical&date=2014-01-24&p=.htm">1/24</a></font></td><td align="right"><font size="2">2/27</font></td></tr><tr bgcolor="#f4f4ff"><td align="center"><font size="2">200</font></td><td><b><font size="2"><a href="/movies/?id=forcemajeure.htm">Force Majeure</a></font></b></td><td><font size="2"><a href="/studio/chart/?studio=magnolia.htm">Magn.</a></font></td><td align="right"><font size="2"><b>$1,359,497</b></font></td><td align="right"><font size="2">68</font></td><td align="right"><font size="2">$23,309</font></td><td align="right"><font size="2">2</font></td><td align="right"><font size="2"><a href="/schedule/?view=bydate&release=theatrical&date=2014-10-24&p=.htm">10/24</a></font></td><td align="right"><font size="2">3/5</font></td></tr><tr bgcolor="#dcdcdc"><td colspan="9" align="center"><font size="2"><b>Summary of 701 Movies on Chart:</b></font></td></tr><tr bgcolor="#f4f4ff"><td align="right" colspan="3"><font size="2"><b>Totals:</b></td><td align="right"><font size="2">$10,434,510,380</font></td><td align="center"><font size="2">-</font></td><td align="center"><font size="2">-</font></td><td align="center"><font size="2">-</font></td><td align="center"><font size="2">-</font></td><td align="center"><font size="2">-</font></td></tr><tr bgcolor="#ffffff"><td align="right" colspan="3"><font size="2"><b>Averages:</b></td><td align="right"><font size="2">$14,885,179</font></td><td align="right"><font size="2">-</font></td><td align="right"><font size="2">-</font></td><td align="right"><font size="2">-</font></td><td align="center"><font size="2">-</font></td><td align="center"><font size="2">-</font></td></tr><tr bgcolor="#dcdcdc"><td colspan="9"><img src="/images/space.gif" width="1" height="1"></td></tr></table></td></tr><tr><td valign="bottom"><font face="Verdana" size="1"><b><a href="/yearly/chart/?yr=2013&view=releasedate&view2=domestic&sort=gross&order=DESC&&p=.htm">&lt; Previous Year</a></b></font></td><td align="center"><table border="0" cellspacing="0" cellpadding="0">\n\t\t\t\t\t<form method="POST" action="yearly.asof.php" name="asofjump">\n\t\t\t\t\t<tr><td><font face="Verdana" size="1"><br>Data as of:\n\t\t\t\t\t<select size="1" name="asof" style="font-size: 8pt">\n\t\t\t\t\t<option selected value="today">Today</option>\n\t\t\t\t\t<option  value="sametime">Today in 2014</option>\n\t\t\t\t\t<option value="2014-01-31">Jan. 31, 2014</option>\n\t\t\t\t\t<option value="2014-02-28">Feb. 28, 2014</option>\n\t\t\t\t\t<option value="2014-03-31">Mar. 31, 2014</option>\n\t\t\t\t\t<option value="2014-04-30">Apr. 30, 2014</option>\n\t\t\t\t\t<option value="2014-05-31">May 31, 2014</option>\n\t\t\t\t\t<option value="2014-06-30">Jun. 30, 2014</option>\n\t\t\t\t\t<option value="2014-07-31">Jul. 31, 2014</option>\n\t\t\t\t\t<option value="2014-08-31">Aug. 31, 2014</option>\n\t\t\t\t\t<option value="2014-09-30">Sep. 30, 2014</option>\n\t\t\t\t\t<option value="2014-10-31">Oct. 31, 2014</option>\n\t\t\t\t\t<option value="2014-11-30">Nov. 30, 2014</option>\n\t\t\t\t\t<option value="2014-12-31">Dec. 31, 2014</option>\n\t\t\t\t\t<option value="specify">Specify Date</option>\n\t\t\t\t\t<option value="about">About this feature</option>\n\t\t\t\t\t</select> or (<select size="1" name="asof_mo" style="font-size: 8pt">\n\t\t\t\t\t<option selected value="">Month</option>\n\t\t\t\t\t\n\t\t\t\t\t<option value="01">Jan.</option>\n\t\t\t\t\t<option value="02">Feb.</option>\n\t\t\t\t\t<option value="03">Mar.</option>\n\t\t\t\t\t<option value="04">Apr.</option>\n\t\t\t\t\t<option value="05">May</option>\n\t\t\t\t\t<option value="06">Jun.</option>\n\t\t\t\t\t<option value="07">Jul.</option>\n\t\t\t\t\t<option value="08">Aug.</option>\n\t\t\t\t\t<option value="09">Sep.</option>\n\t\t\t\t\t<option value="10">Oct.</option>\n\t\t\t\t\t<option value="11">Nov.</option>\n\t\t\t\t\t<option value="12">Dec.</option>\n\t\t\t\t\t</select> / <select size="1" name="asof_day" style="font-size: 8pt">\n\t\t\t\t\t<option selected value="">Day</option>\n\t\t\t\t\t<option value="01">1</option>\n\t\t\t\t\t<option value="02">2</option>\n\t\t\t\t\t<option value="03">3</option>\n\t\t\t\t\t<option value="04">4</option>\n\t\t\t\t\t<option value="05">5</option>\n\t\t\t\t\t<option value="06">6</option>\n\t\t\t\t\t<option value="07">7</option>\n\t\t\t\t\t<option value="08">8</option>\n\t\t\t\t\t<option value="09">9</option>\n\t\t\t\t\t<option value="10">10</option>\n\t\t\t\t\t<option value="11">11</option>\n\t\t\t\t\t<option value="12">12</option>\n\t\t\t\t\t<option value="13">13</option>\n\t\t\t\t\t<option value="14">14</option>\n\t\t\t\t\t<option value="15">15</option>\n\t\t\t\t\t<option value="16">16</option>\n\t\t\t\t\t<option value="17">17</option>\n\t\t\t\t\t<option value="18">18</option>\n\t\t\t\t\t<option value="19">19</option>\n\t\t\t\t\t<option value="20">20</option>\n\t\t\t\t\t<option value="21">21</option>\n\t\t\t\t\t<option value="22">22</option>\n\t\t\t\t\t<option value="23">23</option>\n\t\t\t\t\t<option value="24">24</option>\n\t\t\t\t\t<option value="25">25</option>\n\t\t\t\t\t<option value="26">26</option>\n\t\t\t\t\t<option value="27">27</option>\n\t\t\t\t\t<option value="28">28</option>\n\t\t\t\t\t<option value="29">29</option>\n\t\t\t\t\t<option value="30">30</option>\n\t\t\t\t\t<option value="31">31</option>\n\t\t\t\t\t</select> / <select size="1" name="asof_yr" style="font-size: 8pt">\n\t\t\t\t\t\t<option selected>2014</option>\n\t\t\t\t\t\t<option>2015</option>\n\t\t\t\t\t\t</select>) <input type="submit" value="Go" name="go" style="font-size: 8pt; height: 16">\n\t\t\t\t\t</font></td></tr>\n\t\t\t\t\t<input type="hidden" name="jumpstuff" value="view=releasedate&view2=domestic&yr=2014&sort=gross&order=DESC&p=.htm">\n\t\t\t\t\t<input type="hidden" name="curasof" value="today">\n\t\t\t\t\t<input type="hidden" name="yr" value="2014">\n\t\t\t\t\t</form>\n\t\t\t\t\t</table>\n\t\t\t\t</font></td><td valign="bottom" align="right"><font face="Verdana" size="1"><b><a href="/yearly/chart/?yr=2015&view=releasedate&view2=domestic&sort=gross&order=DESC&&p=.htm">Next Year &gt;</a></b></font></td></tr></table><center><font face="Verdana" size="4"><b><a href="/yearly/chart/?page=1&view=releasedate&view2=domestic&yr=2014&p=.htm">#1&#150;100</a> - <font face="Verdana" size="5">#101&#150;200</font> - <a href="/yearly/chart/?page=3&view=releasedate&view2=domestic&yr=2014&p=.htm">#201&#150;300</a> - <a href="/yearly/chart/?page=4&view=releasedate&view2=domestic&yr=2014&p=.htm">#301&#150;400</a> - <a href="/yearly/chart/?page=5&view=releasedate&view2=domestic&yr=2014&p=.htm">#401&#150;500</a> - <a href="/yearly/chart/?page=6&view=releasedate&view2=domestic&yr=2014&p=.htm">#501&#150;600</a> - <a href="/yearly/chart/?page=7&view=releasedate&view2=domestic&yr=2014&p=.htm">#601&#150;700</a> - <a href="/yearly/chart/?page=8&view=releasedate&view2=domestic&yr=2014&p=.htm">#701&#150;701</a></b></font></center><br><font face="Verdana" size="2">Note: <b>RELEASE DATE</b> shows all movies that opened in a given time period and their total grosses. <b>WIDE RELEASES</b> shows only movies released in 600 or more theaters and their total grosses, grouped by wide release date. <b>LIMITED RELEASES</b> shows only movies released in less than 600 theaters and their total grosses, grouped by release date. <b>CALENDAR GROSSES</b> shows all movies playing during the indicated time period, both new and holdover, and their grosses (or estimated grosses) during that time period. Movies released outside the indicated time period are shown in italics. <b><a href="/about/boxoffice.htm">Click here for a full explanation of the various box office sections</a></b></font><br><br>\n<P ALIGN="CENTER"><A HREF="/yearly/"><FONT FACE="Verdana" SIZE=2><b>back to<br>Yearly Index Page</b></FONT></A></P>\n<br>\n</td><td valign="top" align="center" width="160"><br><br><br><br><br><br><!-- begin ad tag (tile=2) -->\r\n<script type="text/javascript">\r\n//<![CDATA[\r\nord=1859399127;\r\ndocument.write(\'<iframe src="http://ad.doubleclick.net/N4215/adi/imdb2.bom.other/;p=rh;tile=2;sz=160x600,120x600,115x600;oe=ISO-8859-1;ord=\' + ord + \'?" width="160" height="600" marginwidth="0" marginheight="0" frameborder="0" scrolling="no">\');\r\n\r\nif (navigator.userAgent.indexOf("Gecko")==-1)\r\n{\r\ndocument.write(\'<script type="text/javascript" src="http://ad.doubleclick.net/N4215/adj/imdb2.bom.other/;p=rh;tile=2;sz=160x600,115x600;abr=!ie;oe=ISO-8859-1;ord=\' + ord + \'?"><\\/script>\');\r\n}\r\ndocument.write(\'</iframe>\');\r\n//]]>\r\n</script>\r\n<noscript><a href="http://ad.doubleclick.net/N4215/jump/imdb2.bom.other/;p=rh;tile=2;sz=160x600;oe=ISO-8859-1;ord=1859399127?" target="_blank" ><img src="http://ad.doubleclick.net/N4215/ad/imdb2.bom.other/;p=rh;tile=2;sz=160x600,115x600;oe=ISO-8859-1;ord=1859399127?" border="0" alt="" /></a></noscript>\r\n<!-- end ad tag --></td></tr></table><table border="0" width="100%" cellspacing="0" cellpadding="3">\n\t<tr>\n\t\t<td bgcolor="#FFFFFF" align="center"><b><font face="Verdana" size="1"><a href="/yearly/chart/?view=releasedate&view2=domestic&page=2&yr=2014&p=.htm">ALL RELEASES</a></font></b></td>\n\t\t<td bgcolor="#DCDCDC" align="center"><b><font face="Verdana" size="1"><a href="/yearly/chart/?view=widedate&view2=domestic&page=2&yr=2014&p=.htm">WIDE RELEASES</font></b></td>\n\t\t<td bgcolor="#DCDCDC" align="center"><b><font face="Verdana" size="1"><a href="/yearly/chart/?view=limited&view2=domestic&page=2&yr=2014&p=.htm">LIMITED RELEASES</font></b></td>\n\t\t\t\t<td bgcolor="#DCDCDC" align="center"><b><font face="Verdana" size="1"><a href="/yearly/chart/?view=calendargross&view2=domestic&page=2&yr=2014&p=.htm">CALENDAR GROSSES</font></b></td>\n\t\t\t</tr>\n</table>\n<table border="0" cellspacing="0" cellpadding="0" width="100%">\n  <tr><td bgcolor="#8b0000" height="1" colspan="2"><img src="/images/space.gif" border="0" width="1" height="5"></td></tr>\n</table>\n\n</td></tr></table>\n\n\t</div>\n\t</div>\n\t<div id="hp_footer">\n\t\t<div style="padding-bottom: 20px;">\n\n\t\t\t<div style="margin: 0px 121px; vertical-align: top;">\n\t\t\t\t<div id="footer_links">\n\t\t\t\t\t<ul class="footer_link_list">\n\t\t\t\t\t\t<li><strong>Latest Updates</strong></li>\n\t\t\t\t\t\t<li><a href="/news/?ref=ft">Movie News</a>\n\t\t\t\t\t\t<li><a href="/daily/chart/?ref=ft">Daily Chart</a></li>\n\t\t\t\t\t\t<li><a href="/weekend/chart/?ref=ft">Weekend Chart</a></li>\n\t\t\t\t\t\t<li><a href="/alltime/?ref=ft">All Time Charts</a></li>\n\t\t\t\t\t\t<li><a href="/intl/?ref=ft">International Charts</a></li>\n\t\t\t\t\t</ul>\n\t\t\t\t\t<!--\n\t\t\t\t\t<ul class="footer_link_list">\n\t\t\t\t\t\t<li><strong>Popular Movies</strong></li>\n\t\t\t\t\t\t\t\t\t\t\t</ul>\n\t\t\t\t\t-->\n\t\t\t\t\t<ul class="footer_link_list">\n\t\t\t\t\t\t<li><strong>Indices</strong></li>\n\t\t\t\t\t\t<li><a href="/movies/?ref=ft">Movies A-Z</a></li>\n\t\t\t\t\t\t<li><a href="/people/?ref=ft">People</a></li>\n\t\t\t\t\t\t<li><a href="/genres/?ref=ft">Genres</a></li>\n\t\t\t\t\t\t<li><a href="/franchises/?ref=ft">Franchises</a></li>\n\t\t\t\t\t\t<li><a href="/showdowns/?ref=ft">Showdowns</a></li>\n\t\t\t\t\t</ul>\n\t\t\t\t\t<ul class="footer_link_list">\n\t\t\t\t\t\t<li><strong>Other</strong></li>\n\t\t\t\t\t\t<li><a href="/about/?ref=ft">About This Site</a></li>\n\t\t\t\t\t\t<li><a href="/about/advertise.htm?ref=ft">Advertising</a></li>\n\t\t\t\t\t\t<li><a href="/users/?ref=ft">My Account</a></li>\n\t\t\t\t\t\t<li><a href="/about/rss.htm?ref=ft">RSS Feeds</a></li>\n\t\t\t\t\t</ul>\n\t\t\t\t</div>\n\t\t\t\t<div id="copyright">\n\t\t\t\t\t<a href="/?ref=ft"><img src="/img/misc/bom_logo1.png" width="245" height="56" alt="Box Office Mojo"></a><br>\n\t\t\t\t\t<p>An <a href="http://imdb.com/"><img src="/img/misc/IMDbSm.png" width="34" height="16" alt="IMDb" valign="middle"></a> company<br><br></p>\n\t\t\t\t\t<p>&copy; <a href="http://imdb.com/">IMDb.com</a>, Inc. or its affiliates. All rights reserved. Box Office Mojo and IMDb are trademarks or registered trademarks of IMDb.com, Inc. or its affiliates. <a href="/about/termsofuse.htm">Terms of Use</a> and <a href="/about/privacy.htm">Privacy Policy</a> under which this service is provided to you.</p>\n\t\t\t\t\t</div>\t\t\t\n\t\t\t\t</div>\n\t\t\t\t<div style="clear:both;">\n\t\t\t\t<div>\n\t\t\t\t <!-- begin ad tag (tile=6) -->\r\n<script type="text/javascript">\r\n//<![CDATA[\r\nord=1859399127;\r\ndocument.write(\'<iframe src="http://ad.doubleclick.net/N4215/adi/imdb2.bom.other/;p=b;tile=3;sz=728x90;oe=ISO-8859-1;ord=\' + ord + \'?" width="728" height="90" marginwidth="0" marginheight="0" frameborder="0" scrolling="no">\');\r\n\r\nif (navigator.userAgent.indexOf("Gecko")==-1)\r\n{\r\ndocument.write(\'<script type="text/javascript" src="http://ad.doubleclick.net/N4215/adj/imdb2.bom.other/;p=b;tile=3;sz=728x90;abr=!ie;oe=ISO-8859-1;ord=\' + ord + \'?"><\\/script>\');\r\n}\r\ndocument.write(\'<\\/iframe>\');\r\n//]]>\r\n</script>\r\n<noscript><a href="http://ad.doubleclick.net/N4215/jump/imdb2.bom.other/;p=b;tile=3;sz=728x90;oe=ISO-8859-1;ord=1859399127?" target="_blank" ><img src="http://ad.doubleclick.net/N4215/ad/imdb2.bom.other/;p=b;tile=3;sz=728x90;oe=ISO-8859-1;ord=1859399127?" border="0" alt="" ></a></noscript>\r\n<!-- end ad tag --></div>\n\n\t\t\t\t</div>\n\t</div>\n</div>\n\n\n\n\n\n<!-- Page generated in 0.15 seconds | . -->\n<script>\n  var _comscore = _comscore || [];\n  _comscore.push({ c1: "2", c2: "6034961" });\n  (function() {\n    var s = document.createElement("script"), el = document.getElementsByTagName("script")[0]; s.async = true;\n    s.src = (document.location.protocol == "https:" ? "https://sb" : "http://b") + ".scorecardresearch.com/beacon.js";\n  el.parentNode.insertBefore(s, el);\n  })();\n</script>\n<noscript>\n    <img src="http://b.scorecardresearch.com/p?c1=2&c2=6034961&cv=2.0&cj=1" />\n</noscript>\n\n</body>\n</html>\n'
p30
sS'encoding'
p31
S'ISO-8859-1'
p32
sS'url'
p33
Vhttp://www.boxofficemojo.com/yearly/chart/?page=2&view=releasedate&view2=domestic&yr=2014&p=.htm
p34
sS'status_code'
p35
I200
sS'request'
p36
g0
(crequests.models
PreparedRequest
p37
g2
Ntp38
Rp39
(dp40
S'body'
p41
Nsg33
S'http://www.boxofficemojo.com/yearly/chart/?page=2&view=releasedate&view2=domestic&yr=2014&p=.htm'
p42
sS'hooks'
p43
(dp44
S'response'
p45
(lp46
ssS'headers'
p47
g0
(crequests.structures
CaseInsensitiveDict
p48
g2
Ntp49
Rp50
(dp51
S'_store'
p52
(dp53
S'connection'
p54
(S'Connection'
p55
S'keep-alive'
p56
tp57
sS'accept-encoding'
p58
(S'Accept-Encoding'
p59
S'gzip, deflate'
p60
tp61
sS'accept'
p62
(S'Accept'
p63
S'*/*'
p64
tp65
sS'user-agent'
p66
(S'User-Agent'
p67
S'python-requests/2.7.0 CPython/2.7.10 Darwin/14.5.0'
p68
tp69
ssbsg27
g0
(g7
g2
Ntp70
Rp71
(dp72
g11
I1444058510
sg12
(icookielib
DefaultCookiePolicy
p73
(dp74
g15
I01
sg16
I0
sg17
Nsg18
Nsg19
I00
sg20
I00
sg11
I1444058510
sg21
I00
sg22
I00
sg23
I00
sg24
I00
sg25
(tsg26
I01
sbsg27
(dp75
sbsS'method'
p76
S'GET'
p77
sbsS'elapsed'
p78
cdatetime
timedelta
p79
(I0
I0
I182011
tp80
Rp81
sg47
g0
(g48
g2
Ntp82
Rp83
(dp84
g52
(dp85
S'content-length'
p86
(S'content-length'
p87
S'18331'
p88
tp89
sS'x-xss-protection'
p90
(S'x-xss-protection'
p91
S'1; mode=block'
p92
tp93
sS'x-content-type-options'
p94
(S'x-content-type-options'
p95
S'nosniff'
p96
tp97
sS'content-encoding'
p98
(S'content-encoding'
p99
S'gzip'
p100
tp101
sS'expires'
p102
(S'expires'
p103
S'Thu, 19 Nov 1981 08:52:00 GMT'
p104
tp105
sS'server'
p106
(S'server'
p107
S'Server'
p108
tp109
sS'connection'
p110
(S'connection'
p111
S'keep-alive'
p112
tp113
sS'x-permitted-cross-domain-policies'
p114
(S'x-permitted-cross-domain-policies'
p115
S'master-only'
p116
tp117
sS'pragma'
p118
(S'pragma'
p119
S'no-cache'
p120
tp121
sS'cache-control'
p122
(S'cache-control'
p123
S'no-store, no-cache, must-revalidate, post-check=0, pre-check=0'
p124
tp125
sS'date'
p126
(S'date'
p127
S'Mon, 05 Oct 2015 15:20:51 GMT'
p128
tp129
sS'x-frame-options'
p130
(S'x-frame-options'
p131
S'SAMEORIGIN'
p132
tp133
sS'content-type'
p134
(S'content-type'
p135
S'text/html'
p136
tp137
ssbsS'reason'
p138
S'OK'
p139
sS'history'
p140
(lp141
sb.