ccopy_reg
_reconstructor
p0
(crequests.models
Response
p1
c__builtin__
object
p2
Ntp3
Rp4
(dp5
S'cookies'
p6
g0
(crequests.cookies
RequestsCookieJar
p7
g2
Ntp8
Rp9
(dp10
S'_now'
p11
I1444069026
sS'_policy'
p12
(icookielib
DefaultCookiePolicy
p13
(dp14
S'strict_rfc2965_unverifiable'
p15
I01
sS'strict_ns_domain'
p16
I0
sS'_allowed_domains'
p17
NsS'rfc2109_as_netscape'
p18
NsS'rfc2965'
p19
I00
sS'strict_domain'
p20
I00
sg11
I1444069026
sS'strict_ns_set_path'
p21
I00
sS'strict_ns_unverifiable'
p22
I00
sS'strict_ns_set_initial_dollar'
p23
I00
sS'hide_cookie2'
p24
I00
sS'_blocked_domains'
p25
(tsS'netscape'
p26
I01
sbsS'_cookies'
p27
(dp28
sbsS'_content'
p29
S'<!DOCTYPE html PUBLIC "-//W3C//DTD HTML 4.01 Transitional//EN" "http://www.w3.org/TR/html4/loose.dtd">\n<html lang="en">\n<HEAD>\n<TITLE>2010 Yearly Box Office Results - Box Office Mojo</TITLE>\n<META NAME="keywords" CONTENT="2010, year, yearly, box, office, result, list, movie, movies, listing, listings, top movies, all time, film">\n<META NAME="description" CONTENT="Yearly box office results for 2010.">\n<link rel="stylesheet" href="/css/mojo.css?1" type="text/css" media="screen" title="no title" charset="utf-8">\n<link rel="stylesheet" href="/css/mojo.css?1" type="text/css" media="print" title="no title" charset="utf-8"></head>\n<body>\n\t<iframe id="sis_pixel_sitewide" width="1" height="1" frameborder="0" marginwidth="0" marginheight="0" style="display: none;"></iframe>\n<script>\n    setTimeout(function(){\n        try{\n            //sis3.0 pixel\n            var cacheBust = Math.random() * 10000000000000000,\n                url_sis3 = \'http://s.amazon-adsystem.com/iu3?\',\n                params_sis3 = [\n                    "d=boxofficemojo.com",\n                    "cb=" + cacheBust\n                ];\n\n            (document.getElementById(\'sis_pixel_sitewide\')).src = url_sis3 + params_sis3.join(\'&\');\n        }catch(e){\n            if (window.ueLogError) { \n                window.ueLogError(e);\n            }\n        }\n    }, 5);\n</script>\n\n<div id="container">\n<div>\n<!-- GOOGLE ANALYTICS CODE STARTS -->\n<script type="text/javascript">\n\n  var _gaq = _gaq || [];\n  _gaq.push([\'_setAccount\', \'UA-2831726-1\']);\n  _gaq.push([\'_trackPageview\']);\n\n  (function() {\n    var ga = document.createElement(\'script\'); ga.type = \'text/javascript\'; ga.async = true;\n    ga.src = (\'https:\' == document.location.protocol ? \'https://ssl\' : \'http://www\') + \'.google-analytics.com/ga.js\';\n    (document.getElementsByTagName(\'head\')[0] || document.getElementsByTagName(\'body\')[0]).appendChild(ga);\n  })();\n\n</script>\n<!-- GOOGLE ANALYTICS CODE ENDS -->\n\t<div id="hp_banner">\n\t<div id="top_links">\n\t\t<div style="float: left"><a href="/daily/chart/">Daily Box Office (Sun.)</a> | <a href="/weekend/chart/">Weekend Box Office (Oct. 2&ndash;4)</a> | <a href="/movies/?id=scott2016.htm">#1 Movie: \'The Martian\'</a> | <a href="http://www.imdb.com/showtimes/?ref_=mojo">Showtimes</a></div>\n\t\t<div style="float: right">Updated 10/4/2015 7:11 P.M. Pacific Time</div>\n\t\t<div style="clear:both; height: 0px"></div>\n\t</div>\n</div>\n\t\t\n<div id="header">\n\t<div id="leaderboard"><!-- begin ad tag (tile=1) -->\r\n<script type="text/javascript">\r\n//<![CDATA[\r\nord=1263676912;\r\ndocument.write(\'<iframe src="http://ad.doubleclick.net/N4215/adi/imdb2.bom.other/;p=t;tile=1;sz=728x90;oe=ISO-8859-1;ord=\' + ord + \'?" width="728" height="90" marginwidth="0" marginheight="0" frameborder="0" scrolling="no">\');\r\n\r\nif (navigator.userAgent.indexOf("Gecko")==-1)\r\n{\r\ndocument.write(\'<script type="text/javascript" src="http://ad.doubleclick.net/N4215/adj/imdb2.bom.other/;p=t;tile=1;sz=728x90;abr=!ie;oe=ISO-8859-1;ord=\' + ord + \'?"><\\/script>\');\r\n}\r\ndocument.write(\'<\\/iframe>\');\r\n//]]>\r\n</script>\r\n<noscript><a href="http://ad.doubleclick.net/N4215/jump/imdb2.bom.other/;p=t;tile=1;sz=728x90;oe=ISO-8859-1;ord=1263676912?" target="_blank" ><img src="http://ad.doubleclick.net/N4215/ad/imdb2.bom.other/;p=t;tile=1;sz=728x90;oe=ISO-8859-1;ord=1263676912?" border="0" alt="" ></a></noscript>\r\n<!-- end ad tag --></div>\t<div id="hp_logo"><a href="/"><img src="/img/misc/bom_logo1.png" width="245" height="56" alt="Box Office Mojo"></a></div>\n\t<div style="clear:both; height: 0px"></div>\n</div>\n\n\n</div>\n\n\n<div id="main">\n<!-- COLUMN 1 of 4 -->\n\t<div id="leftnav">\n<!-- google_ad_section_start(weight=ignore) -->\n<!-- <table id="navleft" cellspacing="0" cellpadding="2" border="0"> -->\n<ul id="leftnav">\n<li class="nl_section">Search Site</li>\n<li class="nl_link" style="padding-left:0px">\n\t<form name="searchbox" method="POST" action="/search/q.php">\n\t<input name="q"  type="text" style="font-size: 9 pt; font-weight: bold; width: 90px;"><br>\n\t<input type="submit" value="Search..." ></form> \n</li>\n<li class=\'nl_section\'>Social</li>\n<li class="nl_link"><a href="http://facebook.com/boxofficemojo" style="vertical-align:middle;"><img src="/images/FaceBook_16x16.png" border="0" alt="Facebook Logo">Facebook</a></li>\n<li class="nl_link"><a href="http://twitter.com/boxofficemojo" style="vertical-align:middle;"><img src="/images/Twitter_16x16.png" border="0" alt="Twitter Logo">Twitter</a></li>\n\n<li class=\'nl_section\'>Features</li>\n<li class=\'nl_link\'><a href="/news/">News</a></li>\n<li class=\'nl_link\'><a href="/schedule/">Release Sched.</a></li>\n<li class=\'nl_link\'><a href="http://www.imdb.com/showtimes?ref_=mojo">Showtimes<br/><span style="margin-left:7px;color: #999999; font-size: 9px;">at <img src="/images/mojo_imdb_sm.png"/></span></a></li>\n<li class=\'nl_section\'>Box Office</li>\n<li class=\'nl_link\'><a href="/daily/">Daily</a></li>\n<li class=\'nl_link\'><a href="/weekend/">Weekend</a></li>\n<li class=\'nl_link\'><a href="/weekly/">Weekly</a></li>\n<li class=\'nl_link\'><a href="/monthly/">Monthly</a></li>\n<li class=\'nl_link\'><a href="/quarterly/">Quarterly</a></li>\n<li class=\'nl_link\'><a href="/seasonal/">Seasonal</a></li>\n<li class=\'nl_link_current\'><a href="/yearly/">Yearly</a></li>\n<li class=\'nl_link\'><a href="/alltime/">All Time</a></li>\n<li class=\'nl_link\'><a href="/chartwatch/">Chart Watch</a></li>\n<li class=\'nl_link\'><a href="/intl/">International</a></li>\n<li class=\'nl_section\'>Indices</li>\n<li class=\'nl_link\'><a href="/movies/">Movies A-Z</a></li>\n<li class=\'nl_link\'><a href="/studio/">Studios</a></li>\n<li class=\'nl_link\'><a href="/people/">People</a></li>\n<li class=\'nl_link\'><a href="/genres/">Genres</a></li>\n<li class=\'nl_link\'><a href="/franchises/">Franchises</a></li>\n<li class=\'nl_link\'><a href="/showdowns/">Showdowns</a></li>\n<li class=\'nl_link\'><a href="/oscar/">Oscar</a></li>\n<li class=\'nl_link\'><a href="/counts/">Theater Counts</a></li>\n</ul>\n</div>\n\t<div id="body">\n\t<div id="addthis"><table border="0" cellspacing="0" cellpadding="0">\r\n<tr>\r\n<form method="POST" action="/adjuster.php" name="adjuster">\r\n<input type="hidden" name="returnURL" value="/yearly/chart/?page=2&amp;view=releasedate&amp;view2=domestic&amp;yr=2010&amp;p=.htm">\r\n<td valign="center">\r\n  <font face="Verdana" size="2"><a href="/about/adjuster.htm"><b>Adjuster:</b></a></font>\r\n  <select size="1" name="ticketyr" style="font-family: Verdana; font-size: 10pt">\r\n  <option value="0" selected>Actuals</option>\r\n  <option value="1" >Est. Tckts</option>\r\n<script language="javascript">\r\n  for(i=2015; i>=1933; i--) {\r\n  \tdocument.write(\'<option value="\' + i + \'"\');\r\n\tif(i==\'0\') document.write(\' selected\');\r\n\tdocument.write(\'>\' + i );\r\n\tif(i==\'0\') document.write(\', $\' + \'0.00\');\r\n\tdocument.write(\'</option>\');\r\n  }\r\n</script>\r\n  <option value="1929" >1929</option>\r\n  <option value="1924" >1924</option>\r\n  <option value="1910" >1910</option>\r\n  </select><input type="submit" name="Go" value="Go" style="font-size: 10pt; height: 22">\r\n\r\n</td></form></tr></table>\r\n\r\n</div>\t\n\t<h2><a href="/yearly/">Yearly Box Office</a></h2>\n\n\t<table border="0" cellpadding="0" cellspacing="0" width="100%">\n\t\t<tr><td bgcolor="#8b0000" colspan="2"><img src="/images/space.gif" border="0" width="1" height="5"></td></tr>\n\t</table>\n\t\n<table border="0" width="100%" cellspacing="0" cellpadding="3">\n\t<tr>\n\t\t<td bgcolor="#FFFFFF" align="center"><b><font face="Verdana" size="1"><a href="/yearly/chart/?view=releasedate&view2=domestic&page=2&yr=2010&p=.htm">ALL RELEASES</a></font></b></td>\n\t\t<td bgcolor="#DCDCDC" align="center"><b><font face="Verdana" size="1"><a href="/yearly/chart/?view=widedate&view2=domestic&page=2&yr=2010&p=.htm">WIDE RELEASES</font></b></td>\n\t\t<td bgcolor="#DCDCDC" align="center"><b><font face="Verdana" size="1"><a href="/yearly/chart/?view=limited&view2=domestic&page=2&yr=2010&p=.htm">LIMITED RELEASES</font></b></td>\n\t\t\t\t<td bgcolor="#DCDCDC" align="center"><b><font face="Verdana" size="1"><a href="/yearly/chart/?view=calendargross&view2=domestic&page=2&yr=2010&p=.htm">CALENDAR GROSSES</font></b></td>\n\t\t\t</tr>\n</table>\n<table border="0" cellspacing="0" cellpadding="0" width="100%"><tr><td valign="top" align="center"><br>\n<h1>2010 DOMESTIC GROSSES</h1><p>Total Grosses of all Movies Released in 2010</h1></b></FONT></p>\n\n<center><font face="Verdana" size="4"><b><a href="/yearly/chart/?page=1&view=releasedate&view2=domestic&yr=2010&p=.htm">#1&#150;100</a> - <font face="Verdana" size="5">#101&#150;200</font> - <a href="/yearly/chart/?page=3&view=releasedate&view2=domestic&yr=2010&p=.htm">#201&#150;300</a> - <a href="/yearly/chart/?page=4&view=releasedate&view2=domestic&yr=2010&p=.htm">#301&#150;400</a> - <a href="/yearly/chart/?page=5&view=releasedate&view2=domestic&yr=2010&p=.htm">#401&#150;500</a> - <a href="/yearly/chart/?page=6&view=releasedate&view2=domestic&yr=2010&p=.htm">#501&#150;536</a></b></font></center><table border="0" cellspacing="0" cellpadding="0"><tr><td valign="bottom"><font face="Verdana" size="1"><b><a href="/yearly/chart/?yr=2009&view=releasedate&view2=domestic&sort=gross&order=DESC&&p=.htm">&lt; Previous Year</a></b></font></td><td align="center"><table border="0" cellspacing="0" cellpadding="0">\n\t\t\t\t\t<form method="POST" action="yearly.asof.php" name="asofjump">\n\t\t\t\t\t<tr><td><font face="Verdana" size="1"><br>Data as of:\n\t\t\t\t\t<select size="1" name="asof" style="font-size: 8pt">\n\t\t\t\t\t<option selected value="today">Today</option>\n\t\t\t\t\t<option  value="sametime">Today in 2010</option>\n\t\t\t\t\t<option value="2010-01-31">Jan. 31, 2010</option>\n\t\t\t\t\t<option value="2010-02-28">Feb. 28, 2010</option>\n\t\t\t\t\t<option value="2010-03-31">Mar. 31, 2010</option>\n\t\t\t\t\t<option value="2010-04-30">Apr. 30, 2010</option>\n\t\t\t\t\t<option value="2010-05-31">May 31, 2010</option>\n\t\t\t\t\t<option value="2010-06-30">Jun. 30, 2010</option>\n\t\t\t\t\t<option value="2010-07-31">Jul. 31, 2010</option>\n\t\t\t\t\t<option value="2010-08-31">Aug. 31, 2010</option>\n\t\t\t\t\t<option value="2010-09-30">Sep. 30, 2010</option>\n\t\t\t\t\t<option value="2010-10-31">Oct. 31, 2010</option>\n\t\t\t\t\t<option value="2010-11-30">Nov. 30, 2010</option>\n\t\t\t\t\t<option value="2010-12-31">Dec. 31, 2010</option>\n\t\t\t\t\t<option value="specify">Specify Date</option>\n\t\t\t\t\t<option value="about">About this feature</option>\n\t\t\t\t\t</select> or (<select size="1" name="asof_mo" style="font-size: 8pt">\n\t\t\t\t\t<option selected value="">Month</option>\n\t\t\t\t\t\n\t\t\t\t\t<option value="01">Jan.</option>\n\t\t\t\t\t<option value="02">Feb.</option>\n\t\t\t\t\t<option value="03">Mar.</option>\n\t\t\t\t\t<option value="04">Apr.</option>\n\t\t\t\t\t<option value="05">May</option>\n\t\t\t\t\t<option value="06">Jun.</option>\n\t\t\t\t\t<option value="07">Jul.</option>\n\t\t\t\t\t<option value="08">Aug.</option>\n\t\t\t\t\t<option value="09">Sep.</option>\n\t\t\t\t\t<option value="10">Oct.</option>\n\t\t\t\t\t<option value="11">Nov.</option>\n\t\t\t\t\t<option value="12">Dec.</option>\n\t\t\t\t\t</select> / <select size="1" name="asof_day" style="font-size: 8pt">\n\t\t\t\t\t<option selected value="">Day</option>\n\t\t\t\t\t<option value="01">1</option>\n\t\t\t\t\t<option value="02">2</option>\n\t\t\t\t\t<option value="03">3</option>\n\t\t\t\t\t<option value="04">4</option>\n\t\t\t\t\t<option value="05">5</option>\n\t\t\t\t\t<option value="06">6</option>\n\t\t\t\t\t<option value="07">7</option>\n\t\t\t\t\t<option value="08">8</option>\n\t\t\t\t\t<option value="09">9</option>\n\t\t\t\t\t<option value="10">10</option>\n\t\t\t\t\t<option value="11">11</option>\n\t\t\t\t\t<option value="12">12</option>\n\t\t\t\t\t<option value="13">13</option>\n\t\t\t\t\t<option value="14">14</option>\n\t\t\t\t\t<option value="15">15</option>\n\t\t\t\t\t<option value="16">16</option>\n\t\t\t\t\t<option value="17">17</option>\n\t\t\t\t\t<option value="18">18</option>\n\t\t\t\t\t<option value="19">19</option>\n\t\t\t\t\t<option value="20">20</option>\n\t\t\t\t\t<option value="21">21</option>\n\t\t\t\t\t<option value="22">22</option>\n\t\t\t\t\t<option value="23">23</option>\n\t\t\t\t\t<option value="24">24</option>\n\t\t\t\t\t<option value="25">25</option>\n\t\t\t\t\t<option value="26">26</option>\n\t\t\t\t\t<option value="27">27</option>\n\t\t\t\t\t<option value="28">28</option>\n\t\t\t\t\t<option value="29">29</option>\n\t\t\t\t\t<option value="30">30</option>\n\t\t\t\t\t<option value="31">31</option>\n\t\t\t\t\t</select> / <select size="1" name="asof_yr" style="font-size: 8pt">\n\t\t\t\t\t\t<option selected>2010</option>\n\t\t\t\t\t\t<option>2011</option>\n\t\t\t\t\t\t</select>) <input type="submit" value="Go" name="go" style="font-size: 8pt; height: 16">\n\t\t\t\t\t</font></td></tr>\n\t\t\t\t\t<input type="hidden" name="jumpstuff" value="view=releasedate&view2=domestic&yr=2010&sort=gross&order=DESC&p=.htm">\n\t\t\t\t\t<input type="hidden" name="curasof" value="today">\n\t\t\t\t\t<input type="hidden" name="yr" value="2010">\n\t\t\t\t\t</form>\n\t\t\t\t\t</table>\n\t\t\t\t</font></td><td valign="bottom" align="right"><font face="Verdana" size="1"><b><a href="/yearly/chart/?yr=2011&view=releasedate&view2=domestic&sort=gross&order=DESC&&p=.htm">Next Year &gt;</a></b></font></td></tr><tr><td colspan="3"><table border="0" cellspacing="1" cellpadding="5" bgcolor="#ffffff"><tr bgcolor="#dcdcdc"><td align="center"><font size="2"><a href="/yearly/chart/?view=releasedate&view2=domestic&yr=2010&sort=gross&order=ASC&p=.htm"><b>Rank</b></a></font></td><td align="center"><font size="2"><a href="/yearly/chart/?view=releasedate&view2=domestic&yr=2010&sort=title&order=ASC&p=.htm">Movie Title (click to view)</a></font></td><td align="center"><font size="2"><a href="/yearly/chart/?view=releasedate&view2=domestic&yr=2010&sort=studio&order=ASC&p=.htm">Studio</a><br><script language="javascript">\r\nfunction MojoDrop1() {\r\nvar number = document.MojoDropDown1.mojolinks1.selectedIndex;location.href = document.MojoDropDown1.mojolinks1.options[number].value;}</script>\r\n<table border="0" cellspacing="0" cellpadding="0">\r\n<form name="MojoDropDown1"><tr><td>\r\n<select name="mojolinks1" style="font-family: Verdana; font-size: 8pt" onChange="MojoDrop1(this.form)">\r\n<option>Filter</option><option value="/yearly/chart/?view=releasedate&view2=domestic&yr=2010&sort=gross&order=DESC&studio=3dentertainment.htm">3D</option>\r\n<option value="/yearly/chart/?view=releasedate&view2=domestic&yr=2010&sort=gross&order=DESC&studio=fiveandtwo.htm">5&amp;2</option>\r\n<option value="/yearly/chart/?view=releasedate&view2=domestic&yr=2010&sort=gross&order=DESC&studio=757releasing.htm">7-57</option>\r\n<option value="/yearly/chart/?view=releasedate&view2=domestic&yr=2010&sort=gross&order=DESC&studio=sevenartsdistribution.htm">7Arts</option>\r\n<option value="/yearly/chart/?view=releasedate&view2=domestic&yr=2010&sort=gross&order=DESC&studio=8x.htm">8X</option>\r\n<option value="/yearly/chart/?view=releasedate&view2=domestic&yr=2010&sort=gross&order=DESC&studio=artigoajemian.htm">A/A</option>\r\n<option value="/yearly/chart/?view=releasedate&view2=domestic&yr=2010&sort=gross&order=DESC&studio=area23a.htm">A23</option>\r\n<option value="/yearly/chart/?view=releasedate&view2=domestic&yr=2010&sort=gross&order=DESC&studio=abramorama.htm">Abr.</option>\r\n<option value="/yearly/chart/?view=releasedate&view2=domestic&yr=2010&sort=gross&order=DESC&studio=anchorbayentertainment.htm">Anch.</option>\r\n<option value="/yearly/chart/?view=releasedate&view2=domestic&yr=2010&sort=gross&order=DESC&studio=apparition.htm">App.</option>\r\n<option value="/yearly/chart/?view=releasedate&view2=domestic&yr=2010&sort=gross&order=DESC&studio=allrise.htm">ARF</option>\r\n<option value="/yearly/chart/?view=releasedate&view2=domestic&yr=2010&sort=gross&order=DESC&studio=argotpictures.htm">Argo.</option>\r\n<option value="/yearly/chart/?view=releasedate&view2=domestic&yr=2010&sort=gross&order=DESC&studio=arthousefilms.htm">Arth.</option>\r\n<option value="/yearly/chart/?view=releasedate&view2=domestic&yr=2010&sort=gross&order=DESC&studio=atopictures.htm">ATO</option>\r\n<option value="/yearly/chart/?view=releasedate&view2=domestic&yr=2010&sort=gross&order=DESC&studio=balcony.htm">Bal.</option>\r\n<option value="/yearly/chart/?view=releasedate&view2=domestic&yr=2010&sort=gross&order=DESC&studio=bluecollar.htm">BCR</option>\r\n<option value="/yearly/chart/?view=releasedate&view2=domestic&yr=2010&sort=gross&order=DESC&studio=buenavista.htm">BV</option>\r\n<option value="/yearly/chart/?view=releasedate&view2=domestic&yr=2010&sort=gross&order=DESC&studio=cbsfilms.htm">CBS</option>\r\n<option value="/yearly/chart/?view=releasedate&view2=domestic&yr=2010&sort=gross&order=DESC&studio=cabinfilms.htm">CF</option>\r\n<option value="/yearly/chart/?view=releasedate&view2=domestic&yr=2010&sort=gross&order=DESC&studio=cfireleasing.htm">CFI</option>\r\n<option value="/yearly/chart/?view=releasedate&view2=domestic&yr=2010&sort=gross&order=DESC&studio=cinemaguild.htm">CGld</option>\r\n<option value="/yearly/chart/?view=releasedate&view2=domestic&yr=2010&sort=gross&order=DESC&studio=cjentertainment.htm">CJ</option>\r\n<option value="/yearly/chart/?view=releasedate&view2=domestic&yr=2010&sort=gross&order=DESC&studio=chinalion.htm">CL</option>\r\n<option value="/yearly/chart/?view=releasedate&view2=domestic&yr=2010&sort=gross&order=DESC&studio=columbia.htm">Col.</option>\r\n<option value="/yearly/chart/?view=releasedate&view2=domestic&yr=2010&sort=gross&order=DESC&studio=cinemapurgatorio.htm">CP</option>\r\n<option value="/yearly/chart/?view=releasedate&view2=domestic&yr=2010&sort=gross&order=DESC&studio=clayway.htm">CWM</option>\r\n<option value="/yearly/chart/?view=releasedate&view2=domestic&yr=2010&sort=gross&order=DESC&studio=canzion.htm">CZ</option>\r\n<option value="/yearly/chart/?view=releasedate&view2=domestic&yr=2010&sort=gross&order=DESC&studio=dada.htm">Da.</option>\r\n<option value="/yearly/chart/?view=releasedate&view2=domestic&yr=2010&sort=gross&order=DESC&studio=" selected>Dar.</option>\r\n<option value="/yearly/chart/?view=releasedate&view2=domestic&yr=2010&sort=gross&order=DESC&studio=delawarepictures.htm">Del.</option>\r\n<option value="/yearly/chart/?view=releasedate&view2=domestic&yr=2010&sort=gross&order=DESC&studio=drafthousefilms.htm">Drft.</option>\r\n<option value="/yearly/chart/?view=releasedate&view2=domestic&yr=2010&sort=gross&order=DESC&studio=drivingwithoureyesshut.htm">DWOES</option>\r\n<option value="/yearly/chart/?view=releasedate&view2=domestic&yr=2010&sort=gross&order=DESC&studio=e1entertainment.htm">E1</option>\r\n<option value="/yearly/chart/?view=releasedate&view2=domestic&yr=2010&sort=gross&order=DESC&studio=elevenarts.htm">Elev.</option>\r\n<option value="/yearly/chart/?view=releasedate&view2=domestic&yr=2010&sort=gross&order=DESC&studio=embrem.htm">Embr.</option>\r\n<option value="/yearly/chart/?view=releasedate&view2=domestic&yr=2010&sort=gross&order=DESC&studio=eros.htm">Eros</option>\r\n<option value="/yearly/chart/?view=releasedate&view2=domestic&yr=2010&sort=gross&order=DESC&studio=flickeralley.htm">FA</option>\r\n<option value="/yearly/chart/?view=releasedate&view2=domestic&yr=2010&sort=gross&order=DESC&studio=thefilmdesk.htm">FDesk</option>\r\n<option value="/yearly/chart/?view=releasedate&view2=domestic&yr=2010&sort=gross&order=DESC&studio=firstindependentpictures.htm">FInd.</option>\r\n<option value="/yearly/chart/?view=releasedate&view2=domestic&yr=2010&sort=gross&order=DESC&studio=firstlook.htm">First</option>\r\n<option value="/yearly/chart/?view=releasedate&view2=domestic&yr=2010&sort=gross&order=DESC&studio=flashlightfilms.htm">FLF</option>\r\n<option value="/yearly/chart/?view=releasedate&view2=domestic&yr=2010&sort=gross&order=DESC&studio=filmmovement.htm">FM</option>\r\n<option value="/yearly/chart/?view=releasedate&view2=domestic&yr=2010&sort=gross&order=DESC&studio=foak.htm">FOAK</option>\r\n<option value="/yearly/chart/?view=releasedate&view2=domestic&yr=2010&sort=gross&order=DESC&studio=focus.htm">Focus</option>\r\n<option value="/yearly/chart/?view=releasedate&view2=domestic&yr=2010&sort=gross&order=DESC&studio=fox.htm">Fox</option>\r\n<option value="/yearly/chart/?view=releasedate&view2=domestic&yr=2010&sort=gross&order=DESC&studio=foxsearchlight.htm">FoxS</option>\r\n<option value="/yearly/chart/?view=releasedate&view2=domestic&yr=2010&sort=gross&order=DESC&studio=freestyle.htm">Free</option>\r\n<option value="/yearly/chart/?view=releasedate&view2=domestic&yr=2010&sort=gross&order=DESC&studio=firstrun.htm">FRun</option>\r\n<option value="/yearly/chart/?view=releasedate&view2=domestic&yr=2010&sort=gross&order=DESC&studio=gkids.htm">GK</option>\r\n<option value="/yearly/chart/?view=releasedate&view2=domestic&yr=2010&sort=gross&order=DESC&studio=samuelgoldwyn.htm">Gold.</option>\r\n<option value="/yearly/chart/?view=releasedate&view2=domestic&yr=2010&sort=gross&order=DESC&studio=hannoverhouse.htm">Hann.</option>\r\n<option value="/yearly/chart/?view=releasedate&view2=domestic&yr=2010&sort=gross&order=DESC&studio=intlfilmcircuit.htm">ICir</option>\r\n<option value="/yearly/chart/?view=releasedate&view2=domestic&yr=2010&sort=gross&order=DESC&studio=ifc.htm">IFC</option>\r\n<option value="/yearly/chart/?view=releasedate&view2=domestic&yr=2010&sort=gross&order=DESC&studio=imageentertainment.htm">Imag.</option>\r\n<option value="/yearly/chart/?view=releasedate&view2=domestic&yr=2010&sort=gross&order=DESC&studio=indican.htm">Indic.</option>\r\n<option value="/yearly/chart/?view=releasedate&view2=domestic&yr=2010&sort=gross&order=DESC&studio=indievestpictures.htm">IVP</option>\r\n<option value="/yearly/chart/?view=releasedate&view2=domestic&yr=2010&sort=gross&order=DESC&studio=industryworks.htm">IW</option>\r\n<option value="/yearly/chart/?view=releasedate&view2=domestic&yr=2010&sort=gross&order=DESC&studio=janusfilms.htm">Jan.</option>\r\n<option value="/yearly/chart/?view=releasedate&view2=domestic&yr=2010&sort=gross&order=DESC&studio=jsmedia.htm">JS</option>\r\n<option value="/yearly/chart/?view=releasedate&view2=domestic&yr=2010&sort=gross&order=DESC&studio=kino.htm">Kino</option>\r\n<option value="/yearly/chart/?view=releasedate&view2=domestic&yr=2010&sort=gross&order=DESC&studio=lionsgate.htm">LGF</option>\r\n<option value="/yearly/chart/?view=releasedate&view2=domestic&yr=2010&sort=gross&order=DESC&studio=cinemalibre.htm">Libre</option>\r\n<option value="/yearly/chart/?view=releasedate&view2=domestic&yr=2010&sort=gross&order=DESC&studio=lorberfilms.htm">Lorb.</option>\r\n<option value="/yearly/chart/?view=releasedate&view2=domestic&yr=2010&sort=gross&order=DESC&studio=macreleasing.htm">MAC</option>\r\n<option value="/yearly/chart/?view=releasedate&view2=domestic&yr=2010&sort=gross&order=DESC&studio=magnolia.htm">Magn.</option>\r\n<option value="/yearly/chart/?view=releasedate&view2=domestic&yr=2010&sort=gross&order=DESC&studio=mangustaproductions.htm">Mang.</option>\r\n<option value="/yearly/chart/?view=releasedate&view2=domestic&yr=2010&sort=gross&order=DESC&studio=musicboxfilms.htm">MBox</option>\r\n<option value="/yearly/chart/?view=releasedate&view2=domestic&yr=2010&sort=gross&order=DESC&studio=madhuentertainment.htm">ME</option>\r\n<option value="/yearly/chart/?view=releasedate&view2=domestic&yr=2010&sort=gross&order=DESC&studio=macgillivrayfreeman.htm">MFF</option>\r\n<option value="/yearly/chart/?view=releasedate&view2=domestic&yr=2010&sort=gross&order=DESC&studio=mgm.htm">MGM</option>\r\n<option value="/yearly/chart/?view=releasedate&view2=domestic&yr=2010&sort=gross&order=DESC&studio=milestone.htm">Mile.</option>\r\n<option value="/yearly/chart/?view=releasedate&view2=domestic&yr=2010&sort=gross&order=DESC&studio=miramax.htm">Mira.</option>\r\n<option value="/yearly/chart/?view=releasedate&view2=domestic&yr=2010&sort=gross&order=DESC&studio=montereymediainc.htm">Mont.</option>\r\n<option value="/yearly/chart/?view=releasedate&view2=domestic&yr=2010&sort=gross&order=DESC&studio=movingpictures.htm">MP</option>\r\n<option value="/yearly/chart/?view=releasedate&view2=domestic&yr=2010&sort=gross&order=DESC&studio=mpimediagroup.htm">MPI</option>\r\n<option value="/yearly/chart/?view=releasedate&view2=domestic&yr=2010&sort=gross&order=DESC&studio=morningstar.htm">MSP</option>\r\n<option value="/yearly/chart/?view=releasedate&view2=domestic&yr=2010&sort=gross&order=DESC&studio=mountaintopreleasing.htm">MTop</option>\r\n<option value="/yearly/chart/?view=releasedate&view2=domestic&yr=2010&sort=gross&order=DESC&studio=unknown.htm">N/A</option>\r\n<option value="/yearly/chart/?view=releasedate&view2=domestic&yr=2010&sort=gross&order=DESC&studio=newamericanvision.htm">NAV</option>\r\n<option value="/yearly/chart/?view=releasedate&view2=domestic&yr=2010&sort=gross&order=DESC&studio=neteffect.htm">NEM</option>\r\n<option value="/yearly/chart/?view=releasedate&view2=domestic&yr=2010&sort=gross&order=DESC&studio=newfilmscinema.htm">NFC</option>\r\n<option value="/yearly/chart/?view=releasedate&view2=domestic&yr=2010&sort=gross&order=DESC&studio=nationalgeographiccinema.htm">NGE</option>\r\n<option value="/yearly/chart/?view=releasedate&view2=domestic&yr=2010&sort=gross&order=DESC&studio=newmarket.htm">NM</option>\r\n<option value="/yearly/chart/?view=releasedate&view2=domestic&yr=2010&sort=gross&order=DESC&studio=nocturnalfeatures.htm">Noct.</option>\r\n<option value="/yearly/chart/?view=releasedate&view2=domestic&yr=2010&sort=gross&order=DESC&studio=npp.htm">NPP</option>\r\n<option value="/yearly/chart/?view=releasedate&view2=domestic&yr=2010&sort=gross&order=DESC&studio=newyorker.htm">NYer</option>\r\n<option value="/yearly/chart/?view=releasedate&view2=domestic&yr=2010&sort=gross&order=DESC&studio=original4.htm">O4</option>\r\n<option value="/yearly/chart/?view=releasedate&view2=domestic&yr=2010&sort=gross&order=DESC&studio=olivefilms.htm">Olive</option>\r\n<option value="/yearly/chart/?view=releasedate&view2=domestic&yr=2010&sort=gross&order=DESC&studio=oscilloscopepictures.htm">Osci.</option>\r\n<option value="/yearly/chart/?view=releasedate&view2=domestic&yr=2010&sort=gross&order=DESC&studio=overturefilms.htm">Over.</option>\r\n<option value="/yearly/chart/?view=releasedate&view2=domestic&yr=2010&sort=gross&order=DESC&studio=pardw.htm">P/DW</option>\r\n<option value="/yearly/chart/?view=releasedate&view2=domestic&yr=2010&sort=gross&order=DESC&studio=phase4.htm">P4</option>\r\n<option value="/yearly/chart/?view=releasedate&view2=domestic&yr=2010&sort=gross&order=DESC&studio=paladin.htm">Pala.</option>\r\n<option value="/yearly/chart/?view=releasedate&view2=domestic&yr=2010&sort=gross&order=DESC&studio=paramount.htm">Par.</option>\r\n<option value="/yearly/chart/?view=releasedate&view2=domestic&yr=2010&sort=gross&order=DESC&studio=paramountvantage.htm">ParV</option>\r\n<option value="/yearly/chart/?view=releasedate&view2=domestic&yr=2010&sort=gross&order=DESC&studio=peacheschrist.htm">PC</option>\r\n<option value="/yearly/chart/?view=releasedate&view2=domestic&yr=2010&sort=gross&order=DESC&studio=pda.htm">PDA</option>\r\n<option value="/yearly/chart/?view=releasedate&view2=domestic&yr=2010&sort=gross&order=DESC&studio=peoplepictures.htm">PP</option>\r\n<option value="/yearly/chart/?view=releasedate&view2=domestic&yr=2010&sort=gross&order=DESC&studio=roadsideattractions.htm">RAtt.</option>\r\n<option value="/yearly/chart/?view=releasedate&view2=domestic&yr=2010&sort=gross&order=DESC&studio=realbean.htm">RB</option>\r\n<option value="/yearly/chart/?view=releasedate&view2=domestic&yr=2010&sort=gross&order=DESC&studio=rainbowfilms.htm">RBF</option>\r\n<option value="/yearly/chart/?view=releasedate&view2=domestic&yr=2010&sort=gross&order=DESC&studio=reeldivaconsultants.htm">ReelD</option>\r\n<option value="/yearly/chart/?view=releasedate&view2=domestic&yr=2010&sort=gross&order=DESC&studio=regent.htm">Reg.</option>\r\n<option value="/yearly/chart/?view=releasedate&view2=domestic&yr=2010&sort=gross&order=DESC&studio=rippleeffect.htm">REI</option>\r\n<option value="/yearly/chart/?view=releasedate&view2=domestic&yr=2010&sort=gross&order=DESC&studio=relativity.htm">Rela.</option>\r\n<option value="/yearly/chart/?view=releasedate&view2=domestic&yr=2010&sort=gross&order=DESC&studio=reliancebigpictures.htm">Relbig.</option>\r\n<option value="/yearly/chart/?view=releasedate&view2=domestic&yr=2010&sort=gross&order=DESC&studio=redflag.htm">RF</option>\r\n<option value="/yearly/chart/?view=releasedate&view2=domestic&yr=2010&sort=gross&order=DESC&studio=rialto.htm">Rialto</option>\r\n<option value="/yearly/chart/?view=releasedate&view2=domestic&yr=2010&sort=gross&order=DESC&studio=rockymountainpictures.htm">RM</option>\r\n<option value="/yearly/chart/?view=releasedate&view2=domestic&yr=2010&sort=gross&order=DESC&studio=roguepictures.htm">Rog.</option>\r\n<option value="/yearly/chart/?view=releasedate&view2=domestic&yr=2010&sort=gross&order=DESC&studio=rockstone.htm">RR</option>\r\n<option value="/yearly/chart/?view=releasedate&view2=domestic&yr=2010&sort=gross&order=DESC&studio=revolverentertainment.htm">Rvl</option>\r\n<option value="/yearly/chart/?view=releasedate&view2=domestic&yr=2010&sort=gross&order=DESC&studio=screenmedia.htm">Scre.</option>\r\n<option value="/yearly/chart/?view=releasedate&view2=domestic&yr=2010&sort=gross&order=DESC&studio=screengems.htm">SGem</option>\r\n<option value="/yearly/chart/?view=releasedate&view2=domestic&yr=2010&sort=gross&order=DESC&studio=shadow.htm">Shad.</option>\r\n<option value="/yearly/chart/?view=releasedate&view2=domestic&yr=2010&sort=gross&order=DESC&studio=worldaccordingtoshorts.htm">Shorts</option>\r\n<option value="/yearly/chart/?view=releasedate&view2=domestic&yr=2010&sort=gross&order=DESC&studio=shortsinternational.htm">Shrts.</option>\r\n<option value="/yearly/chart/?view=releasedate&view2=domestic&yr=2010&sort=gross&order=DESC&studio=saintjuste.htm">SJI</option>\r\n<option value="/yearly/chart/?view=releasedate&view2=domestic&yr=2010&sort=gross&order=DESC&studio=sony.htm">Sony</option>\r\n<option value="/yearly/chart/?view=releasedate&view2=domestic&yr=2010&sort=gross&order=DESC&studio=sonyclassics.htm">SPC</option>\r\n<option value="/yearly/chart/?view=releasedate&view2=domestic&yr=2010&sort=gross&order=DESC&studio=strand.htm">Strand</option>\r\n<option value="/yearly/chart/?view=releasedate&view2=domestic&yr=2010&sort=gross&order=DESC&studio=summitentertainment.htm">Sum.</option>\r\n<option value="/yearly/chart/?view=releasedate&view2=domestic&yr=2010&sort=gross&order=DESC&studio=filmcollaborative.htm">TFC</option>\r\n<option value="/yearly/chart/?view=releasedate&view2=domestic&yr=2010&sort=gross&order=DESC&studio=tla.htm">TLA</option>\r\n<option value="/yearly/chart/?view=releasedate&view2=domestic&yr=2010&sort=gross&order=DESC&studio=trulyindie.htm">Truly</option>\r\n<option value="/yearly/chart/?view=releasedate&view2=domestic&yr=2010&sort=gross&order=DESC&studio=universal.htm">Uni.</option>\r\n<option value="/yearly/chart/?view=releasedate&view2=domestic&yr=2010&sort=gross&order=DESC&studio=utv.htm">UTV</option>\r\n<option value="/yearly/chart/?view=releasedate&view2=domestic&yr=2010&sort=gross&order=DESC&studio=variancefilms.htm">Vari.</option>\r\n<option value="/yearly/chart/?view=releasedate&view2=domestic&yr=2010&sort=gross&order=DESC&studio=vitagraph.htm">Vita.</option>\r\n<option value="/yearly/chart/?view=releasedate&view2=domestic&yr=2010&sort=gross&order=DESC&studio=vivendientertainment.htm">Viv.</option>\r\n<option value="/yearly/chart/?view=releasedate&view2=domestic&yr=2010&sort=gross&order=DESC&studio=wdimension.htm">W/Dim.</option>\r\n<option value="/yearly/chart/?view=releasedate&view2=domestic&yr=2010&sort=gross&order=DESC&studio=warnerbros.htm">WB</option>\r\n<option value="/yearly/chart/?view=releasedate&view2=domestic&yr=2010&sort=gross&order=DESC&studio=wb-newline.htm">WB (NL)</option>\r\n<option value="/yearly/chart/?view=releasedate&view2=domestic&yr=2010&sort=gross&order=DESC&studio=weinsteincompany.htm">Wein.</option>\r\n<option value="/yearly/chart/?view=releasedate&view2=domestic&yr=2010&sort=gross&order=DESC&studio=winterstar.htm">Wint.</option>\r\n<option value="/yearly/chart/?view=releasedate&view2=domestic&yr=2010&sort=gross&order=DESC&studio=internationalwow.htm">WOW</option>\r\n<option value="/yearly/chart/?view=releasedate&view2=domestic&yr=2010&sort=gross&order=DESC&studio=yashraj.htm">Yash</option>\r\n<option value="/yearly/chart/?view=releasedate&view2=domestic&yr=2010&sort=gross&order=DESC&studio=zeitgeist.htm">Zeit.</option>\r\n<option value="/yearly/chart/?view=releasedate&view2=domestic&yr=2010&sort=gross&order=DESC&studio=zipporahfilms.htm">Zipp.</option>\r\n<option value="/yearly/chart/?view=releasedate&view2=domestic&yr=2010&sort=gross&order=DESC&p=.htm">ALL</option>\r\n</select></td></tr></form></table><a></a></font></td><td align="center" colspan="2"><font size="2"><a href="/yearly/chart/?view=releasedate&view2=domestic&yr=2010&sort=gross&order=ASC&p=.htm"><b>Total Gross</b></a> / </font><font size="2"><a href="/yearly/chart/?view=releasedate&view2=domestic&yr=2010&sort=theaters&order=DESC&p=.htm">Theaters</a></font></td><td align="center" colspan="2"><font size="2"><a href="/yearly/chart/?view=releasedate&view2=domestic&yr=2010&sort=opengross&order=DESC&p=.htm">Opening</a> / </font><font size="2"><a href="/yearly/chart/?view=releasedate&view2=domestic&yr=2010&sort=opentheaters&order=DESC&p=.htm">Theaters</a></font></td><td align="center"><font size="2"><a href="/yearly/chart/?view=releasedate&view2=domestic&yr=2010&sort=open&order=DESC&p=.htm">Open</a></font></td><td align="center"><font size="2"><a href="/yearly/chart/?view=releasedate&view2=domestic&yr=2010&sort=close&order=DESC&p=.htm">Close</a></font></td></tr><tr bgcolor="#ffffff"><td align="center"><font size="2">101</font></td><td><b><font size="2"><a href="/movies/?id=ramona.htm">Ramona and Beezus</a></font></b></td><td><font size="2"><a href="/studio/chart/?studio=fox.htm">Fox</a></font></td><td align="right"><font size="2"><b>$26,167,002</b></font></td><td align="right"><font size="2">2,719</font></td><td align="right"><font size="2">$7,810,481</font></td><td align="right"><font size="2">2,719</font></td><td align="right"><font size="2"><a href="/schedule/?view=bydate&release=theatrical&date=2010-07-23&p=.htm">7/23</a></font></td><td align="right"><font size="2">11/11</font></td></tr><tr bgcolor="#f4f4ff"><td align="center"><font size="2">102</font></td><td><b><font size="2"><a href="/movies/?id=leapyear.htm">Leap Year</a></font></b></td><td><font size="2"><a href="/studio/chart/?studio=universal.htm">Uni.</a></font></td><td align="right"><font size="2"><b>$25,918,920</b></font></td><td align="right"><font size="2">2,512</font></td><td align="right"><font size="2">$9,202,815</font></td><td align="right"><font size="2">2,511</font></td><td align="right"><font size="2"><a href="/schedule/?view=bydate&release=theatrical&date=2010-01-08&p=.htm">1/8</a></font></td><td align="right"><font size="2">3/4</font></td></tr><tr bgcolor="#ffffff"><td align="center"><font size="2">103</font></td><td><b><font size="2"><a href="/movies/?id=youagain.htm">You Again</a></font></b></td><td><font size="2"><a href="/studio/chart/?studio=buenavista.htm">BV</a></font></td><td align="right"><font size="2"><b>$25,702,053</b></font></td><td align="right"><font size="2">2,548</font></td><td align="right"><font size="2">$8,407,513</font></td><td align="right"><font size="2">2,548</font></td><td align="right"><font size="2"><a href="/schedule/?view=bydate&release=theatrical&date=2010-09-24&p=.htm">9/24</a></font></td><td align="right"><font size="2">12/16</font></td></tr><tr bgcolor="#f4f4ff"><td align="center"><font size="2">104</font></td><td><b><font size="2"><a href="/movies/?id=alphaandomega.htm">Alpha and Omega</a></font></b></td><td><font size="2"><a href="/studio/chart/?studio=lionsgate.htm">LGF</a></font></td><td align="right"><font size="2"><b>$25,107,267</b></font></td><td align="right"><font size="2">2,625</font></td><td align="right"><font size="2">$9,106,906</font></td><td align="right"><font size="2">2,625</font></td><td align="right"><font size="2"><a href="/schedule/?view=bydate&release=theatrical&date=2010-09-17&p=.htm">9/17</a></font></td><td align="right"><font size="2">12/2</font></td></tr><tr bgcolor="#ffffff"><td align="center"><font size="2">105</font></td><td><b><font size="2"><a href="/movies/?id=piranha3d.htm">Piranha 3D</a></font></b></td><td><font size="2"><a href="/studio/chart/?studio=wdimension.htm">W/Dim.</a></font></td><td align="right"><font size="2"><b>$25,003,155</b></font></td><td align="right"><font size="2">2,491</font></td><td align="right"><font size="2">$10,106,872</font></td><td align="right"><font size="2">2,470</font></td><td align="right"><font size="2"><a href="/schedule/?view=bydate&release=theatrical&date=2010-08-20&p=.htm">8/20</a></font></td><td align="right"><font size="2">11/18</font></td></tr><tr bgcolor="#f4f4ff"><td align="center"><font size="2">106</font></td><td><b><font size="2"><a href="/movies/?id=lotteryticket.htm">Lottery Ticket</a></font></b></td><td><font size="2"><a href="/studio/chart/?studio=warnerbros.htm">WB</a></font></td><td align="right"><font size="2"><b>$24,719,879</b></font></td><td align="right"><font size="2">1,974</font></td><td align="right"><font size="2">$10,652,297</font></td><td align="right"><font size="2">1,973</font></td><td align="right"><font size="2"><a href="/schedule/?view=bydate&release=theatrical&date=2010-08-20&p=.htm">8/20</a></font></td><td align="right"><font size="2">11/4</font></td></tr><tr bgcolor="#ffffff"><td align="center"><font size="2">107</font></td><td><b><font size="2"><a href="/movies/?id=spynextdoor.htm">The Spy Next Door</a></font></b></td><td><font size="2"><a href="/studio/chart/?studio=lionsgate.htm">LGF</a></font></td><td align="right"><font size="2"><b>$24,307,086</b></font></td><td align="right"><font size="2">2,924</font></td><td align="right"><font size="2">$9,726,056</font></td><td align="right"><font size="2">2,924</font></td><td align="right"><font size="2"><a href="/schedule/?view=bydate&release=theatrical&date=2010-01-15&p=.htm">1/15</a></font></td><td align="right"><font size="2">3/4</font></td></tr><tr bgcolor="#f4f4ff"><td align="center"><font size="2">108</font></td><td><b><font size="2"><a href="/movies/?id=frompariswithlove.htm">From Paris with Love</a></font></b></td><td><font size="2"><a href="/studio/chart/?studio=lionsgate.htm">LGF</a></font></td><td align="right"><font size="2"><b>$24,077,427</b></font></td><td align="right"><font size="2">2,722</font></td><td align="right"><font size="2">$8,158,860</font></td><td align="right"><font size="2">2,722</font></td><td align="right"><font size="2"><a href="/schedule/?view=bydate&release=theatrical&date=2010-02-05&p=.htm">2/5</a></font></td><td align="right"><font size="2">3/11</font></td></tr><tr bgcolor="#ffffff"><td align="center"><font size="2">109</font></td><td><b><font size="2"><a href="/movies/?id=losers.htm">The Losers</a></font></b></td><td><font size="2"><a href="/studio/chart/?studio=warnerbros.htm">WB</a></font></td><td align="right"><font size="2"><b>$23,591,432</b></font></td><td align="right"><font size="2">2,936</font></td><td align="right"><font size="2">$9,406,348</font></td><td align="right"><font size="2">2,936</font></td><td align="right"><font size="2"><a href="/schedule/?view=bydate&release=theatrical&date=2010-04-23&p=.htm">4/23</a></font></td><td align="right"><font size="2">6/24</font></td></tr><tr bgcolor="#f4f4ff"><td align="center"><font size="2">110</font></td><td><b><font size="2"><a href="/movies/?id=faster10.htm">Faster</a></font></b></td><td><font size="2"><a href="/studio/chart/?studio=cbsfilms.htm">CBS</a></font></td><td align="right"><font size="2"><b>$23,240,020</b></font></td><td align="right"><font size="2">2,470</font></td><td align="right"><font size="2">$8,523,153</font></td><td align="right"><font size="2">2,454</font></td><td align="right"><font size="2"><a href="/schedule/?view=bydate&release=theatrical&date=2010-11-24&p=.htm">11/24</a></font></td><td align="right"><font size="2">2/10</font></td></tr><tr bgcolor="#ffffff"><td align="center"><font size="2">111</font></td><td><b><font size="2"><a href="/movies/?id=justwright.htm">Just Wright</a></font></b></td><td><font size="2"><a href="/studio/chart/?studio=foxsearchlight.htm">FoxS</a></font></td><td align="right"><font size="2"><b>$21,540,363</b></font></td><td align="right"><font size="2">1,831</font></td><td align="right"><font size="2">$8,284,989</font></td><td align="right"><font size="2">1,831</font></td><td align="right"><font size="2"><a href="/schedule/?view=bydate&release=theatrical&date=2010-05-14&p=.htm">5/14</a></font></td><td align="right"><font size="2">8/5</font></td></tr><tr bgcolor="#f4f4ff"><td align="center"><font size="2">112</font></td><td><b><font size="2"><a href="/movies/?id=skyline.htm">Skyline</a></font></b></td><td><font size="2"><a href="/studio/chart/?studio=universal.htm">Uni.</a></font></td><td align="right"><font size="2"><b>$21,393,620</b></font></td><td align="right"><font size="2">2,883</font></td><td align="right"><font size="2">$11,692,415</font></td><td align="right"><font size="2">2,880</font></td><td align="right"><font size="2"><a href="/schedule/?view=bydate&release=theatrical&date=2010-11-12&p=.htm">11/12</a></font></td><td align="right"><font size="2">12/21</font></td></tr><tr bgcolor="#ffffff"><td align="center"><font size="2">113</font></td><td><b><font size="2"><a href="/movies/?id=nextthreedays.htm">The Next Three Days</a></font></b></td><td><font size="2"><a href="/studio/chart/?studio=lionsgate.htm">LGF</a></font></td><td align="right"><font size="2"><b>$21,148,651</b></font></td><td align="right"><font size="2">2,564</font></td><td align="right"><font size="2">$6,542,779</font></td><td align="right"><font size="2">2,564</font></td><td align="right"><font size="2"><a href="/schedule/?view=bydate&release=theatrical&date=2010-11-19&p=.htm">11/19</a></font></td><td align="right"><font size="2">1/6</font></td></tr><tr bgcolor="#f4f4ff"><td align="center"><font size="2">114</font></td><td><b><font size="2"><a href="/movies/?id=kidsareallright.htm">The Kids Are All Right</a></font></b></td><td><font size="2"><a href="/studio/chart/?studio=focus.htm">Focus</a></font></td><td align="right"><font size="2"><b>$20,811,365</b></font></td><td align="right"><font size="2">994</font></td><td align="right"><font size="2">$491,971</font></td><td align="right"><font size="2">7</font></td><td align="right"><font size="2"><a href="/schedule/?view=bydate&release=theatrical&date=2010-07-09&p=.htm">7/9</a></font></td><td align="right"><font size="2">10/21</font></td></tr><tr bgcolor="#ffffff"><td align="center"><font size="2">115</font></td><td><b><font size="2"><a href="/movies/?id=ourfamilywedding.htm">Our Family Wedding</a></font></b></td><td><font size="2"><a href="/studio/chart/?studio=foxsearchlight.htm">FoxS</a></font></td><td align="right"><font size="2"><b>$20,255,281</b></font></td><td align="right"><font size="2">1,609</font></td><td align="right"><font size="2">$7,629,862</font></td><td align="right"><font size="2">1,605</font></td><td align="right"><font size="2"><a href="/schedule/?view=bydate&release=theatrical&date=2010-03-12&p=.htm">3/12</a></font></td><td align="right"><font size="2">6/17</font></td></tr><tr bgcolor="#f4f4ff"><td align="center"><font size="2">116</font></td><td><b><font size="2"><a href="/movies/?id=countrystrong.htm">Country Strong</a></font></b></td><td><font size="2"><a href="/studio/chart/?studio=screengems.htm">SGem</a></font></td><td align="right"><font size="2"><b>$20,218,921</b></font></td><td align="right"><font size="2">1,441</font></td><td align="right"><font size="2">$30,452</font></td><td align="right"><font size="2">2</font></td><td align="right"><font size="2"><a href="/schedule/?view=bydate&release=theatrical&date=2010-12-22&p=.htm">12/22</a></font></td><td align="right"><font size="2">2/17</font></td></tr><tr bgcolor="#ffffff"><td align="center"><font size="2">117</font></td><td><b><font size="2"><a href="/movies/?id=oceans.htm">Oceans</a></font></b></td><td><font size="2"><a href="/studio/chart/?studio=buenavista.htm">BV</a></font></td><td align="right"><font size="2"><b>$19,422,319</b></font></td><td align="right"><font size="2">1,232</font></td><td align="right"><font size="2">$6,058,958</font></td><td align="right"><font size="2">1,206</font></td><td align="right"><font size="2"><a href="/schedule/?view=bydate&release=theatrical&date=2010-04-22&p=.htm">4/22</a></font></td><td align="right"><font size="2">7/15</font></td></tr><tr bgcolor="#f4f4ff"><td align="center"><font size="2">118</font></td><td><b><font size="2"><a href="/movies/?id=rememberme.htm">Remember Me</a></font></b></td><td><font size="2"><a href="/studio/chart/?studio=summitentertainment.htm">Sum.</a></font></td><td align="right"><font size="2"><b>$19,068,240</b></font></td><td align="right"><font size="2">2,215</font></td><td align="right"><font size="2">$8,089,139</font></td><td align="right"><font size="2">2,212</font></td><td align="right"><font size="2"><a href="/schedule/?view=bydate&release=theatrical&date=2010-03-12&p=.htm">3/12</a></font></td><td align="right"><font size="2">5/13</font></td></tr><tr bgcolor="#ffffff"><td align="center"><font size="2">119</font></td><td><b><font size="2"><a href="/movies/?id=127hours.htm">127 Hours</a></font></b></td><td><font size="2"><a href="/studio/chart/?studio=foxsearchlight.htm">FoxS</a></font></td><td align="right"><font size="2"><b>$18,335,230</b></font></td><td align="right"><font size="2">916</font></td><td align="right"><font size="2">$264,851</font></td><td align="right"><font size="2">4</font></td><td align="right"><font size="2"><a href="/schedule/?view=bydate&release=theatrical&date=2010-11-05&p=.htm">11/5</a></font></td><td align="right"><font size="2">4/14</font></td></tr><tr bgcolor="#f4f4ff"><td align="center"><font size="2">120</font></td><td><b><font size="2"><a href="/movies/?id=goingthedistance10.htm">Going the Distance</a></font></b></td><td><font size="2"><a href="/studio/chart/?studio=wb-newline.htm">WB (NL)</a></font></td><td align="right"><font size="2"><b>$17,804,299</b></font></td><td align="right"><font size="2">3,030</font></td><td align="right"><font size="2">$6,884,964</font></td><td align="right"><font size="2">3,030</font></td><td align="right"><font size="2"><a href="/schedule/?view=bydate&release=theatrical&date=2010-09-03&p=.htm">9/3</a></font></td><td align="right"><font size="2">10/21</font></td></tr><tr bgcolor="#ffffff"><td align="center"><font size="2">121</font></td><td><b><font size="2"><a href="/movies/?id=furryvengeance.htm">Furry Vengeance</a></font></b></td><td><font size="2"><a href="/studio/chart/?studio=summitentertainment.htm">Sum.</a></font></td><td align="right"><font size="2"><b>$17,630,465</b></font></td><td align="right"><font size="2">3,002</font></td><td align="right"><font size="2">$6,627,564</font></td><td align="right"><font size="2">2,997</font></td><td align="right"><font size="2"><a href="/schedule/?view=bydate&release=theatrical&date=2010-04-30&p=.htm">4/30</a></font></td><td align="right"><font size="2">7/15</font></td></tr><tr bgcolor="#f4f4ff"><td align="center"><font size="2">122</font></td><td><b><font size="2"><a href="/movies/?id=splice.htm">Splice</a></font></b></td><td><font size="2"><a href="/studio/chart/?studio=warnerbros.htm">WB</a></font></td><td align="right"><font size="2"><b>$17,010,170</b></font></td><td align="right"><font size="2">2,450</font></td><td align="right"><font size="2">$7,385,277</font></td><td align="right"><font size="2">2,450</font></td><td align="right"><font size="2"><a href="/schedule/?view=bydate&release=theatrical&date=2010-06-04&p=.htm">6/4</a></font></td><td align="right"><font size="2">8/5</font></td></tr><tr bgcolor="#ffffff"><td align="center"><font size="2">123</font></td><td><b><font size="2"><a href="/movies/?id=theghostwriter.htm">The Ghost Writer</a></font></b></td><td><font size="2"><a href="/studio/chart/?studio=summitentertainment.htm">Sum.</a></font></td><td align="right"><font size="2"><b>$15,541,549</b></font></td><td align="right"><font size="2">819</font></td><td align="right"><font size="2">$183,009</font></td><td align="right"><font size="2">4</font></td><td align="right"><font size="2"><a href="/schedule/?view=bydate&release=theatrical&date=2010-02-19&p=.htm">2/19</a></font></td><td align="right"><font size="2">6/17</font></td></tr><tr bgcolor="#f4f4ff"><td align="center"><font size="2">124</font></td><td><b><font size="2"><a href="/movies/?id=youthinrevolt.htm">Youth in Revolt</a></font></b></td><td><font size="2"><a href="/studio/chart/?studio=wdimension.htm">W/Dim.</a></font></td><td align="right"><font size="2"><b>$15,281,286</b></font></td><td align="right"><font size="2">1,873</font></td><td align="right"><font size="2">$6,888,334</font></td><td align="right"><font size="2">1,873</font></td><td align="right"><font size="2"><a href="/schedule/?view=bydate&release=theatrical&date=2010-01-08&p=.htm">1/8</a></font></td><td align="right"><font size="2">3/25</font></td></tr><tr bgcolor="#ffffff"><td align="center"><font size="2">125</font></td><td><b><font size="2"><a href="/movies/?id=mysoultotake.htm">My Soul to Take</a></font></b></td><td><font size="2"><a href="/studio/chart/?studio=universal.htm">Uni.</a></font></td><td align="right"><font size="2"><b>$14,744,435</b></font></td><td align="right"><font size="2">2,572</font></td><td align="right"><font size="2">$6,842,220</font></td><td align="right"><font size="2">2,572</font></td><td align="right"><font size="2"><a href="/schedule/?view=bydate&release=theatrical&date=2010-10-08&p=.htm">10/8</a></font></td><td align="right"><font size="2">11/4</font></td></tr><tr bgcolor="#f4f4ff"><td align="center"><font size="2">126</font></td><td><b><font size="2"><a href="/movies/?id=repossessionmambo.htm">Repo Men</a></font></b></td><td><font size="2"><a href="/studio/chart/?studio=universal.htm">Uni.</a></font></td><td align="right"><font size="2"><b>$13,794,835</b></font></td><td align="right"><font size="2">2,521</font></td><td align="right"><font size="2">$6,126,170</font></td><td align="right"><font size="2">2,521</font></td><td align="right"><font size="2"><a href="/schedule/?view=bydate&release=theatrical&date=2010-03-19&p=.htm">3/19</a></font></td><td align="right"><font size="2">4/22</font></td></tr><tr bgcolor="#ffffff"><td align="center"><font size="2">127</font></td><td><b><font size="2"><a href="/movies/?id=case39.htm">Case 39</a></font></b></td><td><font size="2"><a href="/studio/chart/?studio=paramountvantage.htm">ParV</a></font></td><td align="right"><font size="2"><b>$13,261,851</b></font></td><td align="right"><font size="2">2,212</font></td><td align="right"><font size="2">$5,350,570</font></td><td align="right"><font size="2">2,211</font></td><td align="right"><font size="2"><a href="/schedule/?view=bydate&release=theatrical&date=2010-10-01&p=.htm">10/1</a></font></td><td align="right"><font size="2">11/18</font></td></tr><tr bgcolor="#f4f4ff"><td align="center"><font size="2">128</font></td><td><b><font size="2"><a href="/movies/?id=lettherightonein09.htm">Let Me In</a></font></b></td><td><font size="2"><a href="/studio/chart/?studio=overturefilms.htm">Over.</a></font></td><td align="right"><font size="2"><b>$12,134,935</b></font></td><td align="right"><font size="2">2,042</font></td><td align="right"><font size="2">$5,147,479</font></td><td align="right"><font size="2">2,020</font></td><td align="right"><font size="2"><a href="/schedule/?view=bydate&release=theatrical&date=2010-10-01&p=.htm">10/1</a></font></td><td align="right"><font size="2">12/9</font></td></tr><tr bgcolor="#ffffff"><td align="center"><font size="2">129</font></td><td><b><font size="2"><a href="/movies/?id=crowley.htm">Extraordinary Measures</a></font></b></td><td><font size="2"><a href="/studio/chart/?studio=cbsfilms.htm">CBS</a></font></td><td align="right"><font size="2"><b>$12,068,313</b></font></td><td align="right"><font size="2">2,549</font></td><td align="right"><font size="2">$6,012,594</font></td><td align="right"><font size="2">2,549</font></td><td align="right"><font size="2"><a href="/schedule/?view=bydate&release=theatrical&date=2010-01-22&p=.htm">1/22</a></font></td><td align="right"><font size="2">2/11</font></td></tr><tr bgcolor="#f4f4ff"><td align="center"><font size="2">130</font></td><td><b><font size="2"><a href="/movies/?id=avatarspecialedition.htm">Avatar: Special Edition</a></font></b></td><td><font size="2"><a href="/studio/chart/?studio=fox.htm">Fox</a></font></td><td align="right"><font size="2"><b>$10,741,486</b></font></td><td align="right"><font size="2">812</font></td><td align="right"><font size="2">$4,007,750</font></td><td align="right"><font size="2">812</font></td><td align="right"><font size="2"><a href="/schedule/?view=bydate&release=theatrical&date=2010-08-27&p=.htm">8/27</a></font></td><td align="right"><font size="2">11/18</font></td></tr><tr bgcolor="#ffffff"><td align="center"><font size="2">131</font></td><td><b><font size="2"><a href="/movies/?id=jonahhex.htm">Jonah Hex</a></font></b></td><td><font size="2"><a href="/studio/chart/?studio=warnerbros.htm">WB</a></font></td><td align="right"><font size="2"><b>$10,547,117</b></font></td><td align="right"><font size="2">2,825</font></td><td align="right"><font size="2">$5,379,365</font></td><td align="right"><font size="2">2,825</font></td><td align="right"><font size="2"><a href="/schedule/?view=bydate&release=theatrical&date=2010-06-18&p=.htm">6/18</a></font></td><td align="right"><font size="2">8/12</font></td></tr><tr bgcolor="#f4f4ff"><td align="center"><font size="2">132</font></td><td><b><font size="2"><a href="/movies/?id=girlwiththedragontattoo.htm">The Girl with the Dragon Tattoo</a></font></b></td><td><font size="2"><a href="/studio/chart/?studio=musicboxfilms.htm">MBox</a></font></td><td align="right"><font size="2"><b>$10,095,170</b></font></td><td align="right"><font size="2">202</font></td><td align="right"><font size="2">$335,502</font></td><td align="right"><font size="2">34</font></td><td align="right"><font size="2"><a href="/schedule/?view=bydate&release=theatrical&date=2010-03-19&p=.htm">3/19</a></font></td><td align="right"><font size="2">2/24</font></td></tr><tr bgcolor="#ffffff"><td align="center"><font size="2">133</font></td><td><b><font size="2"><a href="/movies/?id=bluevalentine.htm">Blue Valentine</a></font></b></td><td><font size="2"><a href="/studio/chart/?studio=weinsteincompany.htm">Wein.</a></font></td><td align="right"><font size="2"><b>$9,706,328</b></font></td><td align="right"><font size="2">450</font></td><td align="right"><font size="2">$193,728</font></td><td align="right"><font size="2">4</font></td><td align="right"><font size="2"><a href="/schedule/?view=bydate&release=theatrical&date=2010-12-29&p=.htm">12/29</a></font></td><td align="right"><font size="2">4/21</font></td></tr><tr bgcolor="#f4f4ff"><td align="center"><font size="2">134</font></td><td><b><font size="2"><a href="/movies/?id=fairgame10.htm">Fair Game (2010)</a></font></b></td><td><font size="2"><a href="/studio/chart/?studio=summitentertainment.htm">Sum.</a></font></td><td align="right"><font size="2"><b>$9,540,691</b></font></td><td align="right"><font size="2">436</font></td><td align="right"><font size="2">$651,082</font></td><td align="right"><font size="2">46</font></td><td align="right"><font size="2"><a href="/schedule/?view=bydate&release=theatrical&date=2010-11-05&p=.htm">11/5</a></font></td><td align="right"><font size="2">2/17</font></td></tr><tr bgcolor="#ffffff"><td align="center"><font size="2">135</font></td><td><b><font size="2"><a href="/movies/?id=getlow.htm">Get Low</a></font></b></td><td><font size="2"><a href="/studio/chart/?studio=sonyclassics.htm">SPC</a></font></td><td align="right"><font size="2"><b>$9,176,933</b></font></td><td align="right"><font size="2">570</font></td><td align="right"><font size="2">$88,182</font></td><td align="right"><font size="2">4</font></td><td align="right"><font size="2"><a href="/schedule/?view=bydate&release=theatrical&date=2010-07-30&p=.htm">7/30</a></font></td><td align="right"><font size="2">2/24</font></td></tr><tr bgcolor="#f4f4ff"><td align="center"><font size="2">136</font></td><td><b><font size="2"><a href="/movies/?id=macgruber.htm">MacGruber</a></font></b></td><td><font size="2"><a href="/studio/chart/?studio=universal.htm">Uni.</a></font></td><td align="right"><font size="2"><b>$8,525,600</b></font></td><td align="right"><font size="2">2,551</font></td><td align="right"><font size="2">$4,043,495</font></td><td align="right"><font size="2">2,551</font></td><td align="right"><font size="2"><a href="/schedule/?view=bydate&release=theatrical&date=2010-05-21&p=.htm">5/21</a></font></td><td align="right"><font size="2">6/10</font></td></tr><tr bgcolor="#ffffff"><td align="center"><font size="2">137</font></td><td><b><font size="2"><a href="/movies/?id=girlwhoplayedwithfire.htm">The Girl Who Played with Fire</a></font></b></td><td><font size="2"><a href="/studio/chart/?studio=musicboxfilms.htm">MBox</a></font></td><td align="right"><font size="2"><b>$7,638,241</b></font></td><td align="right"><font size="2">185</font></td><td align="right"><font size="2">$904,998</font></td><td align="right"><font size="2">108</font></td><td align="right"><font size="2"><a href="/schedule/?view=bydate&release=theatrical&date=2010-07-09&p=.htm">7/9</a></font></td><td align="right"><font size="2">2/10</font></td></tr><tr bgcolor="#f4f4ff"><td align="center"><font size="2">138</font></td><td><b><font size="2"><a href="/movies/?id=cyrus.htm">Cyrus</a></font></b></td><td><font size="2"><a href="/studio/chart/?studio=foxsearchlight.htm">FoxS</a></font></td><td align="right"><font size="2"><b>$7,468,936</b></font></td><td align="right"><font size="2">454</font></td><td align="right"><font size="2">$181,716</font></td><td align="right"><font size="2">4</font></td><td align="right"><font size="2"><a href="/schedule/?view=bydate&release=theatrical&date=2010-06-18&p=.htm">6/18</a></font></td><td align="right"><font size="2">10/14</font></td></tr><tr bgcolor="#ffffff"><td align="center"><font size="2">139</font></td><td><b><font size="2"><a href="/movies/?id=babies.htm">Babies</a></font></b></td><td><font size="2"><a href="/studio/chart/?studio=focus.htm">Focus</a></font></td><td align="right"><font size="2"><b>$7,320,323</b></font></td><td align="right"><font size="2">543</font></td><td align="right"><font size="2">$2,160,460</font></td><td align="right"><font size="2">534</font></td><td align="right"><font size="2"><a href="/schedule/?view=bydate&release=theatrical&date=2010-05-07&p=.htm">5/7</a></font></td><td align="right"><font size="2">7/8</font></td></tr><tr bgcolor="#f4f4ff"><td align="center"><font size="2">140</font></td><td><b><font size="2"><a href="/movies/?id=bettyannwaters.htm">Conviction</a></font></b></td><td><font size="2"><a href="/studio/chart/?studio=foxsearchlight.htm">FoxS</a></font></td><td align="right"><font size="2"><b>$6,783,129</b></font></td><td align="right"><font size="2">672</font></td><td align="right"><font size="2">$102,351</font></td><td align="right"><font size="2">11</font></td><td align="right"><font size="2"><a href="/schedule/?view=bydate&release=theatrical&date=2010-10-15&p=.htm">10/15</a></font></td><td align="right"><font size="2">12/26</font></td></tr><tr bgcolor="#ffffff"><td align="center"><font size="2">141</font></td><td><b><font size="2"><a href="/movies/?id=cityisland.htm">City Island</a></font></b></td><td><font size="2"><a href="/studio/chart/?studio=anchorbayentertainment.htm">Anch.</a></font></td><td align="right"><font size="2"><b>$6,671,036</b></font></td><td align="right"><font size="2">269</font></td><td align="right"><font size="2">$32,001</font></td><td align="right"><font size="2">2</font></td><td align="right"><font size="2"><a href="/schedule/?view=bydate&release=theatrical&date=2010-03-19&p=.htm">3/19</a></font></td><td align="right"><font size="2">9/2</font></td></tr><tr bgcolor="#f4f4ff"><td align="center"><font size="2">142</font></td><td><b><font size="2"><a href="/movies/?id=thelaststation.htm">The Last Station</a></font></b></td><td><font size="2"><a href="/studio/chart/?studio=sonyclassics.htm">SPC</a></font></td><td align="right"><font size="2"><b>$6,617,867</b></font></td><td align="right"><font size="2">354</font></td><td align="right"><font size="2">$73,723</font></td><td align="right"><font size="2">3</font></td><td align="right"><font size="2"><a href="/schedule/?view=bydate&release=theatrical&date=2010-01-15&p=.htm">1/15</a></font></td><td align="right"><font size="2">6/24</font></td></tr><tr bgcolor="#ffffff"><td align="center"><font size="2">143</font></td><td><b><font size="2"><a href="/movies/?id=wintersbone.htm">Winter\'s Bone</a></font></b></td><td><font size="2"><a href="/studio/chart/?studio=roadsideattractions.htm">RAtt.</a></font></td><td align="right"><font size="2"><b>$6,531,503</b></font></td><td align="right"><font size="2">141</font></td><td align="right"><font size="2">$84,797</font></td><td align="right"><font size="2">4</font></td><td align="right"><font size="2"><a href="/schedule/?view=bydate&release=theatrical&date=2010-06-11&p=.htm">6/11</a></font></td><td align="right"><font size="2">4/21</font></td></tr><tr bgcolor="#f4f4ff"><td align="center"><font size="2">144</font></td><td><b><font size="2"><a href="/movies/?id=waitingforsuperman.htm">Waiting for <i>&quot;Superman&quot;</i></a></font></b></td><td><font size="2"><a href="/studio/chart/?studio=paramountvantage.htm">ParV</a></font></td><td align="right"><font size="2"><b>$6,417,135</b></font></td><td align="right"><font size="2">330</font></td><td align="right"><font size="2">$139,033</font></td><td align="right"><font size="2">4</font></td><td align="right"><font size="2"><a href="/schedule/?view=bydate&release=theatrical&date=2010-09-24&p=.htm">9/24</a></font></td><td align="right"><font size="2">12/23</font></td></tr><tr bgcolor="#ffffff"><td align="center"><font size="2">145</font></td><td><b><font size="2"><a href="/movies/?id=secretintheireyes.htm">The Secret in Their Eyes</a></font></b></td><td><font size="2"><a href="/studio/chart/?studio=sonyclassics.htm">SPC</a></font></td><td align="right"><font size="2"><b>$6,391,436</b></font></td><td align="right"><font size="2">166</font></td><td align="right"><font size="2">$167,866</font></td><td align="right"><font size="2">10</font></td><td align="right"><font size="2"><a href="/schedule/?view=bydate&release=theatrical&date=2010-04-16&p=.htm">4/16</a></font></td><td align="right"><font size="2">10/21</font></td></tr><tr bgcolor="#f4f4ff"><td align="center"><font size="2">146</font></td><td><b><font size="2"><a href="/movies/?id=itskindofafunnystory.htm">It\'s Kind of a Funny Story</a></font></b></td><td><font size="2"><a href="/studio/chart/?studio=focus.htm">Focus</a></font></td><td align="right"><font size="2"><b>$6,363,628</b></font></td><td align="right"><font size="2">757</font></td><td align="right"><font size="2">$2,013,406</font></td><td align="right"><font size="2">742</font></td><td align="right"><font size="2"><a href="/schedule/?view=bydate&release=theatrical&date=2010-10-08&p=.htm">10/8</a></font></td><td align="right"><font size="2">11/25</font></td></tr><tr bgcolor="#ffffff"><td align="center"><font size="2">147</font></td><td><b><font size="2"><a href="/movies/?id=searex3d.htm">Sea Rex 3D: Journey to a Prehistoric World</a></font></b></td><td><font size="2"><a href="/studio/chart/?studio=3dentertainment.htm">3D</a></font></td><td align="right"><font size="2"><b>$6,096,582</b></font></td><td align="right"><font size="2">14</font></td><td align="right"><font size="2">N/A</font></td><td align="right"><font size="2">N/A</font></td><td align="right"><font size="2"><a href="/schedule/?view=bydate&release=theatrical&date=2010-05-28&p=.htm">5/28</a></font></td><td align="right"><font size="2">9/13</font></td></tr><tr bgcolor="#f4f4ff"><td align="center"><font size="2">148</font></td><td><b><font size="2"><a href="/movies/?id=warriorsway.htm">The Warrior\'s Way</a></font></b></td><td><font size="2"><a href="/studio/chart/?studio=relativity.htm">Rela.</a></font></td><td align="right"><font size="2"><b>$5,666,340</b></font></td><td align="right"><font size="2">1,622</font></td><td align="right"><font size="2">$3,048,665</font></td><td align="right"><font size="2">1,622</font></td><td align="right"><font size="2"><a href="/schedule/?view=bydate&release=theatrical&date=2010-12-03&p=.htm">12/3</a></font></td><td align="right"><font size="2">2/3</font></td></tr><tr bgcolor="#ffffff"><td align="center"><font size="2">149</font></td><td><b><font size="2"><a href="/movies/?id=hornetsnest.htm">The Girl Who Kicked the Hornet\'s Nest</a></font></b></td><td><font size="2"><a href="/studio/chart/?studio=musicboxfilms.htm">MBox</a></font></td><td align="right"><font size="2"><b>$5,190,196</b></font></td><td align="right"><font size="2">208</font></td><td align="right"><font size="2">$881,737</font></td><td align="right"><font size="2">154</font></td><td align="right"><font size="2"><a href="/schedule/?view=bydate&release=theatrical&date=2010-10-29&p=.htm">10/29</a></font></td><td align="right"><font size="2">3/3</font></td></tr><tr bgcolor="#f4f4ff"><td align="center"><font size="2">150</font></td><td><b><font size="2"><a href="/movies/?id=iamlove.htm">I Am Love</a></font></b></td><td><font size="2"><a href="/studio/chart/?studio=magnolia.htm">Magn.</a></font></td><td align="right"><font size="2"><b>$5,005,465</b></font></td><td align="right"><font size="2">166</font></td><td align="right"><font size="2">$121,504</font></td><td align="right"><font size="2">8</font></td><td align="right"><font size="2"><a href="/schedule/?view=bydate&release=theatrical&date=2010-06-18&p=.htm">6/18</a></font></td><td align="right"><font size="2">12/2</font></td></tr><tr bgcolor="#ffffff"><td align="center"><font size="2">151</font></td><td><b><font size="2"><a href="/movies/?id=maoslastdancer.htm">Mao\'s Last Dancer</a></font></b></td><td><font size="2"><a href="/studio/chart/?studio=samuelgoldwyn.htm">Gold.</a></font></td><td align="right"><font size="2"><b>$4,817,770</b></font></td><td align="right"><font size="2">137</font></td><td align="right"><font size="2">$199,657</font></td><td align="right"><font size="2">33</font></td><td align="right"><font size="2"><a href="/schedule/?view=bydate&release=theatrical&date=2010-08-20&p=.htm">8/20</a></font></td><td align="right"><font size="2">12/9</font></td></tr><tr bgcolor="#f4f4ff"><td align="center"><font size="2">152</font></td><td><b><font size="2"><a href="/movies/?id=solitaryman.htm">Solitary Man</a></font></b></td><td><font size="2"><a href="/studio/chart/?studio=anchorbayentertainment.htm">Anch.</a></font></td><td align="right"><font size="2"><b>$4,360,548</b></font></td><td align="right"><font size="2">177</font></td><td align="right"><font size="2">$94,936</font></td><td align="right"><font size="2">4</font></td><td align="right"><font size="2"><a href="/schedule/?view=bydate&release=theatrical&date=2010-05-21&p=.htm">5/21</a></font></td><td align="right"><font size="2">10/7</font></td></tr><tr bgcolor="#ffffff"><td align="center"><font size="2">153</font></td><td><b><font size="2"><a href="/movies/?id=insidejob.htm">Inside Job</a></font></b></td><td><font size="2"><a href="/studio/chart/?studio=sonyclassics.htm">SPC</a></font></td><td align="right"><font size="2"><b>$4,312,735</b></font></td><td align="right"><font size="2">250</font></td><td align="right"><font size="2">$39,649</font></td><td align="right"><font size="2">2</font></td><td align="right"><font size="2"><a href="/schedule/?view=bydate&release=theatrical&date=2010-10-08&p=.htm">10/8</a></font></td><td align="right"><font size="2">5/5</font></td></tr><tr bgcolor="#f4f4ff"><td align="center"><font size="2">154</font></td><td><b><font size="2"><a href="/movies/?id=greenberg.htm">Greenberg</a></font></b></td><td><font size="2"><a href="/studio/chart/?studio=focus.htm">Focus</a></font></td><td align="right"><font size="2"><b>$4,234,170</b></font></td><td align="right"><font size="2">186</font></td><td align="right"><font size="2">$118,152</font></td><td align="right"><font size="2">3</font></td><td align="right"><font size="2"><a href="/schedule/?view=bydate&release=theatrical&date=2010-03-19&p=.htm">3/19</a></font></td><td align="right"><font size="2">5/27</font></td></tr><tr bgcolor="#ffffff"><td align="center"><font size="2">155</font></td><td><b><font size="2"><a href="/movies/?id=pleasegive.htm">Please Give</a></font></b></td><td><font size="2"><a href="/studio/chart/?studio=sonyclassics.htm">SPC</a></font></td><td align="right"><font size="2"><b>$4,033,574</b></font></td><td align="right"><font size="2">272</font></td><td align="right"><font size="2">$118,123</font></td><td align="right"><font size="2">5</font></td><td align="right"><font size="2"><a href="/schedule/?view=bydate&release=theatrical&date=2010-04-30&p=.htm">4/30</a></font></td><td align="right"><font size="2">10/21</font></td></tr><tr bgcolor="#f4f4ff"><td align="center"><font size="2">156</font></td><td><b><font size="2"><a href="/movies/?id=mynameiskhan.htm">My Name is Khan</a></font></b></td><td><font size="2"><a href="/studio/chart/?studio=foxsearchlight.htm">FoxS</a></font></td><td align="right"><font size="2"><b>$4,018,771</b></font></td><td align="right"><font size="2">125</font></td><td align="right"><font size="2">$1,944,027</font></td><td align="right"><font size="2">120</font></td><td align="right"><font size="2"><a href="/schedule/?view=bydate&release=theatrical&date=2010-02-12&p=.htm">2/12</a></font></td><td align="right"><font size="2">5/6</font></td></tr><tr bgcolor="#ffffff"><td align="center"><font size="2">157</font></td><td><b><font size="2"><a href="/movies/?id=tosavealife.htm">To Save a Life</a></font></b></td><td><font size="2"><a href="/studio/chart/?studio=samuelgoldwyn.htm">Gold.</a></font></td><td align="right"><font size="2"><b>$3,777,210</b></font></td><td align="right"><font size="2">441</font></td><td align="right"><font size="2">$1,581,517</font></td><td align="right"><font size="2">441</font></td><td align="right"><font size="2"><a href="/schedule/?view=bydate&release=theatrical&date=2010-01-22&p=.htm">1/22</a></font></td><td align="right"><font size="2">4/8</font></td></tr><tr bgcolor="#f4f4ff"><td align="center"><font size="2">158</font></td><td><b><font size="2"><a href="/movies/?id=therunaways.htm">The Runaways</a></font></b></td><td><font size="2"><a href="/studio/chart/?studio=apparition.htm">App.</a></font></td><td align="right"><font size="2"><b>$3,573,673</b></font></td><td align="right"><font size="2">244</font></td><td align="right"><font size="2">$805,115</font></td><td align="right"><font size="2">244</font></td><td align="right"><font size="2"><a href="/schedule/?view=bydate&release=theatrical&date=2010-03-19&p=.htm">3/19</a></font></td><td align="right"><font size="2">6/3</font></td></tr><tr bgcolor="#ffffff"><td align="center"><font size="2">159</font></td><td><b><font size="2"><a href="/movies/?id=exitthroughthegiftshop.htm">Exit Through the Gift Shop</a></font></b></td><td><font size="2"><a href="/studio/chart/?studio=pda.htm">PDA</a></font></td><td align="right"><font size="2"><b>$3,291,250</b></font></td><td align="right"><font size="2">46</font></td><td align="right"><font size="2">$170,756</font></td><td align="right"><font size="2">8</font></td><td align="right"><font size="2"><a href="/schedule/?view=bydate&release=theatrical&date=2010-04-16&p=.htm">4/16</a></font></td><td align="right"><font size="2">11/4</font></td></tr><tr bgcolor="#f4f4ff"><td align="center"><font size="2">160</font></td><td><b><font size="2"><a href="/movies/?id=talldarkstranger.htm">You Will Meet a Tall Dark Stranger</a></font></b></td><td><font size="2"><a href="/studio/chart/?studio=sonyclassics.htm">SPC</a></font></td><td align="right"><font size="2"><b>$3,248,246</b></font></td><td align="right"><font size="2">402</font></td><td align="right"><font size="2">$160,103</font></td><td align="right"><font size="2">6</font></td><td align="right"><font size="2"><a href="/schedule/?view=bydate&release=theatrical&date=2010-09-22&p=.htm">9/22</a></font></td><td align="right"><font size="2">2/10</font></td></tr><tr bgcolor="#ffffff"><td align="center"><font size="2">161</font></td><td><b><font size="2"><a href="/movies/?id=catfish.htm">Catfish</a></font></b></td><td><font size="2"><a href="/studio/chart/?studio=roguepictures.htm">Rog.</a></font></td><td align="right"><font size="2"><b>$3,237,343</b></font></td><td align="right"><font size="2">143</font></td><td align="right"><font size="2">$257,285</font></td><td align="right"><font size="2">12</font></td><td align="right"><font size="2"><a href="/schedule/?view=bydate&release=theatrical&date=2010-09-17&p=.htm">9/17</a></font></td><td align="right"><font size="2">12/2</font></td></tr><tr bgcolor="#f4f4ff"><td align="center"><font size="2">162</font></td><td><b><font size="2"><a href="/movies/?id=anotheryear.htm">Another Year</a></font></b></td><td><font size="2"><a href="/studio/chart/?studio=sonyclassics.htm">SPC</a></font></td><td align="right"><font size="2"><b>$3,205,706</b></font></td><td align="right"><font size="2">236</font></td><td align="right"><font size="2">$111,869</font></td><td align="right"><font size="2">6</font></td><td align="right"><font size="2"><a href="/schedule/?view=bydate&release=theatrical&date=2010-12-29&p=.htm">12/29</a></font></td><td align="right"><font size="2">5/26</font></td></tr><tr bgcolor="#ffffff"><td align="center"><font size="2">163</font></td><td><b><font size="2"><a href="/movies/?id=chloe.htm">Chloe</a></font></b></td><td><font size="2"><a href="/studio/chart/?studio=sonyclassics.htm">SPC</a></font></td><td align="right"><font size="2"><b>$3,075,255</b></font></td><td align="right"><font size="2">350</font></td><td align="right"><font size="2">$900,688</font></td><td align="right"><font size="2">350</font></td><td align="right"><font size="2"><a href="/schedule/?view=bydate&release=theatrical&date=2010-03-26&p=.htm">3/26</a></font></td><td align="right"><font size="2">7/15</font></td></tr><tr bgcolor="#f4f4ff"><td align="center"><font size="2">164</font></td><td><b><font size="2"><a href="/movies/?id=joanrivers.htm">Joan Rivers: A Piece of Work</a></font></b></td><td><font size="2"><a href="/studio/chart/?studio=ifc.htm">IFC</a></font></td><td align="right"><font size="2"><b>$2,930,687</b></font></td><td align="right"><font size="2">115</font></td><td align="right"><font size="2">$164,351</font></td><td align="right"><font size="2">7</font></td><td align="right"><font size="2"><a href="/schedule/?view=bydate&release=theatrical&date=2010-06-11&p=.htm">6/11</a></font></td><td align="right"><font size="2">9/16</font></td></tr><tr bgcolor="#ffffff"><td align="center"><font size="2">165</font></td><td><b><font size="2"><a href="/movies/?id=letterstogod.htm">Letters to God</a></font></b></td><td><font size="2"><a href="/studio/chart/?studio=vivendientertainment.htm">Viv.</a></font></td><td align="right"><font size="2"><b>$2,848,578</b></font></td><td align="right"><font size="2">897</font></td><td align="right"><font size="2">$1,088,873</font></td><td align="right"><font size="2">897</font></td><td align="right"><font size="2"><a href="/schedule/?view=bydate&release=theatrical&date=2010-04-09&p=.htm">4/9</a></font></td><td align="right"><font size="2">7/1</font></td></tr><tr bgcolor="#f4f4ff"><td align="center"><font size="2">166</font></td><td><b><font size="2"><a href="/movies/?id=nsecure.htm">N\'Secure</a></font></b></td><td><font size="2"><a href="/studio/chart/?studio=freestyle.htm">Free</a></font></td><td align="right"><font size="2"><b>$2,595,644</b></font></td><td align="right"><font size="2">486</font></td><td align="right"><font size="2">$1,166,406</font></td><td align="right"><font size="2">486</font></td><td align="right"><font size="2"><a href="/schedule/?view=bydate&release=theatrical&date=2010-10-15&p=.htm">10/15</a></font></td><td align="right"><font size="2">11/18</font></td></tr><tr bgcolor="#ffffff"><td align="center"><font size="2">167</font></td><td><b><font size="2"><a href="/movies/?id=neverletmego.htm">Never Let Me Go</a></font></b></td><td><font size="2"><a href="/studio/chart/?studio=foxsearchlight.htm">FoxS</a></font></td><td align="right"><font size="2"><b>$2,434,652</b></font></td><td align="right"><font size="2">232</font></td><td align="right"><font size="2">$111,734</font></td><td align="right"><font size="2">4</font></td><td align="right"><font size="2"><a href="/schedule/?view=bydate&release=theatrical&date=2010-09-15&p=.htm">9/15</a></font></td><td align="right"><font size="2">12/16</font></td></tr><tr bgcolor="#f4f4ff"><td align="center"><font size="2">168</font></td><td><b><font size="2"><a href="/movies/?id=twilightnewmooncombo.htm">Twilight/New Moon Combo (one-night-only)</a></font></b></td><td><font size="2"><a href="/studio/chart/?studio=summitentertainment.htm">Sum.</a></font></td><td align="right"><font size="2"><b>$2,385,237</b></font></td><td align="right"><font size="2">2,037</font></td><td align="right"><font size="2">N/A</font></td><td align="right"><font size="2">N/A</font></td><td align="right"><font size="2"><a href="/schedule/?view=bydate&release=theatrical&date=2010-06-29&p=.htm">6/29</a></font></td><td align="right"><font size="2">6/29</font></td></tr><tr bgcolor="#ffffff"><td align="center"><font size="2">169</font></td><td><b><font size="2"><a href="/movies/?id=illusionist2010.htm">The Illusionist (2010)</a></font></b></td><td><font size="2"><a href="/studio/chart/?studio=sonyclassics.htm">SPC</a></font></td><td align="right"><font size="2"><b>$2,231,474</b></font></td><td align="right"><font size="2">206</font></td><td align="right"><font size="2">$38,594</font></td><td align="right"><font size="2">3</font></td><td align="right"><font size="2"><a href="/schedule/?view=bydate&release=theatrical&date=2010-12-25&p=.htm">12/25</a></font></td><td align="right"><font size="2">5/12</font></td></tr><tr bgcolor="#f4f4ff"><td align="center"><font size="2">170</font></td><td><b><font size="2"><a href="/movies/?id=rabbithole.htm">Rabbit Hole</a></font></b></td><td><font size="2"><a href="/studio/chart/?studio=lionsgate.htm">LGF</a></font></td><td align="right"><font size="2"><b>$2,229,058</b></font></td><td align="right"><font size="2">131</font></td><td align="right"><font size="2">$53,778</font></td><td align="right"><font size="2">5</font></td><td align="right"><font size="2"><a href="/schedule/?view=bydate&release=theatrical&date=2010-12-17&p=.htm">12/17</a></font></td><td align="right"><font size="2">4/7</font></td></tr><tr bgcolor="#ffffff"><td align="center"><font size="2">171</font></td><td><b><font size="2"><a href="/movies/?id=aprophet.htm">A Prophet (Un proph\xe8te)</a></font></b></td><td><font size="2"><a href="/studio/chart/?studio=sonyclassics.htm">SPC</a></font></td><td align="right"><font size="2"><b>$2,087,720</b></font></td><td align="right"><font size="2">83</font></td><td align="right"><font size="2">$163,773</font></td><td align="right"><font size="2">9</font></td><td align="right"><font size="2"><a href="/schedule/?view=bydate&release=theatrical&date=2010-02-26&p=.htm">2/26</a></font></td><td align="right"><font size="2">7/1</font></td></tr><tr bgcolor="#f4f4ff"><td align="center"><font size="2">172</font></td><td><b><font size="2"><a href="/movies/?id=iloveyouphillipmorris.htm">I Love You, Phillip Morris</a></font></b></td><td><font size="2"><a href="/studio/chart/?studio=roadsideattractions.htm">RAtt.</a></font></td><td align="right"><font size="2"><b>$2,037,459</b></font></td><td align="right"><font size="2">100</font></td><td align="right"><font size="2">$112,520</font></td><td align="right"><font size="2">6</font></td><td align="right"><font size="2"><a href="/schedule/?view=bydate&release=theatrical&date=2010-12-03&p=.htm">12/3</a></font></td><td align="right"><font size="2">4/14</font></td></tr><tr bgcolor="#ffffff"><td align="center"><font size="2">173</font></td><td><b><font size="2"><a href="/movies/?id=harrybrown.htm">Harry Brown</a></font></b></td><td><font size="2"><a href="/studio/chart/?studio=samuelgoldwyn.htm">Gold.</a></font></td><td align="right"><font size="2"><b>$1,818,681</b></font></td><td align="right"><font size="2">67</font></td><td align="right"><font size="2">$173,353</font></td><td align="right"><font size="2">19</font></td><td align="right"><font size="2"><a href="/schedule/?view=bydate&release=theatrical&date=2010-04-30&p=.htm">4/30</a></font></td><td align="right"><font size="2">8/12</font></td></tr><tr bgcolor="#f4f4ff"><td align="center"><font size="2">174</font></td><td><b><font size="2"><a href="/movies/?id=stone.htm">Stone</a></font></b></td><td><font size="2"><a href="/studio/chart/?studio=overturefilms.htm">Over.</a></font></td><td align="right"><font size="2"><b>$1,810,078</b></font></td><td align="right"><font size="2">125</font></td><td align="right"><font size="2">$75,766</font></td><td align="right"><font size="2">6</font></td><td align="right"><font size="2"><a href="/schedule/?view=bydate&release=theatrical&date=2010-10-08&p=.htm">10/8</a></font></td><td align="right"><font size="2">12/30</font></td></tr><tr bgcolor="#ffffff"><td align="center"><font size="2">175</font></td><td><b><font size="2"><a href="/movies/?id=somewhere10.htm">Somewhere</a></font></b></td><td><font size="2"><a href="/studio/chart/?studio=focus.htm">Focus</a></font></td><td align="right"><font size="2"><b>$1,785,645</b></font></td><td align="right"><font size="2">83</font></td><td align="right"><font size="2">$119,086</font></td><td align="right"><font size="2">7</font></td><td align="right"><font size="2"><a href="/schedule/?view=bydate&release=theatrical&date=2010-12-22&p=.htm">12/22</a></font></td><td align="right"><font size="2">3/3</font></td></tr><tr bgcolor="#f4f4ff"><td align="center"><font size="2">176</font></td><td><b><font size="2"><a href="/movies/?id=flipped.htm">Flipped</a></font></b></td><td><font size="2"><a href="/studio/chart/?studio=warnerbros.htm">WB</a></font></td><td align="right"><font size="2"><b>$1,755,212</b></font></td><td align="right"><font size="2">442</font></td><td align="right"><font size="2">$224,233</font></td><td align="right"><font size="2">45</font></td><td align="right"><font size="2"><a href="/schedule/?view=bydate&release=theatrical&date=2010-08-06&p=.htm">8/6</a></font></td><td align="right"><font size="2">10/14</font></td></tr><tr bgcolor="#ffffff"><td align="center"><font size="2">177</font></td><td><b><font size="2"><a href="/movies/?id=kites.htm">Kites</a></font></b></td><td><font size="2"><a href="/studio/chart/?studio=reliancebigpictures.htm">Relbig.</a></font></td><td align="right"><font size="2"><b>$1,643,486</b></font></td><td align="right"><font size="2">207</font></td><td align="right"><font size="2">$959,329</font></td><td align="right"><font size="2">207</font></td><td align="right"><font size="2"><a href="/schedule/?view=bydate&release=theatrical&date=2010-05-21&p=.htm">5/21</a></font></td><td align="right"><font size="2">6/24</font></td></tr><tr bgcolor="#f4f4ff"><td align="center"><font size="2">178</font></td><td><b><font size="2"><a href="/movies/?id=cocoandigor.htm">Coco Chanel &amp; Igor Stravinsky</a></font></b></td><td><font size="2"><a href="/studio/chart/?studio=sonyclassics.htm">SPC</a></font></td><td align="right"><font size="2"><b>$1,621,226</b></font></td><td align="right"><font size="2">74</font></td><td align="right"><font size="2">$44,454</font></td><td align="right"><font size="2">3</font></td><td align="right"><font size="2"><a href="/schedule/?view=bydate&release=theatrical&date=2010-06-11&p=.htm">6/11</a></font></td><td align="right"><font size="2">10/21</font></td></tr><tr bgcolor="#ffffff"><td align="center"><font size="2">179</font></td><td><b><font size="2"><a href="/movies/?id=cairotime.htm">Cairo Time</a></font></b></td><td><font size="2"><a href="/studio/chart/?studio=ifc.htm">IFC</a></font></td><td align="right"><font size="2"><b>$1,603,616</b></font></td><td align="right"><font size="2">76</font></td><td align="right"><font size="2">$66,245</font></td><td align="right"><font size="2">5</font></td><td align="right"><font size="2"><a href="/schedule/?view=bydate&release=theatrical&date=2010-08-06&p=.htm">8/6</a></font></td><td align="right"><font size="2">11/11</font></td></tr><tr bgcolor="#f4f4ff"><td align="center"><font size="2">180</font></td><td><b><font size="2"><a href="/movies/?id=raajneeti.htm">Raajneeti</a></font></b></td><td><font size="2"><a href="/studio/chart/?studio=utv.htm">UTV</a></font></td><td align="right"><font size="2"><b>$1,514,558</b></font></td><td align="right"><font size="2">124</font></td><td align="right"><font size="2">$850,244</font></td><td align="right"><font size="2">124</font></td><td align="right"><font size="2"><a href="/schedule/?view=bydate&release=theatrical&date=2010-06-04&p=.htm">6/4</a></font></td><td align="right"><font size="2">7/11</font></td></tr><tr bgcolor="#ffffff"><td align="center"><font size="2">181</font></td><td><b><font size="2"><a href="/movies/?id=joneses.htm">The Joneses</a></font></b></td><td><font size="2"><a href="/studio/chart/?studio=roadsideattractions.htm">RAtt.</a></font></td><td align="right"><font size="2"><b>$1,475,746</b></font></td><td align="right"><font size="2">217</font></td><td align="right"><font size="2">$509,689</font></td><td align="right"><font size="2">193</font></td><td align="right"><font size="2"><a href="/schedule/?view=bydate&release=theatrical&date=2010-04-16&p=.htm">4/16</a></font></td><td align="right"><font size="2">7/15</font></td></tr><tr bgcolor="#f4f4ff"><td align="center"><font size="2">182</font></td><td><b><font size="2"><a href="/movies/?id=nowhereboy.htm">Nowhere Boy</a></font></b></td><td><font size="2"><a href="/studio/chart/?studio=weinsteincompany.htm">Wein.</a></font></td><td align="right"><font size="2"><b>$1,457,248</b></font></td><td align="right"><font size="2">215</font></td><td align="right"><font size="2">$52,749</font></td><td align="right"><font size="2">4</font></td><td align="right"><font size="2"><a href="/schedule/?view=bydate&release=theatrical&date=2010-10-08&p=.htm">10/8</a></font></td><td align="right"><font size="2">12/9</font></td></tr><tr bgcolor="#ffffff"><td align="center"><font size="2">183</font></td><td><b><font size="2"><a href="/movies/?id=restrepo.htm">Restrepo</a></font></b></td><td><font size="2"><a href="/studio/chart/?studio=nationalgeographiccinema.htm">NGE</a></font></td><td align="right"><font size="2"><b>$1,330,894</b></font></td><td align="right"><font size="2">52</font></td><td align="right"><font size="2">$35,581</font></td><td align="right"><font size="2">2</font></td><td align="right"><font size="2"><a href="/schedule/?view=bydate&release=theatrical&date=2010-06-25&p=.htm">6/25</a></font></td><td align="right"><font size="2">12/5</font></td></tr><tr bgcolor="#f4f4ff"><td align="center"><font size="2">184</font></td><td><b><font size="2"><a href="/movies/?id=dabangg.htm">Dabangg</a></font></b></td><td><font size="2"><a href="/studio/chart/?studio=eros.htm">Eros</a></font></td><td align="right"><font size="2"><b>$1,288,549</b></font></td><td align="right"><font size="2">68</font></td><td align="right"><font size="2">$628,137</font></td><td align="right"><font size="2">62</font></td><td align="right"><font size="2"><a href="/schedule/?view=bydate&release=theatrical&date=2010-09-10&p=.htm">9/10</a></font></td><td align="right"><font size="2">9/30</font></td></tr><tr bgcolor="#ffffff"><td align="center"><font size="2">185</font></td><td><b><font size="2"><a href="/movies/?id=micmacs.htm">Micmacs</a></font></b></td><td><font size="2"><a href="/studio/chart/?studio=sonyclassics.htm">SPC</a></font></td><td align="right"><font size="2"><b>$1,262,079</b></font></td><td align="right"><font size="2">52</font></td><td align="right"><font size="2">$42,751</font></td><td align="right"><font size="2">4</font></td><td align="right"><font size="2"><a href="/schedule/?view=bydate&release=theatrical&date=2010-05-28&p=.htm">5/28</a></font></td><td align="right"><font size="2">10/21</font></td></tr><tr bgcolor="#f4f4ff"><td align="center"><font size="2">186</font></td><td><b><font size="2"><a href="/movies/?id=housefull.htm">Housefull</a></font></b></td><td><font size="2"><a href="/studio/chart/?studio=eros.htm">Eros</a></font></td><td align="right"><font size="2"><b>$1,183,658</b></font></td><td align="right"><font size="2">82</font></td><td align="right"><font size="2">$642,156</font></td><td align="right"><font size="2">82</font></td><td align="right"><font size="2"><a href="/schedule/?view=bydate&release=theatrical&date=2010-04-30&p=.htm">4/30</a></font></td><td align="right"><font size="2">5/20</font></td></tr><tr bgcolor="#ffffff"><td align="center"><font size="2">187</font></td><td><b><font size="2"><a href="/movies/?id=golmaal3.htm">Golmaal 3</a></font></b></td><td><font size="2"><a href="/studio/chart/?studio=eros.htm">Eros</a></font></td><td align="right"><font size="2"><b>$1,132,192</b></font></td><td align="right"><font size="2">86</font></td><td align="right"><font size="2">$626,432</font></td><td align="right"><font size="2">86</font></td><td align="right"><font size="2"><a href="/schedule/?view=bydate&release=theatrical&date=2010-11-05&p=.htm">11/5</a></font></td><td align="right"><font size="2">11/25</font></td></tr><tr bgcolor="#f4f4ff"><td align="center"><font size="2">188</font></td><td><b><font size="2"><a href="/movies/?id=motherandchild.htm">Mother and Child</a></font></b></td><td><font size="2"><a href="/studio/chart/?studio=sonyclassics.htm">SPC</a></font></td><td align="right"><font size="2"><b>$1,110,509</b></font></td><td align="right"><font size="2">119</font></td><td align="right"><font size="2">$43,040</font></td><td align="right"><font size="2">4</font></td><td align="right"><font size="2"><a href="/schedule/?view=bydate&release=theatrical&date=2010-05-07&p=.htm">5/7</a></font></td><td align="right"><font size="2">10/21</font></td></tr><tr bgcolor="#ffffff"><td align="center"><font size="2">189</font></td><td><b><font size="2"><a href="/movies/?id=madeindagenham.htm">Made in Dagenham</a></font></b></td><td><font size="2"><a href="/studio/chart/?studio=sonyclassics.htm">SPC</a></font></td><td align="right"><font size="2"><b>$1,095,369</b></font></td><td align="right"><font size="2">89</font></td><td align="right"><font size="2">$37,563</font></td><td align="right"><font size="2">3</font></td><td align="right"><font size="2"><a href="/schedule/?view=bydate&release=theatrical&date=2010-11-19&p=.htm">11/19</a></font></td><td align="right"><font size="2">4/14</font></td></tr><tr bgcolor="#f4f4ff"><td align="center"><font size="2">190</font></td><td><b><font size="2"><a href="/movies/?id=teesmaarkhan.htm">Tees Maar Khan</a></font></b></td><td><font size="2"><a href="/studio/chart/?studio=utv.htm">UTV</a></font></td><td align="right"><font size="2"><b>$1,076,443</b></font></td><td align="right"><font size="2">108</font></td><td align="right"><font size="2">$539,793</font></td><td align="right"><font size="2">108</font></td><td align="right"><font size="2"><a href="/schedule/?view=bydate&release=theatrical&date=2010-12-22&p=.htm">12/22</a></font></td><td align="right"><font size="2">1/20</font></td></tr><tr bgcolor="#ffffff"><td align="center"><font size="2">191</font></td><td><b><font size="2"><a href="/movies/?id=lamission.htm">La Mission</a></font></b></td><td><font size="2"><a href="/studio/chart/?studio=screenmedia.htm">Scre.</a></font></td><td align="right"><font size="2"><b>$1,062,941</b></font></td><td align="right"><font size="2">47</font></td><td align="right"><font size="2">$49,046</font></td><td align="right"><font size="2">15</font></td><td align="right"><font size="2"><a href="/schedule/?view=bydate&release=theatrical&date=2010-04-09&p=.htm">4/9</a></font></td><td align="right"><font size="2">8/8</font></td></tr><tr bgcolor="#f4f4ff"><td align="center"><font size="2">192</font></td><td><b><font size="2"><a href="/movies/?id=buried.htm">Buried</a></font></b></td><td><font size="2"><a href="/studio/chart/?studio=lionsgate.htm">LGF</a></font></td><td align="right"><font size="2"><b>$1,044,143</b></font></td><td align="right"><font size="2">107</font></td><td align="right"><font size="2">$100,268</font></td><td align="right"><font size="2">11</font></td><td align="right"><font size="2"><a href="/schedule/?view=bydate&release=theatrical&date=2010-09-24&p=.htm">9/24</a></font></td><td align="right"><font size="2">11/11</font></td></tr><tr bgcolor="#ffffff"><td align="center"><font size="2">193</font></td><td><b><font size="2"><a href="/movies/?id=animalkingdom.htm">Animal Kingdom</a></font></b></td><td><font size="2"><a href="/studio/chart/?studio=sonyclassics.htm">SPC</a></font></td><td align="right"><font size="2"><b>$1,044,039</b></font></td><td align="right"><font size="2">61</font></td><td align="right"><font size="2">$61,968</font></td><td align="right"><font size="2">7</font></td><td align="right"><font size="2"><a href="/schedule/?view=bydate&release=theatrical&date=2010-08-13&p=.htm">8/13</a></font></td><td align="right"><font size="2">3/17</font></td></tr><tr bgcolor="#f4f4ff"><td align="center"><font size="2">194</font></td><td><b><font size="2"><a href="/movies/?id=casinojack2.htm">Casino Jack</a></font></b></td><td><font size="2"><a href="/studio/chart/?studio=atopictures.htm">ATO</a></font></td><td align="right"><font size="2"><b>$1,042,959</b></font></td><td align="right"><font size="2">60</font></td><td align="right"><font size="2">$34,528</font></td><td align="right"><font size="2">7</font></td><td align="right"><font size="2"><a href="/schedule/?view=bydate&release=theatrical&date=2010-12-17&p=.htm">12/17</a></font></td><td align="right"><font size="2">4/7</font></td></tr><tr bgcolor="#ffffff"><td align="center"><font size="2">195</font></td><td><b><font size="2"><a href="/movies/?id=perfectgame.htm">The Perfect Game</a></font></b></td><td><font size="2"><a href="/studio/chart/?studio=industryworks.htm">IW</a></font></td><td align="right"><font size="2"><b>$1,037,071</b></font></td><td align="right"><font size="2">417</font></td><td align="right"><font size="2">$511,698</font></td><td align="right"><font size="2">417</font></td><td align="right"><font size="2"><a href="/schedule/?view=bydate&release=theatrical&date=2010-04-16&p=.htm">4/16</a></font></td><td align="right"><font size="2">5/13</font></td></tr><tr bgcolor="#f4f4ff"><td align="center"><font size="2">196</font></td><td><b><font size="2"><a href="/movies/?id=2010oscarshorts.htm">2010 Oscar Shorts</a></font></b></td><td><font size="2"><a href="/studio/chart/?studio=shortsinternational.htm">Shrts.</a></font></td><td align="right"><font size="2"><b>$1,018,169</b></font></td><td align="right"><font size="2">95</font></td><td align="right"><font size="2">$291,360</font></td><td align="right"><font size="2">95</font></td><td align="right"><font size="2"><a href="/schedule/?view=bydate&release=theatrical&date=2010-02-19&p=.htm">2/19</a></font></td><td align="right"><font size="2">4/29</font></td></tr><tr bgcolor="#ffffff"><td align="center"><font size="2">197</font></td><td><b><font size="2"><a href="/movies/?id=guzaarish.htm">Guzaarish</a></font></b></td><td><font size="2"><a href="/studio/chart/?studio=utv.htm">UTV</a></font></td><td align="right"><font size="2"><b>$1,017,335</b></font></td><td align="right"><font size="2">108</font></td><td align="right"><font size="2">$488,121</font></td><td align="right"><font size="2">108</font></td><td align="right"><font size="2"><a href="/schedule/?view=bydate&release=theatrical&date=2010-11-19&p=.htm">11/19</a></font></td><td align="right"><font size="2">12/16</font></td></tr><tr bgcolor="#f4f4ff"><td align="center"><font size="2">198</font></td><td><b><font size="2"><a href="/movies/?id=salvationpoem.htm">The Salvation Poem (Poema de Salvacion)</a></font></b></td><td><font size="2"><a href="/studio/chart/?studio=canzion.htm">CZ</a></font></td><td align="right"><font size="2"><b>$914,818</b></font></td><td align="right"><font size="2">30</font></td><td align="right"><font size="2">N/A</font></td><td align="right"><font size="2">N/A</font></td><td align="right"><font size="2"><a href="/schedule/?view=bydate&release=theatrical&date=2010-08-27&p=.htm">8/27</a></font></td><td align="right"><font size="2">9/1</font></td></tr><tr bgcolor="#ffffff"><td align="center"><font size="2">199</font></td><td><b><font size="2"><a href="/movies/?id=wildestdream.htm">The Wildest Dream</a></font></b></td><td><font size="2"><a href="/studio/chart/?studio=nationalgeographiccinema.htm">NGE</a></font></td><td align="right"><font size="2"><b>$898,137</b></font></td><td align="right"><font size="2">21</font></td><td align="right"><font size="2">$67,848</font></td><td align="right"><font size="2">12</font></td><td align="right"><font size="2"><a href="/schedule/?view=bydate&release=theatrical&date=2010-08-06&p=.htm">8/6</a></font></td><td align="right"><font size="2">7/7</font></td></tr><tr bgcolor="#f4f4ff"><td align="center"><font size="2">200</font></td><td><b><font size="2"><a href="/movies/?id=princesskaiulani.htm">Princess Kaiulani</a></font></b></td><td><font size="2"><a href="/studio/chart/?studio=roadsideattractions.htm">RAtt.</a></font></td><td align="right"><font size="2"><b>$883,887</b></font></td><td align="right"><font size="2">47</font></td><td align="right"><font size="2">$186,995</font></td><td align="right"><font size="2">33</font></td><td align="right"><font size="2"><a href="/schedule/?view=bydate&release=theatrical&date=2010-05-14&p=.htm">5/14</a></font></td><td align="right"><font size="2">9/30</font></td></tr><tr bgcolor="#dcdcdc"><td colspan="9" align="center"><font size="2"><b>Summary of 536 Movies on Chart:</b></font></td></tr><tr bgcolor="#f4f4ff"><td align="right" colspan="3"><font size="2"><b>Totals:</b></td><td align="right"><font size="2">$10,206,497,818</font></td><td align="center"><font size="2">-</font></td><td align="center"><font size="2">-</font></td><td align="center"><font size="2">-</font></td><td align="center"><font size="2">-</font></td><td align="center"><font size="2">-</font></td></tr><tr bgcolor="#ffffff"><td align="right" colspan="3"><font size="2"><b>Averages:</b></td><td align="right"><font size="2">$19,041,974</font></td><td align="right"><font size="2">-</font></td><td align="right"><font size="2">-</font></td><td align="right"><font size="2">-</font></td><td align="center"><font size="2">-</font></td><td align="center"><font size="2">-</font></td></tr><tr bgcolor="#dcdcdc"><td colspan="9"><img src="/images/space.gif" width="1" height="1"></td></tr></table></td></tr><tr><td valign="bottom"><font face="Verdana" size="1"><b><a href="/yearly/chart/?yr=2009&view=releasedate&view2=domestic&sort=gross&order=DESC&&p=.htm">&lt; Previous Year</a></b></font></td><td align="center"><table border="0" cellspacing="0" cellpadding="0">\n\t\t\t\t\t<form method="POST" action="yearly.asof.php" name="asofjump">\n\t\t\t\t\t<tr><td><font face="Verdana" size="1"><br>Data as of:\n\t\t\t\t\t<select size="1" name="asof" style="font-size: 8pt">\n\t\t\t\t\t<option selected value="today">Today</option>\n\t\t\t\t\t<option  value="sametime">Today in 2010</option>\n\t\t\t\t\t<option value="2010-01-31">Jan. 31, 2010</option>\n\t\t\t\t\t<option value="2010-02-28">Feb. 28, 2010</option>\n\t\t\t\t\t<option value="2010-03-31">Mar. 31, 2010</option>\n\t\t\t\t\t<option value="2010-04-30">Apr. 30, 2010</option>\n\t\t\t\t\t<option value="2010-05-31">May 31, 2010</option>\n\t\t\t\t\t<option value="2010-06-30">Jun. 30, 2010</option>\n\t\t\t\t\t<option value="2010-07-31">Jul. 31, 2010</option>\n\t\t\t\t\t<option value="2010-08-31">Aug. 31, 2010</option>\n\t\t\t\t\t<option value="2010-09-30">Sep. 30, 2010</option>\n\t\t\t\t\t<option value="2010-10-31">Oct. 31, 2010</option>\n\t\t\t\t\t<option value="2010-11-30">Nov. 30, 2010</option>\n\t\t\t\t\t<option value="2010-12-31">Dec. 31, 2010</option>\n\t\t\t\t\t<option value="specify">Specify Date</option>\n\t\t\t\t\t<option value="about">About this feature</option>\n\t\t\t\t\t</select> or (<select size="1" name="asof_mo" style="font-size: 8pt">\n\t\t\t\t\t<option selected value="">Month</option>\n\t\t\t\t\t\n\t\t\t\t\t<option value="01">Jan.</option>\n\t\t\t\t\t<option value="02">Feb.</option>\n\t\t\t\t\t<option value="03">Mar.</option>\n\t\t\t\t\t<option value="04">Apr.</option>\n\t\t\t\t\t<option value="05">May</option>\n\t\t\t\t\t<option value="06">Jun.</option>\n\t\t\t\t\t<option value="07">Jul.</option>\n\t\t\t\t\t<option value="08">Aug.</option>\n\t\t\t\t\t<option value="09">Sep.</option>\n\t\t\t\t\t<option value="10">Oct.</option>\n\t\t\t\t\t<option value="11">Nov.</option>\n\t\t\t\t\t<option value="12">Dec.</option>\n\t\t\t\t\t</select> / <select size="1" name="asof_day" style="font-size: 8pt">\n\t\t\t\t\t<option selected value="">Day</option>\n\t\t\t\t\t<option value="01">1</option>\n\t\t\t\t\t<option value="02">2</option>\n\t\t\t\t\t<option value="03">3</option>\n\t\t\t\t\t<option value="04">4</option>\n\t\t\t\t\t<option value="05">5</option>\n\t\t\t\t\t<option value="06">6</option>\n\t\t\t\t\t<option value="07">7</option>\n\t\t\t\t\t<option value="08">8</option>\n\t\t\t\t\t<option value="09">9</option>\n\t\t\t\t\t<option value="10">10</option>\n\t\t\t\t\t<option value="11">11</option>\n\t\t\t\t\t<option value="12">12</option>\n\t\t\t\t\t<option value="13">13</option>\n\t\t\t\t\t<option value="14">14</option>\n\t\t\t\t\t<option value="15">15</option>\n\t\t\t\t\t<option value="16">16</option>\n\t\t\t\t\t<option value="17">17</option>\n\t\t\t\t\t<option value="18">18</option>\n\t\t\t\t\t<option value="19">19</option>\n\t\t\t\t\t<option value="20">20</option>\n\t\t\t\t\t<option value="21">21</option>\n\t\t\t\t\t<option value="22">22</option>\n\t\t\t\t\t<option value="23">23</option>\n\t\t\t\t\t<option value="24">24</option>\n\t\t\t\t\t<option value="25">25</option>\n\t\t\t\t\t<option value="26">26</option>\n\t\t\t\t\t<option value="27">27</option>\n\t\t\t\t\t<option value="28">28</option>\n\t\t\t\t\t<option value="29">29</option>\n\t\t\t\t\t<option value="30">30</option>\n\t\t\t\t\t<option value="31">31</option>\n\t\t\t\t\t</select> / <select size="1" name="asof_yr" style="font-size: 8pt">\n\t\t\t\t\t\t<option selected>2010</option>\n\t\t\t\t\t\t<option>2011</option>\n\t\t\t\t\t\t</select>) <input type="submit" value="Go" name="go" style="font-size: 8pt; height: 16">\n\t\t\t\t\t</font></td></tr>\n\t\t\t\t\t<input type="hidden" name="jumpstuff" value="view=releasedate&view2=domestic&yr=2010&sort=gross&order=DESC&p=.htm">\n\t\t\t\t\t<input type="hidden" name="curasof" value="today">\n\t\t\t\t\t<input type="hidden" name="yr" value="2010">\n\t\t\t\t\t</form>\n\t\t\t\t\t</table>\n\t\t\t\t</font></td><td valign="bottom" align="right"><font face="Verdana" size="1"><b><a href="/yearly/chart/?yr=2011&view=releasedate&view2=domestic&sort=gross&order=DESC&&p=.htm">Next Year &gt;</a></b></font></td></tr></table><center><font face="Verdana" size="4"><b><a href="/yearly/chart/?page=1&view=releasedate&view2=domestic&yr=2010&p=.htm">#1&#150;100</a> - <font face="Verdana" size="5">#101&#150;200</font> - <a href="/yearly/chart/?page=3&view=releasedate&view2=domestic&yr=2010&p=.htm">#201&#150;300</a> - <a href="/yearly/chart/?page=4&view=releasedate&view2=domestic&yr=2010&p=.htm">#301&#150;400</a> - <a href="/yearly/chart/?page=5&view=releasedate&view2=domestic&yr=2010&p=.htm">#401&#150;500</a> - <a href="/yearly/chart/?page=6&view=releasedate&view2=domestic&yr=2010&p=.htm">#501&#150;536</a></b></font></center><br><font face="Verdana" size="2">Note: <b>RELEASE DATE</b> shows all movies that opened in a given time period and their total grosses. <b>WIDE RELEASES</b> shows only movies released in 600 or more theaters and their total grosses, grouped by wide release date. <b>LIMITED RELEASES</b> shows only movies released in less than 600 theaters and their total grosses, grouped by release date. <b>CALENDAR GROSSES</b> shows all movies playing during the indicated time period, both new and holdover, and their grosses (or estimated grosses) during that time period. Movies released outside the indicated time period are shown in italics. <b><a href="/about/boxoffice.htm">Click here for a full explanation of the various box office sections</a></b></font><br><br>\n<P ALIGN="CENTER"><A HREF="/yearly/"><FONT FACE="Verdana" SIZE=2><b>back to<br>Yearly Index Page</b></FONT></A></P>\n<br>\n</td><td valign="top" align="center" width="160"><br><br><br><br><br><br><!-- begin ad tag (tile=2) -->\r\n<script type="text/javascript">\r\n//<![CDATA[\r\nord=1263676912;\r\ndocument.write(\'<iframe src="http://ad.doubleclick.net/N4215/adi/imdb2.bom.other/;p=rh;tile=2;sz=160x600,120x600,115x600;oe=ISO-8859-1;ord=\' + ord + \'?" width="160" height="600" marginwidth="0" marginheight="0" frameborder="0" scrolling="no">\');\r\n\r\nif (navigator.userAgent.indexOf("Gecko")==-1)\r\n{\r\ndocument.write(\'<script type="text/javascript" src="http://ad.doubleclick.net/N4215/adj/imdb2.bom.other/;p=rh;tile=2;sz=160x600,115x600;abr=!ie;oe=ISO-8859-1;ord=\' + ord + \'?"><\\/script>\');\r\n}\r\ndocument.write(\'</iframe>\');\r\n//]]>\r\n</script>\r\n<noscript><a href="http://ad.doubleclick.net/N4215/jump/imdb2.bom.other/;p=rh;tile=2;sz=160x600;oe=ISO-8859-1;ord=1263676912?" target="_blank" ><img src="http://ad.doubleclick.net/N4215/ad/imdb2.bom.other/;p=rh;tile=2;sz=160x600,115x600;oe=ISO-8859-1;ord=1263676912?" border="0" alt="" /></a></noscript>\r\n<!-- end ad tag --></td></tr></table><table border="0" width="100%" cellspacing="0" cellpadding="3">\n\t<tr>\n\t\t<td bgcolor="#FFFFFF" align="center"><b><font face="Verdana" size="1"><a href="/yearly/chart/?view=releasedate&view2=domestic&page=2&yr=2010&p=.htm">ALL RELEASES</a></font></b></td>\n\t\t<td bgcolor="#DCDCDC" align="center"><b><font face="Verdana" size="1"><a href="/yearly/chart/?view=widedate&view2=domestic&page=2&yr=2010&p=.htm">WIDE RELEASES</font></b></td>\n\t\t<td bgcolor="#DCDCDC" align="center"><b><font face="Verdana" size="1"><a href="/yearly/chart/?view=limited&view2=domestic&page=2&yr=2010&p=.htm">LIMITED RELEASES</font></b></td>\n\t\t\t\t<td bgcolor="#DCDCDC" align="center"><b><font face="Verdana" size="1"><a href="/yearly/chart/?view=calendargross&view2=domestic&page=2&yr=2010&p=.htm">CALENDAR GROSSES</font></b></td>\n\t\t\t</tr>\n</table>\n<table border="0" cellspacing="0" cellpadding="0" width="100%">\n  <tr><td bgcolor="#8b0000" height="1" colspan="2"><img src="/images/space.gif" border="0" width="1" height="5"></td></tr>\n</table>\n\n</td></tr></table>\n\n\t</div>\n\t</div>\n\t<div id="hp_footer">\n\t\t<div style="padding-bottom: 20px;">\n\n\t\t\t<div style="margin: 0px 121px; vertical-align: top;">\n\t\t\t\t<div id="footer_links">\n\t\t\t\t\t<ul class="footer_link_list">\n\t\t\t\t\t\t<li><strong>Latest Updates</strong></li>\n\t\t\t\t\t\t<li><a href="/news/?ref=ft">Movie News</a>\n\t\t\t\t\t\t<li><a href="/daily/chart/?ref=ft">Daily Chart</a></li>\n\t\t\t\t\t\t<li><a href="/weekend/chart/?ref=ft">Weekend Chart</a></li>\n\t\t\t\t\t\t<li><a href="/alltime/?ref=ft">All Time Charts</a></li>\n\t\t\t\t\t\t<li><a href="/intl/?ref=ft">International Charts</a></li>\n\t\t\t\t\t</ul>\n\t\t\t\t\t<!--\n\t\t\t\t\t<ul class="footer_link_list">\n\t\t\t\t\t\t<li><strong>Popular Movies</strong></li>\n\t\t\t\t\t\t\t\t\t\t\t</ul>\n\t\t\t\t\t-->\n\t\t\t\t\t<ul class="footer_link_list">\n\t\t\t\t\t\t<li><strong>Indices</strong></li>\n\t\t\t\t\t\t<li><a href="/movies/?ref=ft">Movies A-Z</a></li>\n\t\t\t\t\t\t<li><a href="/people/?ref=ft">People</a></li>\n\t\t\t\t\t\t<li><a href="/genres/?ref=ft">Genres</a></li>\n\t\t\t\t\t\t<li><a href="/franchises/?ref=ft">Franchises</a></li>\n\t\t\t\t\t\t<li><a href="/showdowns/?ref=ft">Showdowns</a></li>\n\t\t\t\t\t</ul>\n\t\t\t\t\t<ul class="footer_link_list">\n\t\t\t\t\t\t<li><strong>Other</strong></li>\n\t\t\t\t\t\t<li><a href="/about/?ref=ft">About This Site</a></li>\n\t\t\t\t\t\t<li><a href="/about/advertise.htm?ref=ft">Advertising</a></li>\n\t\t\t\t\t\t<li><a href="/users/?ref=ft">My Account</a></li>\n\t\t\t\t\t\t<li><a href="/about/rss.htm?ref=ft">RSS Feeds</a></li>\n\t\t\t\t\t</ul>\n\t\t\t\t</div>\n\t\t\t\t<div id="copyright">\n\t\t\t\t\t<a href="/?ref=ft"><img src="/img/misc/bom_logo1.png" width="245" height="56" alt="Box Office Mojo"></a><br>\n\t\t\t\t\t<p>An <a href="http://imdb.com/"><img src="/img/misc/IMDbSm.png" width="34" height="16" alt="IMDb" valign="middle"></a> company<br><br></p>\n\t\t\t\t\t<p>&copy; <a href="http://imdb.com/">IMDb.com</a>, Inc. or its affiliates. All rights reserved. Box Office Mojo and IMDb are trademarks or registered trademarks of IMDb.com, Inc. or its affiliates. <a href="/about/termsofuse.htm">Terms of Use</a> and <a href="/about/privacy.htm">Privacy Policy</a> under which this service is provided to you.</p>\n\t\t\t\t\t</div>\t\t\t\n\t\t\t\t</div>\n\t\t\t\t<div style="clear:both;">\n\t\t\t\t<div>\n\t\t\t\t <!-- begin ad tag (tile=6) -->\r\n<script type="text/javascript">\r\n//<![CDATA[\r\nord=1263676912;\r\ndocument.write(\'<iframe src="http://ad.doubleclick.net/N4215/adi/imdb2.bom.other/;p=b;tile=3;sz=728x90;oe=ISO-8859-1;ord=\' + ord + \'?" width="728" height="90" marginwidth="0" marginheight="0" frameborder="0" scrolling="no">\');\r\n\r\nif (navigator.userAgent.indexOf("Gecko")==-1)\r\n{\r\ndocument.write(\'<script type="text/javascript" src="http://ad.doubleclick.net/N4215/adj/imdb2.bom.other/;p=b;tile=3;sz=728x90;abr=!ie;oe=ISO-8859-1;ord=\' + ord + \'?"><\\/script>\');\r\n}\r\ndocument.write(\'<\\/iframe>\');\r\n//]]>\r\n</script>\r\n<noscript><a href="http://ad.doubleclick.net/N4215/jump/imdb2.bom.other/;p=b;tile=3;sz=728x90;oe=ISO-8859-1;ord=1263676912?" target="_blank" ><img src="http://ad.doubleclick.net/N4215/ad/imdb2.bom.other/;p=b;tile=3;sz=728x90;oe=ISO-8859-1;ord=1263676912?" border="0" alt="" ></a></noscript>\r\n<!-- end ad tag --></div>\n\n\t\t\t\t</div>\n\t</div>\n</div>\n\n\n\n\n\n<!-- Page generated in 0.10 seconds | . -->\n<script>\n  var _comscore = _comscore || [];\n  _comscore.push({ c1: "2", c2: "6034961" });\n  (function() {\n    var s = document.createElement("script"), el = document.getElementsByTagName("script")[0]; s.async = true;\n    s.src = (document.location.protocol == "https:" ? "https://sb" : "http://b") + ".scorecardresearch.com/beacon.js";\n  el.parentNode.insertBefore(s, el);\n  })();\n</script>\n<noscript>\n    <img src="http://b.scorecardresearch.com/p?c1=2&c2=6034961&cv=2.0&cj=1" />\n</noscript>\n\n</body>\n</html>\n'
p30
sS'encoding'
p31
S'ISO-8859-1'
p32
sS'url'
p33
Vhttp://www.boxofficemojo.com/yearly/chart/?page=2&view=releasedate&view2=domestic&yr=2010&p=.htm
p34
sS'status_code'
p35
I200
sS'request'
p36
g0
(crequests.models
PreparedRequest
p37
g2
Ntp38
Rp39
(dp40
S'body'
p41
Nsg33
S'http://www.boxofficemojo.com/yearly/chart/?page=2&view=releasedate&view2=domestic&yr=2010&p=.htm'
p42
sS'hooks'
p43
(dp44
S'response'
p45
(lp46
ssS'headers'
p47
g0
(crequests.structures
CaseInsensitiveDict
p48
g2
Ntp49
Rp50
(dp51
S'_store'
p52
(dp53
S'connection'
p54
(S'Connection'
p55
S'keep-alive'
p56
tp57
sS'accept-encoding'
p58
(S'Accept-Encoding'
p59
S'gzip, deflate'
p60
tp61
sS'accept'
p62
(S'Accept'
p63
S'*/*'
p64
tp65
sS'user-agent'
p66
(S'User-Agent'
p67
S'python-requests/2.7.0 CPython/2.7.10 Darwin/14.5.0'
p68
tp69
ssbsg27
g0
(g7
g2
Ntp70
Rp71
(dp72
g11
I1444069025
sg12
(icookielib
DefaultCookiePolicy
p73
(dp74
g15
I01
sg16
I0
sg17
Nsg18
Nsg19
I00
sg20
I00
sg11
I1444069025
sg21
I00
sg22
I00
sg23
I00
sg24
I00
sg25
(tsg26
I01
sbsg27
(dp75
sbsS'method'
p76
S'GET'
p77
sbsS'elapsed'
p78
cdatetime
timedelta
p79
(I0
I0
I135385
tp80
Rp81
sg47
g0
(g48
g2
Ntp82
Rp83
(dp84
g52
(dp85
S'content-length'
p86
(S'content-length'
p87
S'18106'
p88
tp89
sS'x-xss-protection'
p90
(S'x-xss-protection'
p91
S'1; mode=block'
p92
tp93
sS'x-content-type-options'
p94
(S'x-content-type-options'
p95
S'nosniff'
p96
tp97
sS'content-encoding'
p98
(S'content-encoding'
p99
S'gzip'
p100
tp101
sS'expires'
p102
(S'expires'
p103
S'Thu, 19 Nov 1981 08:52:00 GMT'
p104
tp105
sS'server'
p106
(S'server'
p107
S'Server'
p108
tp109
sS'connection'
p110
(S'connection'
p111
S'keep-alive'
p112
tp113
sS'x-permitted-cross-domain-policies'
p114
(S'x-permitted-cross-domain-policies'
p115
S'master-only'
p116
tp117
sS'pragma'
p118
(S'pragma'
p119
S'no-cache'
p120
tp121
sS'cache-control'
p122
(S'cache-control'
p123
S'no-store, no-cache, must-revalidate, post-check=0, pre-check=0'
p124
tp125
sS'date'
p126
(S'date'
p127
S'Mon, 05 Oct 2015 18:16:06 GMT'
p128
tp129
sS'x-frame-options'
p130
(S'x-frame-options'
p131
S'SAMEORIGIN'
p132
tp133
sS'content-type'
p134
(S'content-type'
p135
S'text/html'
p136
tp137
ssbsS'reason'
p138
S'OK'
p139
sS'history'
p140
(lp141
sb.