ccopy_reg
_reconstructor
p0
(crequests.models
Response
p1
c__builtin__
object
p2
Ntp3
Rp4
(dp5
S'cookies'
p6
g0
(crequests.cookies
RequestsCookieJar
p7
g2
Ntp8
Rp9
(dp10
S'_now'
p11
I1444069024
sS'_policy'
p12
(icookielib
DefaultCookiePolicy
p13
(dp14
S'strict_rfc2965_unverifiable'
p15
I01
sS'strict_ns_domain'
p16
I0
sS'_allowed_domains'
p17
NsS'rfc2109_as_netscape'
p18
NsS'rfc2965'
p19
I00
sS'strict_domain'
p20
I00
sg11
I1444069024
sS'strict_ns_set_path'
p21
I00
sS'strict_ns_unverifiable'
p22
I00
sS'strict_ns_set_initial_dollar'
p23
I00
sS'hide_cookie2'
p24
I00
sS'_blocked_domains'
p25
(tsS'netscape'
p26
I01
sbsS'_cookies'
p27
(dp28
sbsS'_content'
p29
S'<!DOCTYPE html PUBLIC "-//W3C//DTD HTML 4.01 Transitional//EN" "http://www.w3.org/TR/html4/loose.dtd">\n<html lang="en">\n<HEAD>\n<TITLE>2012 Yearly Box Office Results - Box Office Mojo</TITLE>\n<META NAME="keywords" CONTENT="2012, year, yearly, box, office, result, list, movie, movies, listing, listings, top movies, all time, film">\n<META NAME="description" CONTENT="Yearly box office results for 2012.">\n<link rel="stylesheet" href="/css/mojo.css?1" type="text/css" media="screen" title="no title" charset="utf-8">\n<link rel="stylesheet" href="/css/mojo.css?1" type="text/css" media="print" title="no title" charset="utf-8"></head>\n<body>\n\t<iframe id="sis_pixel_sitewide" width="1" height="1" frameborder="0" marginwidth="0" marginheight="0" style="display: none;"></iframe>\n<script>\n    setTimeout(function(){\n        try{\n            //sis3.0 pixel\n            var cacheBust = Math.random() * 10000000000000000,\n                url_sis3 = \'http://s.amazon-adsystem.com/iu3?\',\n                params_sis3 = [\n                    "d=boxofficemojo.com",\n                    "cb=" + cacheBust\n                ];\n\n            (document.getElementById(\'sis_pixel_sitewide\')).src = url_sis3 + params_sis3.join(\'&\');\n        }catch(e){\n            if (window.ueLogError) { \n                window.ueLogError(e);\n            }\n        }\n    }, 5);\n</script>\n\n<div id="container">\n<div>\n<!-- GOOGLE ANALYTICS CODE STARTS -->\n<script type="text/javascript">\n\n  var _gaq = _gaq || [];\n  _gaq.push([\'_setAccount\', \'UA-2831726-1\']);\n  _gaq.push([\'_trackPageview\']);\n\n  (function() {\n    var ga = document.createElement(\'script\'); ga.type = \'text/javascript\'; ga.async = true;\n    ga.src = (\'https:\' == document.location.protocol ? \'https://ssl\' : \'http://www\') + \'.google-analytics.com/ga.js\';\n    (document.getElementsByTagName(\'head\')[0] || document.getElementsByTagName(\'body\')[0]).appendChild(ga);\n  })();\n\n</script>\n<!-- GOOGLE ANALYTICS CODE ENDS -->\n\t<div id="hp_banner">\n\t<div id="top_links">\n\t\t<div style="float: left"><a href="/daily/chart/">Daily Box Office (Sun.)</a> | <a href="/weekend/chart/">Weekend Box Office (Oct. 2&ndash;4)</a> | <a href="/movies/?id=scott2016.htm">#1 Movie: \'The Martian\'</a> | <a href="http://www.imdb.com/showtimes/?ref_=mojo">Showtimes</a></div>\n\t\t<div style="float: right">Updated 10/4/2015 7:11 P.M. Pacific Time</div>\n\t\t<div style="clear:both; height: 0px"></div>\n\t</div>\n</div>\n\t\t\n<div id="header">\n\t<div id="leaderboard"><!-- begin ad tag (tile=1) -->\r\n<script type="text/javascript">\r\n//<![CDATA[\r\nord=242234425;\r\ndocument.write(\'<iframe src="http://ad.doubleclick.net/N4215/adi/imdb2.bom.other/;p=t;tile=1;sz=728x90;oe=ISO-8859-1;ord=\' + ord + \'?" width="728" height="90" marginwidth="0" marginheight="0" frameborder="0" scrolling="no">\');\r\n\r\nif (navigator.userAgent.indexOf("Gecko")==-1)\r\n{\r\ndocument.write(\'<script type="text/javascript" src="http://ad.doubleclick.net/N4215/adj/imdb2.bom.other/;p=t;tile=1;sz=728x90;abr=!ie;oe=ISO-8859-1;ord=\' + ord + \'?"><\\/script>\');\r\n}\r\ndocument.write(\'<\\/iframe>\');\r\n//]]>\r\n</script>\r\n<noscript><a href="http://ad.doubleclick.net/N4215/jump/imdb2.bom.other/;p=t;tile=1;sz=728x90;oe=ISO-8859-1;ord=242234425?" target="_blank" ><img src="http://ad.doubleclick.net/N4215/ad/imdb2.bom.other/;p=t;tile=1;sz=728x90;oe=ISO-8859-1;ord=242234425?" border="0" alt="" ></a></noscript>\r\n<!-- end ad tag --></div>\t<div id="hp_logo"><a href="/"><img src="/img/misc/bom_logo1.png" width="245" height="56" alt="Box Office Mojo"></a></div>\n\t<div style="clear:both; height: 0px"></div>\n</div>\n\n\n</div>\n\n\n<div id="main">\n<!-- COLUMN 1 of 4 -->\n\t<div id="leftnav">\n<!-- google_ad_section_start(weight=ignore) -->\n<!-- <table id="navleft" cellspacing="0" cellpadding="2" border="0"> -->\n<ul id="leftnav">\n<li class="nl_section">Search Site</li>\n<li class="nl_link" style="padding-left:0px">\n\t<form name="searchbox" method="POST" action="/search/q.php">\n\t<input name="q"  type="text" style="font-size: 9 pt; font-weight: bold; width: 90px;"><br>\n\t<input type="submit" value="Search..." ></form> \n</li>\n<li class=\'nl_section\'>Social</li>\n<li class="nl_link"><a href="http://facebook.com/boxofficemojo" style="vertical-align:middle;"><img src="/images/FaceBook_16x16.png" border="0" alt="Facebook Logo">Facebook</a></li>\n<li class="nl_link"><a href="http://twitter.com/boxofficemojo" style="vertical-align:middle;"><img src="/images/Twitter_16x16.png" border="0" alt="Twitter Logo">Twitter</a></li>\n\n<li class=\'nl_section\'>Features</li>\n<li class=\'nl_link\'><a href="/news/">News</a></li>\n<li class=\'nl_link\'><a href="/schedule/">Release Sched.</a></li>\n<li class=\'nl_link\'><a href="http://www.imdb.com/showtimes?ref_=mojo">Showtimes<br/><span style="margin-left:7px;color: #999999; font-size: 9px;">at <img src="/images/mojo_imdb_sm.png"/></span></a></li>\n<li class=\'nl_section\'>Box Office</li>\n<li class=\'nl_link\'><a href="/daily/">Daily</a></li>\n<li class=\'nl_link\'><a href="/weekend/">Weekend</a></li>\n<li class=\'nl_link\'><a href="/weekly/">Weekly</a></li>\n<li class=\'nl_link\'><a href="/monthly/">Monthly</a></li>\n<li class=\'nl_link\'><a href="/quarterly/">Quarterly</a></li>\n<li class=\'nl_link\'><a href="/seasonal/">Seasonal</a></li>\n<li class=\'nl_link_current\'><a href="/yearly/">Yearly</a></li>\n<li class=\'nl_link\'><a href="/alltime/">All Time</a></li>\n<li class=\'nl_link\'><a href="/chartwatch/">Chart Watch</a></li>\n<li class=\'nl_link\'><a href="/intl/">International</a></li>\n<li class=\'nl_section\'>Indices</li>\n<li class=\'nl_link\'><a href="/movies/">Movies A-Z</a></li>\n<li class=\'nl_link\'><a href="/studio/">Studios</a></li>\n<li class=\'nl_link\'><a href="/people/">People</a></li>\n<li class=\'nl_link\'><a href="/genres/">Genres</a></li>\n<li class=\'nl_link\'><a href="/franchises/">Franchises</a></li>\n<li class=\'nl_link\'><a href="/showdowns/">Showdowns</a></li>\n<li class=\'nl_link\'><a href="/oscar/">Oscar</a></li>\n<li class=\'nl_link\'><a href="/counts/">Theater Counts</a></li>\n</ul>\n</div>\n\t<div id="body">\n\t<div id="addthis"><table border="0" cellspacing="0" cellpadding="0">\r\n<tr>\r\n<form method="POST" action="/adjuster.php" name="adjuster">\r\n<input type="hidden" name="returnURL" value="/yearly/chart/?page=2&amp;view=releasedate&amp;view2=domestic&amp;yr=2012&amp;p=.htm">\r\n<td valign="center">\r\n  <font face="Verdana" size="2"><a href="/about/adjuster.htm"><b>Adjuster:</b></a></font>\r\n  <select size="1" name="ticketyr" style="font-family: Verdana; font-size: 10pt">\r\n  <option value="0" selected>Actuals</option>\r\n  <option value="1" >Est. Tckts</option>\r\n<script language="javascript">\r\n  for(i=2015; i>=1933; i--) {\r\n  \tdocument.write(\'<option value="\' + i + \'"\');\r\n\tif(i==\'0\') document.write(\' selected\');\r\n\tdocument.write(\'>\' + i );\r\n\tif(i==\'0\') document.write(\', $\' + \'0.00\');\r\n\tdocument.write(\'</option>\');\r\n  }\r\n</script>\r\n  <option value="1929" >1929</option>\r\n  <option value="1924" >1924</option>\r\n  <option value="1910" >1910</option>\r\n  </select><input type="submit" name="Go" value="Go" style="font-size: 10pt; height: 22">\r\n\r\n</td></form></tr></table>\r\n\r\n</div>\t\n\t<h2><a href="/yearly/">Yearly Box Office</a></h2>\n\n\t<table border="0" cellpadding="0" cellspacing="0" width="100%">\n\t\t<tr><td bgcolor="#8b0000" colspan="2"><img src="/images/space.gif" border="0" width="1" height="5"></td></tr>\n\t</table>\n\t\n<table border="0" width="100%" cellspacing="0" cellpadding="3">\n\t<tr>\n\t\t<td bgcolor="#FFFFFF" align="center"><b><font face="Verdana" size="1"><a href="/yearly/chart/?view=releasedate&view2=domestic&page=2&yr=2012&p=.htm">ALL RELEASES</a></font></b></td>\n\t\t<td bgcolor="#DCDCDC" align="center"><b><font face="Verdana" size="1"><a href="/yearly/chart/?view=widedate&view2=domestic&page=2&yr=2012&p=.htm">WIDE RELEASES</font></b></td>\n\t\t<td bgcolor="#DCDCDC" align="center"><b><font face="Verdana" size="1"><a href="/yearly/chart/?view=limited&view2=domestic&page=2&yr=2012&p=.htm">LIMITED RELEASES</font></b></td>\n\t\t\t\t<td bgcolor="#DCDCDC" align="center"><b><font face="Verdana" size="1"><a href="/yearly/chart/?view=calendargross&view2=domestic&page=2&yr=2012&p=.htm">CALENDAR GROSSES</font></b></td>\n\t\t\t</tr>\n</table>\n<table border="0" cellspacing="0" cellpadding="0" width="100%"><tr><td valign="top" align="center"><br>\n<h1>2012 DOMESTIC GROSSES</h1><p>Total Grosses of all Movies Released in 2012</h1></b></FONT></p>\n\n<center><font face="Verdana" size="4"><b><a href="/yearly/chart/?page=1&view=releasedate&view2=domestic&yr=2012&p=.htm">#1&#150;100</a> - <font face="Verdana" size="5">#101&#150;200</font> - <a href="/yearly/chart/?page=3&view=releasedate&view2=domestic&yr=2012&p=.htm">#201&#150;300</a> - <a href="/yearly/chart/?page=4&view=releasedate&view2=domestic&yr=2012&p=.htm">#301&#150;400</a> - <a href="/yearly/chart/?page=5&view=releasedate&view2=domestic&yr=2012&p=.htm">#401&#150;500</a> - <a href="/yearly/chart/?page=6&view=releasedate&view2=domestic&yr=2012&p=.htm">#501&#150;600</a> - <a href="/yearly/chart/?page=7&view=releasedate&view2=domestic&yr=2012&p=.htm">#601&#150;665</a></b></font></center><table border="0" cellspacing="0" cellpadding="0"><tr><td valign="bottom"><font face="Verdana" size="1"><b><a href="/yearly/chart/?yr=2011&view=releasedate&view2=domestic&sort=gross&order=DESC&&p=.htm">&lt; Previous Year</a></b></font></td><td align="center"><table border="0" cellspacing="0" cellpadding="0">\n\t\t\t\t\t<form method="POST" action="yearly.asof.php" name="asofjump">\n\t\t\t\t\t<tr><td><font face="Verdana" size="1"><br>Data as of:\n\t\t\t\t\t<select size="1" name="asof" style="font-size: 8pt">\n\t\t\t\t\t<option selected value="today">Today</option>\n\t\t\t\t\t<option  value="sametime">Today in 2012</option>\n\t\t\t\t\t<option value="2012-01-31">Jan. 31, 2012</option>\n\t\t\t\t\t<option value="2012-02-29">Feb. 29, 2012</option>\n\t\t\t\t\t<option value="2012-03-31">Mar. 31, 2012</option>\n\t\t\t\t\t<option value="2012-04-30">Apr. 30, 2012</option>\n\t\t\t\t\t<option value="2012-05-31">May 31, 2012</option>\n\t\t\t\t\t<option value="2012-06-30">Jun. 30, 2012</option>\n\t\t\t\t\t<option value="2012-07-31">Jul. 31, 2012</option>\n\t\t\t\t\t<option value="2012-08-31">Aug. 31, 2012</option>\n\t\t\t\t\t<option value="2012-09-30">Sep. 30, 2012</option>\n\t\t\t\t\t<option value="2012-10-31">Oct. 31, 2012</option>\n\t\t\t\t\t<option value="2012-11-30">Nov. 30, 2012</option>\n\t\t\t\t\t<option value="2012-12-31">Dec. 31, 2012</option>\n\t\t\t\t\t<option value="specify">Specify Date</option>\n\t\t\t\t\t<option value="about">About this feature</option>\n\t\t\t\t\t</select> or (<select size="1" name="asof_mo" style="font-size: 8pt">\n\t\t\t\t\t<option selected value="">Month</option>\n\t\t\t\t\t\n\t\t\t\t\t<option value="01">Jan.</option>\n\t\t\t\t\t<option value="02">Feb.</option>\n\t\t\t\t\t<option value="03">Mar.</option>\n\t\t\t\t\t<option value="04">Apr.</option>\n\t\t\t\t\t<option value="05">May</option>\n\t\t\t\t\t<option value="06">Jun.</option>\n\t\t\t\t\t<option value="07">Jul.</option>\n\t\t\t\t\t<option value="08">Aug.</option>\n\t\t\t\t\t<option value="09">Sep.</option>\n\t\t\t\t\t<option value="10">Oct.</option>\n\t\t\t\t\t<option value="11">Nov.</option>\n\t\t\t\t\t<option value="12">Dec.</option>\n\t\t\t\t\t</select> / <select size="1" name="asof_day" style="font-size: 8pt">\n\t\t\t\t\t<option selected value="">Day</option>\n\t\t\t\t\t<option value="01">1</option>\n\t\t\t\t\t<option value="02">2</option>\n\t\t\t\t\t<option value="03">3</option>\n\t\t\t\t\t<option value="04">4</option>\n\t\t\t\t\t<option value="05">5</option>\n\t\t\t\t\t<option value="06">6</option>\n\t\t\t\t\t<option value="07">7</option>\n\t\t\t\t\t<option value="08">8</option>\n\t\t\t\t\t<option value="09">9</option>\n\t\t\t\t\t<option value="10">10</option>\n\t\t\t\t\t<option value="11">11</option>\n\t\t\t\t\t<option value="12">12</option>\n\t\t\t\t\t<option value="13">13</option>\n\t\t\t\t\t<option value="14">14</option>\n\t\t\t\t\t<option value="15">15</option>\n\t\t\t\t\t<option value="16">16</option>\n\t\t\t\t\t<option value="17">17</option>\n\t\t\t\t\t<option value="18">18</option>\n\t\t\t\t\t<option value="19">19</option>\n\t\t\t\t\t<option value="20">20</option>\n\t\t\t\t\t<option value="21">21</option>\n\t\t\t\t\t<option value="22">22</option>\n\t\t\t\t\t<option value="23">23</option>\n\t\t\t\t\t<option value="24">24</option>\n\t\t\t\t\t<option value="25">25</option>\n\t\t\t\t\t<option value="26">26</option>\n\t\t\t\t\t<option value="27">27</option>\n\t\t\t\t\t<option value="28">28</option>\n\t\t\t\t\t<option value="29">29</option>\n\t\t\t\t\t<option value="30">30</option>\n\t\t\t\t\t<option value="31">31</option>\n\t\t\t\t\t</select> / <select size="1" name="asof_yr" style="font-size: 8pt">\n\t\t\t\t\t\t<option selected>2012</option>\n\t\t\t\t\t\t<option>2013</option>\n\t\t\t\t\t\t</select>) <input type="submit" value="Go" name="go" style="font-size: 8pt; height: 16">\n\t\t\t\t\t</font></td></tr>\n\t\t\t\t\t<input type="hidden" name="jumpstuff" value="view=releasedate&view2=domestic&yr=2012&sort=gross&order=DESC&p=.htm">\n\t\t\t\t\t<input type="hidden" name="curasof" value="today">\n\t\t\t\t\t<input type="hidden" name="yr" value="2012">\n\t\t\t\t\t</form>\n\t\t\t\t\t</table>\n\t\t\t\t</font></td><td valign="bottom" align="right"><font face="Verdana" size="1"><b><a href="/yearly/chart/?yr=2013&view=releasedate&view2=domestic&sort=gross&order=DESC&&p=.htm">Next Year &gt;</a></b></font></td></tr><tr><td colspan="3"><table border="0" cellspacing="1" cellpadding="5" bgcolor="#ffffff"><tr bgcolor="#dcdcdc"><td align="center"><font size="2"><a href="/yearly/chart/?view=releasedate&view2=domestic&yr=2012&sort=gross&order=ASC&p=.htm"><b>Rank</b></a></font></td><td align="center"><font size="2"><a href="/yearly/chart/?view=releasedate&view2=domestic&yr=2012&sort=title&order=ASC&p=.htm">Movie Title (click to view)</a></font></td><td align="center"><font size="2"><a href="/yearly/chart/?view=releasedate&view2=domestic&yr=2012&sort=studio&order=ASC&p=.htm">Studio</a><br><script language="javascript">\r\nfunction MojoDrop1() {\r\nvar number = document.MojoDropDown1.mojolinks1.selectedIndex;location.href = document.MojoDropDown1.mojolinks1.options[number].value;}</script>\r\n<table border="0" cellspacing="0" cellpadding="0">\r\n<form name="MojoDropDown1"><tr><td>\r\n<select name="mojolinks1" style="font-family: Verdana; font-size: 8pt" onChange="MojoDrop1(this.form)">\r\n<option selected>Filter</option><option value="/yearly/chart/?view=releasedate&view2=domestic&yr=2012&sort=gross&order=DESC&studio=3dentertainment.htm">3D</option>\r\n<option value="/yearly/chart/?view=releasedate&view2=domestic&yr=2012&sort=gross&order=DESC&studio=7aproductions.htm">7A</option>\r\n<option value="/yearly/chart/?view=releasedate&view2=domestic&yr=2012&sort=gross&order=DESC&studio=area23a.htm">A23</option>\r\n<option value="/yearly/chart/?view=releasedate&view2=domestic&yr=2012&sort=gross&order=DESC&studio=artaffects.htm">AAE</option>\r\n<option value="/yearly/chart/?view=releasedate&view2=domestic&yr=2012&sort=gross&order=DESC&studio=abramorama.htm">Abr.</option>\r\n<option value="/yearly/chart/?view=releasedate&view2=domestic&yr=2012&sort=gross&order=DESC&studio=atlas.htm">ADC</option>\r\n<option value="/yearly/chart/?view=releasedate&view2=domestic&yr=2012&sort=gross&order=DESC&studio=adoptfilms.htm">AF</option>\r\n<option value="/yearly/chart/?view=releasedate&view2=domestic&yr=2012&sort=gross&order=DESC&studio=affrm.htm">AFFRM</option>\r\n<option value="/yearly/chart/?view=releasedate&view2=domestic&yr=2012&sort=gross&order=DESC&studio=afterlifepictures.htm">ALP</option>\r\n<option value="/yearly/chart/?view=releasedate&view2=domestic&yr=2012&sort=gross&order=DESC&studio=alivemind.htm">AM</option>\r\n<option value="/yearly/chart/?view=releasedate&view2=domestic&yr=2012&sort=gross&order=DESC&studio=anchorbayentertainment.htm">Anch.</option>\r\n<option value="/yearly/chart/?view=releasedate&view2=domestic&yr=2012&sort=gross&order=DESC&studio=apdcinema.htm">APD/C</option>\r\n<option value="/yearly/chart/?view=releasedate&view2=domestic&yr=2012&sort=gross&order=DESC&studio=appliedart.htm">AppArt</option>\r\n<option value="/yearly/chart/?view=releasedate&view2=domestic&yr=2012&sort=gross&order=DESC&studio=arcent.htm">ArcEnt</option>\r\n<option value="/yearly/chart/?view=releasedate&view2=domestic&yr=2012&sort=gross&order=DESC&studio=argotpictures.htm">Argo.</option>\r\n<option value="/yearly/chart/?view=releasedate&view2=domestic&yr=2012&sort=gross&order=DESC&studio=atopictures.htm">ATO</option>\r\n<option value="/yearly/chart/?view=releasedate&view2=domestic&yr=2012&sort=gross&order=DESC&studio=breakingglass.htm">BGP</option>\r\n<option value="/yearly/chart/?view=releasedate&view2=domestic&yr=2012&sort=gross&order=DESC&studio=brainstormanddoublehope.htm">BM&amp;DH</option>\r\n<option value="/yearly/chart/?view=releasedate&view2=domestic&yr=2012&sort=gross&order=DESC&studio=brandedpeck.htm">BPE</option>\r\n<option value="/yearly/chart/?view=releasedate&view2=domestic&yr=2012&sort=gross&order=DESC&studio=brainstormmedia.htm">BSM</option>\r\n<option value="/yearly/chart/?view=releasedate&view2=domestic&yr=2012&sort=gross&order=DESC&studio=betterthansomething.htm">BTS</option>\r\n<option value="/yearly/chart/?view=releasedate&view2=domestic&yr=2012&sort=gross&order=DESC&studio=buenavista.htm">BV</option>\r\n<option value="/yearly/chart/?view=releasedate&view2=domestic&yr=2012&sort=gross&order=DESC&studio=corinth360.htm">C/360</option>\r\n<option value="/yearly/chart/?view=releasedate&view2=domestic&yr=2012&sort=gross&order=DESC&studio=callbox.htm">CB</option>\r\n<option value="/yearly/chart/?view=releasedate&view2=domestic&yr=2012&sort=gross&order=DESC&studio=cbsfilms.htm">CBS</option>\r\n<option value="/yearly/chart/?view=releasedate&view2=domestic&yr=2012&sort=gross&order=DESC&studio=cinedigmentertainment.htm">Cdgm.</option>\r\n<option value="/yearly/chart/?view=releasedate&view2=domestic&yr=2012&sort=gross&order=DESC&studio=cinedigmbrianbarrett.htm">CEB&amp;B</option>\r\n<option value="/yearly/chart/?view=releasedate&view2=domestic&yr=2012&sort=gross&order=DESC&studio=cinemaguild.htm">CGld</option>\r\n<option value="/yearly/chart/?view=releasedate&view2=domestic&yr=2012&sort=gross&order=DESC&studio=cjentertainment.htm">CJ</option>\r\n<option value="/yearly/chart/?view=releasedate&view2=domestic&yr=2012&sort=gross&order=DESC&studio=chinalion.htm">CL</option>\r\n<option value="/yearly/chart/?view=releasedate&view2=domestic&yr=2012&sort=gross&order=DESC&studio=codeblackentertainment.htm">Code</option>\r\n<option value="/yearly/chart/?view=releasedate&view2=domestic&yr=2012&sort=gross&order=DESC&studio=cohenmedia.htm">Cohen</option>\r\n<option value="/yearly/chart/?view=releasedate&view2=domestic&yr=2012&sort=gross&order=DESC&studio=cortelyou.htm">Cort.</option>\r\n<option value="/yearly/chart/?view=releasedate&view2=domestic&yr=2012&sort=gross&order=DESC&studio=dada.htm">Da.</option>\r\n<option value="/yearly/chart/?view=releasedate&view2=domestic&yr=2012&sort=gross&order=DESC&studio=dutchmen.htm">DM</option>\r\n<option value="/yearly/chart/?view=releasedate&view2=domestic&yr=2012&sort=gross&order=DESC&studio=drafthousefilms.htm">Drft.</option>\r\n<option value="/yearly/chart/?view=releasedate&view2=domestic&yr=2012&sort=gross&order=DESC&studio=datariturner.htm">DTP</option>\r\n<option value="/yearly/chart/?view=releasedate&view2=domestic&yr=2012&sort=gross&order=DESC&studio=elevenarts.htm">Elev.</option>\r\n<option value="/yearly/chart/?view=releasedate&view2=domestic&yr=2012&sort=gross&order=DESC&studio=eagleone.htm">EOM</option>\r\n<option value="/yearly/chart/?view=releasedate&view2=domestic&yr=2012&sort=gross&order=DESC&studio=entertainmentone.htm">EOne</option>\r\n<option value="/yearly/chart/?view=releasedate&view2=domestic&yr=2012&sort=gross&order=DESC&studio=epicpics.htm">EpicPics</option>\r\n<option value="/yearly/chart/?view=releasedate&view2=domestic&yr=2012&sort=gross&order=DESC&studio=eros.htm">Eros</option>\r\n<option value="/yearly/chart/?view=releasedate&view2=domestic&yr=2012&sort=gross&order=DESC&studio=flickeralley.htm">FA</option>\r\n<option value="/yearly/chart/?view=releasedate&view2=domestic&yr=2012&sort=gross&order=DESC&studio=filmdistrict.htm">FD</option>\r\n<option value="/yearly/chart/?view=releasedate&view2=domestic&yr=2012&sort=gross&order=DESC&studio=thefilmdesk.htm">FDesk</option>\r\n<option value="/yearly/chart/?view=releasedate&view2=domestic&yr=2012&sort=gross&order=DESC&studio=fip.htm">FIP</option>\r\n<option value="/yearly/chart/?view=releasedate&view2=domestic&yr=2012&sort=gross&order=DESC&studio=fisherklingenstein.htm">FKF</option>\r\n<option value="/yearly/chart/?view=releasedate&view2=domestic&yr=2012&sort=gross&order=DESC&studio=filmmovement.htm">FM</option>\r\n<option value="/yearly/chart/?view=releasedate&view2=domestic&yr=2012&sort=gross&order=DESC&studio=focus.htm">Focus</option>\r\n<option value="/yearly/chart/?view=releasedate&view2=domestic&yr=2012&sort=gross&order=DESC&studio=fox.htm">Fox</option>\r\n<option value="/yearly/chart/?view=releasedate&view2=domestic&yr=2012&sort=gross&order=DESC&studio=foxsearchlight.htm">FoxS</option>\r\n<option value="/yearly/chart/?view=releasedate&view2=domestic&yr=2012&sort=gross&order=DESC&studio=firstpond.htm">FPE</option>\r\n<option value="/yearly/chart/?view=releasedate&view2=domestic&yr=2012&sort=gross&order=DESC&studio=featurepresentations.htm">FPR</option>\r\n<option value="/yearly/chart/?view=releasedate&view2=domestic&yr=2012&sort=gross&order=DESC&studio=freestyle.htm">Free</option>\r\n<option value="/yearly/chart/?view=releasedate&view2=domestic&yr=2012&sort=gross&order=DESC&studio=firstrun.htm">FRun</option>\r\n<option value="/yearly/chart/?view=releasedate&view2=domestic&yr=2012&sort=gross&order=DESC&studio=gravityarch.htm">GA</option>\r\n<option value="/yearly/chart/?view=releasedate&view2=domestic&yr=2012&sort=gross&order=DESC&studio=godigital.htm">GD</option>\r\n<option value="/yearly/chart/?view=releasedate&view2=domestic&yr=2012&sort=gross&order=DESC&studio=gkids.htm">GK</option>\r\n<option value="/yearly/chart/?view=releasedate&view2=domestic&yr=2012&sort=gross&order=DESC&studio=samuelgoldwyn.htm">Gold.</option>\r\n<option value="/yearly/chart/?view=releasedate&view2=domestic&yr=2012&sort=gross&order=DESC&studio=gigapix.htm">GPR</option>\r\n<option value="/yearly/chart/?view=releasedate&view2=domestic&yr=2012&sort=gross&order=DESC&studio=hannoverhouse.htm">Hann.</option>\r\n<option value="/yearly/chart/?view=releasedate&view2=domestic&yr=2012&sort=gross&order=DESC&studio=houselightsmedia.htm">HLM</option>\r\n<option value="/yearly/chart/?view=releasedate&view2=domestic&yr=2012&sort=gross&order=DESC&studio=humblemagi.htm">HM</option>\r\n<option value="/yearly/chart/?view=releasedate&view2=domestic&yr=2012&sort=gross&order=DESC&studio=icarus.htm">Icar.</option>\r\n<option value="/yearly/chart/?view=releasedate&view2=domestic&yr=2012&sort=gross&order=DESC&studio=intlfilmcircuit.htm">ICir</option>\r\n<option value="/yearly/chart/?view=releasedate&view2=domestic&yr=2012&sort=gross&order=DESC&studio=ifc.htm">IFC</option>\r\n<option value="/yearly/chart/?view=releasedate&view2=domestic&yr=2012&sort=gross&order=DESC&studio=indomina.htm">IM</option>\r\n<option value="/yearly/chart/?view=releasedate&view2=domestic&yr=2012&sort=gross&order=DESC&studio=imageentertainment.htm">Imag.</option>\r\n<option value="/yearly/chart/?view=releasedate&view2=domestic&yr=2012&sort=gross&order=DESC&studio=indican.htm">Indic.</option>\r\n<option value="/yearly/chart/?view=releasedate&view2=domestic&yr=2012&sort=gross&order=DESC&studio=janusfilms.htm">Jan.</option>\r\n<option value="/yearly/chart/?view=releasedate&view2=domestic&yr=2012&sort=gross&order=DESC&studio=joulesfilms.htm">JLF</option>\r\n<option value="/yearly/chart/?view=releasedate&view2=domestic&yr=2012&sort=gross&order=DESC&studio=kinolorber.htm">KL</option>\r\n<option value="/yearly/chart/?view=releasedate&view2=domestic&yr=2012&sort=gross&order=DESC&studio=kimstimzeitgeist.htm">KS/Zeit</option>\r\n<option value="/yearly/chart/?view=releasedate&view2=domestic&yr=2012&sort=gross&order=DESC&studio=kennviselman.htm">KVP</option>\r\n<option value="/yearly/chart/?view=releasedate&view2=domestic&yr=2012&sort=gross&order=DESC&studio=lddistribution.htm">LD</option>\r\n<option value="/yearly/chart/?view=releasedate&view2=domestic&yr=2012&sort=gross&order=DESC&studio=lokifilms.htm">LF</option>\r\n<option value="/yearly/chart/?view=releasedate&view2=domestic&yr=2012&sort=gross&order=DESC&studio=lionsgatesummit.htm">LG/S</option>\r\n<option value="/yearly/chart/?view=releasedate&view2=domestic&yr=2012&sort=gross&order=DESC&studio=lionsgate.htm">LGF</option>\r\n<option value="/yearly/chart/?view=releasedate&view2=domestic&yr=2012&sort=gross&order=DESC&studio=cinemalibre.htm">Libre</option>\r\n<option value="/yearly/chart/?view=releasedate&view2=domestic&yr=2012&sort=gross&order=DESC&studio=longshotfactory.htm">Long Shot</option>\r\n<option value="/yearly/chart/?view=releasedate&view2=domestic&yr=2012&sort=gross&order=DESC&studio=magnolia.htm">Magn.</option>\r\n<option value="/yearly/chart/?view=releasedate&view2=domestic&yr=2012&sort=gross&order=DESC&studio=musicboxfilms.htm">MBox</option>\r\n<option value="/yearly/chart/?view=releasedate&view2=domestic&yr=2012&sort=gross&order=DESC&studio=millenniumentertainment.htm">MNE</option>\r\n<option value="/yearly/chart/?view=releasedate&view2=domestic&yr=2012&sort=gross&order=DESC&studio=montereymediainc.htm">Mont.</option>\r\n<option value="/yearly/chart/?view=releasedate&view2=domestic&yr=2012&sort=gross&order=DESC&studio=mpimediagroup.htm">MPI</option>\r\n<option value="/yearly/chart/?view=releasedate&view2=domestic&yr=2012&sort=gross&order=DESC&studio=myriadpictures.htm">Myr.</option>\r\n<option value="/yearly/chart/?view=releasedate&view2=domestic&yr=2012&sort=gross&order=DESC&studio=unknown.htm">N/A</option>\r\n<option value="/yearly/chart/?view=releasedate&view2=domestic&yr=2012&sort=gross&order=DESC&studio=neoclassicsfilms.htm">NeoC</option>\r\n<option value="/yearly/chart/?view=releasedate&view2=domestic&yr=2012&sort=gross&order=DESC&studio=nationalgeographiccinema.htm">NGE</option>\r\n<option value="/yearly/chart/?view=releasedate&view2=domestic&yr=2012&sort=gross&order=DESC&studio=nocturnalfeatures.htm">Noct.</option>\r\n<option value="/yearly/chart/?view=releasedate&view2=domestic&yr=2012&sort=gross&order=DESC&studio=newyorker.htm">NYer</option>\r\n<option value="/yearly/chart/?view=releasedate&view2=domestic&yr=2012&sort=gross&order=DESC&studio=onyx.htm">Onyx</option>\r\n<option value="/yearly/chart/?view=releasedate&view2=domestic&yr=2012&sort=gross&order=DESC&studio=openroads.htm">ORF</option>\r\n<option value="/yearly/chart/?view=releasedate&view2=domestic&yr=2012&sort=gross&order=DESC&studio=oscilloscopepictures.htm">Osci.</option>\r\n<option value="/yearly/chart/?view=releasedate&view2=domestic&yr=2012&sort=gross&order=DESC&studio=outsiderfilms.htm">OutF</option>\r\n<option value="/yearly/chart/?view=releasedate&view2=domestic&yr=2012&sort=gross&order=DESC&studio=outsiderpictures.htm">Outs</option>\r\n<option value="/yearly/chart/?view=releasedate&view2=domestic&yr=2012&sort=gross&order=DESC&studio=omniverse.htm">OV</option>\r\n<option value="/yearly/chart/?view=releasedate&view2=domestic&yr=2012&sort=gross&order=DESC&studio=pardw.htm">P/DW</option>\r\n<option value="/yearly/chart/?view=releasedate&view2=domestic&yr=2012&sort=gross&order=DESC&studio=page124.htm">P124</option>\r\n<option value="/yearly/chart/?view=releasedate&view2=domestic&yr=2012&sort=gross&order=DESC&studio=paladin.htm">Pala.</option>\r\n<option value="/yearly/chart/?view=releasedate&view2=domestic&yr=2012&sort=gross&order=DESC&studio=palisadestartan.htm">PalT</option>\r\n<option value="/yearly/chart/?view=releasedate&view2=domestic&yr=2012&sort=gross&order=DESC&studio=paladinunison.htm">PalUni</option>\r\n<option value="/yearly/chart/?view=releasedate&view2=domestic&yr=2012&sort=gross&order=DESC&studio=paramount.htm">Par.</option>\r\n<option value="/yearly/chart/?view=releasedate&view2=domestic&yr=2012&sort=gross&order=DESC&studio=paramountvantage.htm">ParV</option>\r\n<option value="/yearly/chart/?view=releasedate&view2=domestic&yr=2012&sort=gross&order=DESC&studio=pasidg.htm">Pasi.</option>\r\n<option value="/yearly/chart/?view=releasedate&view2=domestic&yr=2012&sort=gross&order=DESC&studio=pda.htm">PDA</option>\r\n<option value="/yearly/chart/?view=releasedate&view2=domestic&yr=2012&sort=gross&order=DESC&studio=pelicanhouse.htm">PHP</option>\r\n<option value="/yearly/chart/?view=releasedate&view2=domestic&yr=2012&sort=gross&order=DESC&studio=pmkbncfilms.htm">PMKBNC</option>\r\n<option value="/yearly/chart/?view=releasedate&view2=domestic&yr=2012&sort=gross&order=DESC&studio=promotionpictures.htm">PMP</option>\r\n<option value="/yearly/chart/?view=releasedate&view2=domestic&yr=2012&sort=gross&order=DESC&studio=roadsideattractions.htm">RAtt.</option>\r\n<option value="/yearly/chart/?view=releasedate&view2=domestic&yr=2012&sort=gross&order=DESC&studio=redbull.htm">RBMH</option>\r\n<option value="/yearly/chart/?view=releasedate&view2=domestic&yr=2012&sort=gross&order=DESC&studio=relativity.htm">Rela.</option>\r\n<option value="/yearly/chart/?view=releasedate&view2=domestic&yr=2012&sort=gross&order=DESC&studio=reliancebigpictures.htm">Relbig.</option>\r\n<option value="/yearly/chart/?view=releasedate&view2=domestic&yr=2012&sort=gross&order=DESC&studio=redflag.htm">RF</option>\r\n<option value="/yearly/chart/?view=releasedate&view2=domestic&yr=2012&sort=gross&order=DESC&studio=rialto.htm">Rialto</option>\r\n<option value="/yearly/chart/?view=releasedate&view2=domestic&yr=2012&sort=gross&order=DESC&studio=rockymountainpictures.htm">RM</option>\r\n<option value="/yearly/chart/?view=releasedate&view2=domestic&yr=2012&sort=gross&order=DESC&studio=roamfilms.htm">Roam</option>\r\n<option value="/yearly/chart/?view=releasedate&view2=domestic&yr=2012&sort=gross&order=DESC&studio=radiustwc.htm">RTWC</option>\r\n<option value="/yearly/chart/?view=releasedate&view2=domestic&yr=2012&sort=gross&order=DESC&studio=s2bnfilms.htm">S2BN</option>\r\n<option value="/yearly/chart/?view=releasedate&view2=domestic&yr=2012&sort=gross&order=DESC&studio=slaterbros.htm">SBE</option>\r\n<option value="/yearly/chart/?view=releasedate&view2=domestic&yr=2012&sort=gross&order=DESC&studio=screenmedia.htm">Scre.</option>\r\n<option value="/yearly/chart/?view=releasedate&view2=domestic&yr=2012&sort=gross&order=DESC&studio=submarinedeluxe.htm">SD</option>\r\n<option value="/yearly/chart/?view=releasedate&view2=domestic&yr=2012&sort=gross&order=DESC&studio=sycamore.htm">SEG</option>\r\n<option value="/yearly/chart/?view=releasedate&view2=domestic&yr=2012&sort=gross&order=DESC&studio=snagfilms.htm">SF</option>\r\n<option value="/yearly/chart/?view=releasedate&view2=domestic&yr=2012&sort=gross&order=DESC&studio=screengems.htm">SGem</option>\r\n<option value="/yearly/chart/?view=releasedate&view2=domestic&yr=2012&sort=gross&order=DESC&studio=shortsinternational.htm">Shrts.</option>\r\n<option value="/yearly/chart/?view=releasedate&view2=domestic&yr=2012&sort=gross&order=DESC&studio=secretidentity.htm">SIP</option>\r\n<option value="/yearly/chart/?view=releasedate&view2=domestic&yr=2012&sort=gross&order=DESC&studio=sony.htm">Sony</option>\r\n<option value="/yearly/chart/?view=releasedate&view2=domestic&yr=2012&sort=gross&order=DESC&studio=sonyclassics.htm">SPC</option>\r\n<option value="/yearly/chart/?view=releasedate&view2=domestic&yr=2012&sort=gross&order=DESC&studio=strand.htm">Strand</option>\r\n<option value="/yearly/chart/?view=releasedate&view2=domestic&yr=2012&sort=gross&order=DESC&studio=transcendence.htm">TF</option>\r\n<option value="/yearly/chart/?view=releasedate&view2=domestic&yr=2012&sort=gross&order=DESC&studio=filmarcade.htm">TFA</option>\r\n<option value="/yearly/chart/?view=releasedate&view2=domestic&yr=2012&sort=gross&order=DESC&studio=filmcollaborative.htm">TFC</option>\r\n<option value="/yearly/chart/?view=releasedate&view2=domestic&yr=2012&sort=gross&order=DESC&studio=transparentouter.htm">TFO</option>\r\n<option value="/yearly/chart/?view=releasedate&view2=domestic&yr=2012&sort=gross&order=DESC&studio=tyscotmanhaddon.htm">TMF&amp;RE</option>\r\n<option value="/yearly/chart/?view=releasedate&view2=domestic&yr=2012&sort=gross&order=DESC&studio=todpix.htm">TOD</option>\r\n<option value="/yearly/chart/?view=releasedate&view2=domestic&yr=2012&sort=gross&order=DESC&studio=tribecafilm.htm">Trib.</option>\r\n<option value="/yearly/chart/?view=releasedate&view2=domestic&yr=2012&sort=gross&order=DESC&studio=tristar.htm">TriS</option>\r\n<option value="/yearly/chart/?view=releasedate&view2=domestic&yr=2012&sort=gross&order=DESC&studio=trulyindie.htm">Truly</option>\r\n<option value="/yearly/chart/?view=releasedate&view2=domestic&yr=2012&sort=gross&order=DESC&studio=universal.htm">Uni.</option>\r\n<option value="/yearly/chart/?view=releasedate&view2=domestic&yr=2012&sort=gross&order=DESC&studio=utv.htm">UTV</option>\r\n<option value="/yearly/chart/?view=releasedate&view2=domestic&yr=2012&sort=gross&order=DESC&studio=variancefilms.htm">Vari.</option>\r\n<option value="/yearly/chart/?view=releasedate&view2=domestic&yr=2012&sort=gross&order=DESC&studio=veracity.htm">VMP</option>\r\n<option value="/yearly/chart/?view=releasedate&view2=domestic&yr=2012&sort=gross&order=DESC&studio=wdimension.htm">W/Dim.</option>\r\n<option value="/yearly/chart/?view=releasedate&view2=domestic&yr=2012&sort=gross&order=DESC&studio=warnerbros.htm">WB</option>\r\n<option value="/yearly/chart/?view=releasedate&view2=domestic&yr=2012&sort=gross&order=DESC&studio=wb-newline.htm">WB (NL)</option>\r\n<option value="/yearly/chart/?view=releasedate&view2=domestic&yr=2012&sort=gross&order=DESC&studio=weinsteincompany.htm">Wein.</option>\r\n<option value="/yearly/chart/?view=releasedate&view2=domestic&yr=2012&sort=gross&order=DESC&studio=wellgo.htm">WGUSA</option>\r\n<option value="/yearly/chart/?view=releasedate&view2=domestic&yr=2012&sort=gross&order=DESC&studio=wreckinhill.htm">WHE</option>\r\n<option value="/yearly/chart/?view=releasedate&view2=domestic&yr=2012&sort=gross&order=DESC&studio=worldwidedistributors.htm">WWD</option>\r\n<option value="/yearly/chart/?view=releasedate&view2=domestic&yr=2012&sort=gross&order=DESC&studio=xlratormedia.htm">XL</option>\r\n<option value="/yearly/chart/?view=releasedate&view2=domestic&yr=2012&sort=gross&order=DESC&studio=yashraj.htm">Yash</option>\r\n<option value="/yearly/chart/?view=releasedate&view2=domestic&yr=2012&sort=gross&order=DESC&studio=zeitgeist.htm">Zeit.</option>\r\n<option value="/yearly/chart/?view=releasedate&view2=domestic&yr=2012&sort=gross&order=DESC&studio=zipporahfilms.htm">Zipp.</option>\r\n<option value="/yearly/chart/?view=releasedate&view2=domestic&yr=2012&sort=gross&order=DESC&studio=zomularmedia.htm">ZMG</option>\r\n<option value="/yearly/chart/?view=releasedate&view2=domestic&yr=2012&sort=gross&order=DESC&p=.htm">ALL</option>\r\n</select></td></tr></form></table><a></a></font></td><td align="center" colspan="2"><font size="2"><a href="/yearly/chart/?view=releasedate&view2=domestic&yr=2012&sort=gross&order=ASC&p=.htm"><b>Total Gross</b></a> / </font><font size="2"><a href="/yearly/chart/?view=releasedate&view2=domestic&yr=2012&sort=theaters&order=DESC&p=.htm">Theaters</a></font></td><td align="center" colspan="2"><font size="2"><a href="/yearly/chart/?view=releasedate&view2=domestic&yr=2012&sort=opengross&order=DESC&p=.htm">Opening</a> / </font><font size="2"><a href="/yearly/chart/?view=releasedate&view2=domestic&yr=2012&sort=opentheaters&order=DESC&p=.htm">Theaters</a></font></td><td align="center"><font size="2"><a href="/yearly/chart/?view=releasedate&view2=domestic&yr=2012&sort=open&order=DESC&p=.htm">Open</a></font></td><td align="center"><font size="2"><a href="/yearly/chart/?view=releasedate&view2=domestic&yr=2012&sort=close&order=DESC&p=.htm">Close</a></font></td></tr><tr bgcolor="#ffffff"><td align="center"><font size="2">101</font></td><td><b><font size="2"><a href="/movies/?id=cloudatlas.htm">Cloud Atlas</a></font></b></td><td><font size="2"><a href="/studio/chart/?studio=warnerbros.htm">WB</a></font></td><td align="right"><font size="2"><b>$27,108,272</b></font></td><td align="right"><font size="2">2,023</font></td><td align="right"><font size="2">$9,612,247</font></td><td align="right"><font size="2">2,008</font></td><td align="right"><font size="2"><a href="/schedule/?view=bydate&release=theatrical&date=2012-10-26&p=.htm">10/26</a></font></td><td align="right"><font size="2">1/24</font></td></tr><tr bgcolor="#f4f4ff"><td align="center"><font size="2">102</font></td><td><b><font size="2"><a href="/movies/?id=oneforthemoney.htm">One For the Money</a></font></b></td><td><font size="2"><a href="/studio/chart/?studio=lionsgate.htm">LGF</a></font></td><td align="right"><font size="2"><b>$26,414,527</b></font></td><td align="right"><font size="2">2,737</font></td><td align="right"><font size="2">$11,515,790</font></td><td align="right"><font size="2">2,737</font></td><td align="right"><font size="2"><a href="/schedule/?view=bydate&release=theatrical&date=2012-01-27&p=.htm">1/27</a></font></td><td align="right"><font size="2">4/12</font></td></tr><tr bgcolor="#ffffff"><td align="center"><font size="2">103</font></td><td><b><font size="2"><a href="/movies/?id=alexcross.htm">Alex Cross</a></font></b></td><td><font size="2"><a href="/studio/chart/?studio=lionsgatesummit.htm">LG/S</a></font></td><td align="right"><font size="2"><b>$25,888,412</b></font></td><td align="right"><font size="2">2,541</font></td><td align="right"><font size="2">$11,396,768</font></td><td align="right"><font size="2">2,539</font></td><td align="right"><font size="2"><a href="/schedule/?view=bydate&release=theatrical&date=2012-10-19&p=.htm">10/19</a></font></td><td align="right"><font size="2">1/3</font></td></tr><tr bgcolor="#f4f4ff"><td align="center"><font size="2">104</font></td><td><b><font size="2"><a href="/movies/?id=katyperry.htm">Katy Perry: Part of Me</a></font></b></td><td><font size="2"><a href="/studio/chart/?studio=paramount.htm">Par.</a></font></td><td align="right"><font size="2"><b>$25,326,071</b></font></td><td align="right"><font size="2">2,732</font></td><td align="right"><font size="2">$7,138,266</font></td><td align="right"><font size="2">2,730</font></td><td align="right"><font size="2"><a href="/schedule/?view=bydate&release=theatrical&date=2012-07-05&p=.htm">7/5</a></font></td><td align="right"><font size="2">8/30</font></td></tr><tr bgcolor="#ffffff"><td align="center"><font size="2">105</font></td><td><b><font size="2"><a href="/movies/?id=sparkle2012.htm">Sparkle (2012)</a></font></b></td><td><font size="2"><a href="/studio/chart/?studio=tristar.htm">TriS</a></font></td><td align="right"><font size="2"><b>$24,397,469</b></font></td><td align="right"><font size="2">2,244</font></td><td align="right"><font size="2">$11,643,342</font></td><td align="right"><font size="2">2,244</font></td><td align="right"><font size="2"><a href="/schedule/?view=bydate&release=theatrical&date=2012-08-17&p=.htm">8/17</a></font></td><td align="right"><font size="2">9/30</font></td></tr><tr bgcolor="#f4f4ff"><td align="center"><font size="2">106</font></td><td><b><font size="2"><a href="/movies/?id=premiumrush.htm">Premium Rush</a></font></b></td><td><font size="2"><a href="/studio/chart/?studio=sony.htm">Sony</a></font></td><td align="right"><font size="2"><b>$20,275,446</b></font></td><td align="right"><font size="2">2,255</font></td><td align="right"><font size="2">$6,030,164</font></td><td align="right"><font size="2">2,255</font></td><td align="right"><font size="2"><a href="/schedule/?view=bydate&release=theatrical&date=2012-08-24&p=.htm">8/24</a></font></td><td align="right"><font size="2">10/21</font></td></tr><tr bgcolor="#ffffff"><td align="center"><font size="2">107</font></td><td><b><font size="2"><a href="/movies/?id=everybodyloveswhales.htm">Big Miracle</a></font></b></td><td><font size="2"><a href="/studio/chart/?studio=universal.htm">Uni.</a></font></td><td align="right"><font size="2"><b>$20,157,300</b></font></td><td align="right"><font size="2">2,133</font></td><td align="right"><font size="2">$7,760,205</font></td><td align="right"><font size="2">2,129</font></td><td align="right"><font size="2"><a href="/schedule/?view=bydate&release=theatrical&date=2012-02-03&p=.htm">2/3</a></font></td><td align="right"><font size="2">4/5</font></td></tr><tr bgcolor="#f4f4ff"><td align="center"><font size="2">108</font></td><td><b><font size="2"><a href="/movies/?id=arrietty.htm">The Secret World of Arrietty</a></font></b></td><td><font size="2"><a href="/studio/chart/?studio=buenavista.htm">BV</a></font></td><td align="right"><font size="2"><b>$19,202,743</b></font></td><td align="right"><font size="2">1,522</font></td><td align="right"><font size="2">$6,446,395</font></td><td align="right"><font size="2">1,522</font></td><td align="right"><font size="2"><a href="/schedule/?view=bydate&release=theatrical&date=2012-02-17&p=.htm">2/17</a></font></td><td align="right"><font size="2">6/7</font></td></tr><tr bgcolor="#ffffff"><td align="center"><font size="2">109</font></td><td><b><font size="2"><a href="/movies/?id=impossible.htm">The Impossible</a></font></b></td><td><font size="2"><a href="/studio/chart/?studio=lionsgatesummit.htm">LG/S</a></font></td><td align="right"><font size="2"><b>$19,019,882</b></font></td><td align="right"><font size="2">886</font></td><td align="right"><font size="2">$143,818</font></td><td align="right"><font size="2">15</font></td><td align="right"><font size="2"><a href="/schedule/?view=bydate&release=theatrical&date=2012-12-21&p=.htm">12/21</a></font></td><td align="right"><font size="2">4/18</font></td></tr><tr bgcolor="#f4f4ff"><td align="center"><font size="2">110</font></td><td><b><font size="2"><a href="/movies/?id=haywire.htm">Haywire</a></font></b></td><td><font size="2"><a href="/studio/chart/?studio=relativity.htm">Rela.</a></font></td><td align="right"><font size="2"><b>$18,942,396</b></font></td><td align="right"><font size="2">2,441</font></td><td align="right"><font size="2">$8,425,370</font></td><td align="right"><font size="2">2,439</font></td><td align="right"><font size="2"><a href="/schedule/?view=bydate&release=theatrical&date=2012-01-20&p=.htm">1/20</a></font></td><td align="right"><font size="2">3/22</font></td></tr><tr bgcolor="#ffffff"><td align="center"><font size="2">111</font></td><td><b><font size="2"><a href="/movies/?id=manonaledge.htm">Man on a Ledge</a></font></b></td><td><font size="2"><a href="/studio/chart/?studio=lionsgatesummit.htm">LG/S</a></font></td><td align="right"><font size="2"><b>$18,620,000</b></font></td><td align="right"><font size="2">2,998</font></td><td align="right"><font size="2">$8,001,932</font></td><td align="right"><font size="2">2,998</font></td><td align="right"><font size="2"><a href="/schedule/?view=bydate&release=theatrical&date=2012-01-27&p=.htm">1/27</a></font></td><td align="right"><font size="2">3/1</font></td></tr><tr bgcolor="#f4f4ff"><td align="center"><font size="2">112</font></td><td><b><font size="2"><a href="/movies/?id=athousandwords.htm">A Thousand Words</a></font></b></td><td><font size="2"><a href="/studio/chart/?studio=pardw.htm">P/DW</a></font></td><td align="right"><font size="2"><b>$18,450,127</b></font></td><td align="right"><font size="2">1,895</font></td><td align="right"><font size="2">$6,176,280</font></td><td align="right"><font size="2">1,890</font></td><td align="right"><font size="2"><a href="/schedule/?view=bydate&release=theatrical&date=2012-03-09&p=.htm">3/9</a></font></td><td align="right"><font size="2">5/31</font></td></tr><tr bgcolor="#ffffff"><td align="center"><font size="2">113</font></td><td><b><font size="2"><a href="/movies/?id=chernobyldiaries.htm">Chernobyl Diaries</a></font></b></td><td><font size="2"><a href="/studio/chart/?studio=warnerbros.htm">WB</a></font></td><td align="right"><font size="2"><b>$18,119,640</b></font></td><td align="right"><font size="2">2,433</font></td><td align="right"><font size="2">$7,955,307</font></td><td align="right"><font size="2">2,433</font></td><td align="right"><font size="2"><a href="/schedule/?view=bydate&release=theatrical&date=2012-05-25&p=.htm">5/25</a></font></td><td align="right"><font size="2">7/19</font></td></tr><tr bgcolor="#f4f4ff"><td align="center"><font size="2">114</font></td><td><b><font size="2"><a href="/movies/?id=perksofbeingawallflower.htm">The Perks of Being a Wallflower</a></font></b></td><td><font size="2"><a href="/studio/chart/?studio=lionsgatesummit.htm">LG/S</a></font></td><td align="right"><font size="2"><b>$17,742,948</b></font></td><td align="right"><font size="2">745</font></td><td align="right"><font size="2">$228,359</font></td><td align="right"><font size="2">4</font></td><td align="right"><font size="2"><a href="/schedule/?view=bydate&release=theatrical&date=2012-09-21&p=.htm">9/21</a></font></td><td align="right"><font size="2">2/7</font></td></tr><tr bgcolor="#ffffff"><td align="center"><font size="2">115</font></td><td><b><font size="2"><a href="/movies/?id=silenthill2.htm">Silent Hill: Revelation 3D</a></font></b></td><td><font size="2"><a href="/studio/chart/?studio=openroads.htm">ORF</a></font></td><td align="right"><font size="2"><b>$17,529,157</b></font></td><td align="right"><font size="2">2,933</font></td><td align="right"><font size="2">$8,023,036</font></td><td align="right"><font size="2">2,933</font></td><td align="right"><font size="2"><a href="/schedule/?view=bydate&release=theatrical&date=2012-10-26&p=.htm">10/26</a></font></td><td align="right"><font size="2">12/16</font></td></tr><tr bgcolor="#f4f4ff"><td align="center"><font size="2">116</font></td><td><b><font size="2"><a href="/movies/?id=wanderlust.htm">Wanderlust</a></font></b></td><td><font size="2"><a href="/studio/chart/?studio=universal.htm">Uni.</a></font></td><td align="right"><font size="2"><b>$17,450,535</b></font></td><td align="right"><font size="2">2,002</font></td><td align="right"><font size="2">$6,526,650</font></td><td align="right"><font size="2">2,002</font></td><td align="right"><font size="2"><a href="/schedule/?view=bydate&release=theatrical&date=2012-02-24&p=.htm">2/24</a></font></td><td align="right"><font size="2">4/5</font></td></tr><tr bgcolor="#ffffff"><td align="center"><font size="2">117</font></td><td><b><font size="2"><a href="/movies/?id=safe2011.htm">Safe (2012)</a></font></b></td><td><font size="2"><a href="/studio/chart/?studio=lionsgate.htm">LGF</a></font></td><td align="right"><font size="2"><b>$17,142,080</b></font></td><td align="right"><font size="2">2,271</font></td><td align="right"><font size="2">$7,892,539</font></td><td align="right"><font size="2">2,266</font></td><td align="right"><font size="2"><a href="/schedule/?view=bydate&release=theatrical&date=2012-04-27&p=.htm">4/27</a></font></td><td align="right"><font size="2">6/21</font></td></tr><tr bgcolor="#f4f4ff"><td align="center"><font size="2">118</font></td><td><b><font size="2"><a href="/movies/?id=nerofiddled.htm">To Rome with Love</a></font></b></td><td><font size="2"><a href="/studio/chart/?studio=sonyclassics.htm">SPC</a></font></td><td align="right"><font size="2"><b>$16,685,867</b></font></td><td align="right"><font size="2">806</font></td><td align="right"><font size="2">$361,359</font></td><td align="right"><font size="2">5</font></td><td align="right"><font size="2"><a href="/schedule/?view=bydate&release=theatrical&date=2012-06-22&p=.htm">6/22</a></font></td><td align="right"><font size="2">11/15</font></td></tr><tr bgcolor="#ffffff"><td align="center"><font size="2">119</font></td><td><b><font size="2"><a href="/movies/?id=themaster.htm">The Master</a></font></b></td><td><font size="2"><a href="/studio/chart/?studio=weinsteincompany.htm">Wein.</a></font></td><td align="right"><font size="2"><b>$16,377,274</b></font></td><td align="right"><font size="2">864</font></td><td align="right"><font size="2">$736,311</font></td><td align="right"><font size="2">5</font></td><td align="right"><font size="2"><a href="/schedule/?view=bydate&release=theatrical&date=2012-09-14&p=.htm">9/14</a></font></td><td align="right"><font size="2">3/14</font></td></tr><tr bgcolor="#f4f4ff"><td align="center"><font size="2">120</font></td><td><b><font size="2"><a href="/movies/?id=raven.htm">The Raven</a></font></b></td><td><font size="2"><a href="/studio/chart/?studio=relativity.htm">Rela.</a></font></td><td align="right"><font size="2"><b>$16,008,272</b></font></td><td align="right"><font size="2">2,209</font></td><td align="right"><font size="2">$7,289,642</font></td><td align="right"><font size="2">2,203</font></td><td align="right"><font size="2"><a href="/schedule/?view=bydate&release=theatrical&date=2012-04-27&p=.htm">4/27</a></font></td><td align="right"><font size="2">7/12</font></td></tr><tr bgcolor="#ffffff"><td align="center"><font size="2">121</font></td><td><b><font size="2"><a href="/movies/?id=manwiththeironfists.htm">The Man with the Iron Fists</a></font></b></td><td><font size="2"><a href="/studio/chart/?studio=universal.htm">Uni.</a></font></td><td align="right"><font size="2"><b>$15,634,090</b></font></td><td align="right"><font size="2">1,872</font></td><td align="right"><font size="2">$7,910,980</font></td><td align="right"><font size="2">1,868</font></td><td align="right"><font size="2"><a href="/schedule/?view=bydate&release=theatrical&date=2012-11-02&p=.htm">11/2</a></font></td><td align="right"><font size="2">12/20</font></td></tr><tr bgcolor="#f4f4ff"><td align="center"><font size="2">122</font></td><td><b><font size="2"><a href="/movies/?id=coganstrade.htm">Killing Them Softly</a></font></b></td><td><font size="2"><a href="/studio/chart/?studio=weinsteincompany.htm">Wein.</a></font></td><td align="right"><font size="2"><b>$15,026,056</b></font></td><td align="right"><font size="2">2,424</font></td><td align="right"><font size="2">$6,812,900</font></td><td align="right"><font size="2">2,424</font></td><td align="right"><font size="2"><a href="/schedule/?view=bydate&release=theatrical&date=2012-11-30&p=.htm">11/30</a></font></td><td align="right"><font size="2">2/21</font></td></tr><tr bgcolor="#ffffff"><td align="center"><font size="2">123</font></td><td><b><font size="2"><a href="/movies/?id=sevenpsychopaths.htm">Seven Psychopaths</a></font></b></td><td><font size="2"><a href="/studio/chart/?studio=cbsfilms.htm">CBS</a></font></td><td align="right"><font size="2"><b>$15,024,049</b></font></td><td align="right"><font size="2">1,480</font></td><td align="right"><font size="2">$4,174,915</font></td><td align="right"><font size="2">1,480</font></td><td align="right"><font size="2"><a href="/schedule/?view=bydate&release=theatrical&date=2012-10-12&p=.htm">10/12</a></font></td><td align="right"><font size="2">12/20</font></td></tr><tr bgcolor="#f4f4ff"><td align="center"><font size="2">124</font></td><td><b><font size="2"><a href="/movies/?id=lockout.htm">Lockout</a></font></b></td><td><font size="2"><a href="/studio/chart/?studio=filmdistrict.htm">FD</a></font></td><td align="right"><font size="2"><b>$14,326,864</b></font></td><td align="right"><font size="2">2,335</font></td><td align="right"><font size="2">$6,231,836</font></td><td align="right"><font size="2">2,308</font></td><td align="right"><font size="2"><a href="/schedule/?view=bydate&release=theatrical&date=2012-04-13&p=.htm">4/13</a></font></td><td align="right"><font size="2">5/24</font></td></tr><tr bgcolor="#ffffff"><td align="center"><font size="2">125</font></td><td><b><font size="2"><a href="/movies/?id=tothearctic.htm">To the Arctic (IMAX)</a></font></b></td><td><font size="2"><a href="/studio/chart/?studio=warnerbros.htm">WB</a></font></td><td align="right"><font size="2"><b>$14,198,636</b></font></td><td align="right"><font size="2">52</font></td><td align="right"><font size="2">$270,228</font></td><td align="right"><font size="2">50</font></td><td align="right"><font size="2"><a href="/schedule/?view=bydate&release=theatrical&date=2012-04-20&p=.htm">4/20</a></font></td><td align="right"><font size="2">-</font></td></tr><tr bgcolor="#f4f4ff"><td align="center"><font size="2">126</font></td><td><b><font size="2"><a href="/movies/?id=hitandrun.htm">Hit and Run</a></font></b></td><td><font size="2"><a href="/studio/chart/?studio=openroads.htm">ORF</a></font></td><td align="right"><font size="2"><b>$13,749,300</b></font></td><td align="right"><font size="2">2,870</font></td><td align="right"><font size="2">$4,526,222</font></td><td align="right"><font size="2">2,870</font></td><td align="right"><font size="2"><a href="/schedule/?view=bydate&release=theatrical&date=2012-08-22&p=.htm">8/22</a></font></td><td align="right"><font size="2">10/11</font></td></tr><tr bgcolor="#ffffff"><td align="center"><font size="2">127</font></td><td><b><font size="2"><a href="/movies/?id=dredd.htm">Dredd</a></font></b></td><td><font size="2"><a href="/studio/chart/?studio=lionsgate.htm">LGF</a></font></td><td align="right"><font size="2"><b>$13,414,714</b></font></td><td align="right"><font size="2">2,557</font></td><td align="right"><font size="2">$6,278,491</font></td><td align="right"><font size="2">2,506</font></td><td align="right"><font size="2"><a href="/schedule/?view=bydate&release=theatrical&date=2012-09-21&p=.htm">9/21</a></font></td><td align="right"><font size="2">11/1</font></td></tr><tr bgcolor="#f4f4ff"><td align="center"><font size="2">128</font></td><td><b><font size="2"><a href="/movies/?id=playingthefield.htm">Playing for Keeps</a></font></b></td><td><font size="2"><a href="/studio/chart/?studio=filmdistrict.htm">FD</a></font></td><td align="right"><font size="2"><b>$13,102,272</b></font></td><td align="right"><font size="2">2,840</font></td><td align="right"><font size="2">$5,750,288</font></td><td align="right"><font size="2">2,837</font></td><td align="right"><font size="2"><a href="/schedule/?view=bydate&release=theatrical&date=2012-12-07&p=.htm">12/7</a></font></td><td align="right"><font size="2">2/21</font></td></tr><tr bgcolor="#ffffff"><td align="center"><font size="2">129</font></td><td><b><font size="2"><a href="/movies/?id=annakarenina2012.htm">Anna Karenina</a></font></b></td><td><font size="2"><a href="/studio/chart/?studio=focus.htm">Focus</a></font></td><td align="right"><font size="2"><b>$12,816,367</b></font></td><td align="right"><font size="2">422</font></td><td align="right"><font size="2">$320,690</font></td><td align="right"><font size="2">16</font></td><td align="right"><font size="2"><a href="/schedule/?view=bydate&release=theatrical&date=2012-11-16&p=.htm">11/16</a></font></td><td align="right"><font size="2">2/28</font></td></tr><tr bgcolor="#f4f4ff"><td align="center"><font size="2">130</font></td><td><b><font size="2"><a href="/movies/?id=beastsofthesouthernwild.htm">Beasts of the Southern Wild</a></font></b></td><td><font size="2"><a href="/studio/chart/?studio=foxsearchlight.htm">FoxS</a></font></td><td align="right"><font size="2"><b>$12,795,746</b></font></td><td align="right"><font size="2">318</font></td><td align="right"><font size="2">$169,702</font></td><td align="right"><font size="2">4</font></td><td align="right"><font size="2"><a href="/schedule/?view=bydate&release=theatrical&date=2012-06-27&p=.htm">6/27</a></font></td><td align="right"><font size="2">3/21</font></td></tr><tr bgcolor="#ffffff"><td align="center"><font size="2">131</font></td><td><b><font size="2"><a href="/movies/?id=silenthouse.htm">Silent House</a></font></b></td><td><font size="2"><a href="/studio/chart/?studio=openroads.htm">ORF</a></font></td><td align="right"><font size="2"><b>$12,754,783</b></font></td><td align="right"><font size="2">2,124</font></td><td align="right"><font size="2">$6,661,234</font></td><td align="right"><font size="2">2,124</font></td><td align="right"><font size="2"><a href="/schedule/?view=bydate&release=theatrical&date=2012-03-09&p=.htm">3/9</a></font></td><td align="right"><font size="2">5/3</font></td></tr><tr bgcolor="#f4f4ff"><td align="center"><font size="2">132</font></td><td><b><font size="2"><a href="/movies/?id=cirquedusoleil.htm">Cirque Du Soleil: Worlds Away</a></font></b></td><td><font size="2"><a href="/studio/chart/?studio=paramount.htm">Par.</a></font></td><td align="right"><font size="2"><b>$12,512,862</b></font></td><td align="right"><font size="2">840</font></td><td align="right"><font size="2">$2,162,993</font></td><td align="right"><font size="2">840</font></td><td align="right"><font size="2"><a href="/schedule/?view=bydate&release=theatrical&date=2012-12-21&p=.htm">12/21</a></font></td><td align="right"><font size="2">2/14</font></td></tr><tr bgcolor="#ffffff"><td align="center"><font size="2">133</font></td><td><b><font size="2"><a href="/movies/?id=peoplelikeus.htm">People Like Us</a></font></b></td><td><font size="2"><a href="/studio/chart/?studio=buenavista.htm">BV</a></font></td><td align="right"><font size="2"><b>$12,434,778</b></font></td><td align="right"><font size="2">2,055</font></td><td align="right"><font size="2">$4,255,423</font></td><td align="right"><font size="2">2,055</font></td><td align="right"><font size="2"><a href="/schedule/?view=bydate&release=theatrical&date=2012-06-29&p=.htm">6/29</a></font></td><td align="right"><font size="2">8/30</font></td></tr><tr bgcolor="#f4f4ff"><td align="center"><font size="2">134</font></td><td><b><font size="2"><a href="/movies/?id=gone.htm">Gone</a></font></b></td><td><font size="2"><a href="/studio/chart/?studio=lionsgatesummit.htm">LG/S</a></font></td><td align="right"><font size="2"><b>$11,682,205</b></font></td><td align="right"><font size="2">2,186</font></td><td align="right"><font size="2">$4,770,360</font></td><td align="right"><font size="2">2,186</font></td><td align="right"><font size="2"><a href="/schedule/?view=bydate&release=theatrical&date=2012-02-24&p=.htm">2/24</a></font></td><td align="right"><font size="2">4/12</font></td></tr><tr bgcolor="#ffffff"><td align="center"><font size="2">135</font></td><td><b><font size="2"><a href="/movies/?id=words2012.htm">The Words</a></font></b></td><td><font size="2"><a href="/studio/chart/?studio=cbsfilms.htm">CBS</a></font></td><td align="right"><font size="2"><b>$11,494,838</b></font></td><td align="right"><font size="2">2,801</font></td><td align="right"><font size="2">$4,750,894</font></td><td align="right"><font size="2">2,801</font></td><td align="right"><font size="2"><a href="/schedule/?view=bydate&release=theatrical&date=2012-09-07&p=.htm">9/7</a></font></td><td align="right"><font size="2">10/4</font></td></tr><tr bgcolor="#f4f4ff"><td align="center"><font size="2">136</font></td><td><b><font size="2"><a href="/movies/?id=intouchables.htm">The Intouchables (U.S.-only)</a></font></b></td><td><font size="2"><a href="/studio/chart/?studio=weinsteincompany.htm">Wein.</a></font></td><td align="right"><font size="2"><b>$10,198,820</b></font></td><td align="right"><font size="2">194</font></td><td align="right"><font size="2">$103,507</font></td><td align="right"><font size="2">4</font></td><td align="right"><font size="2"><a href="/schedule/?view=bydate&release=theatrical&date=2012-05-25&p=.htm">5/25</a></font></td><td align="right"><font size="2">1/17</font></td></tr><tr bgcolor="#ffffff"><td align="center"><font size="2">137</font></td><td><b><font size="2"><a href="/movies/?id=funsize.htm">Fun Size</a></font></b></td><td><font size="2"><a href="/studio/chart/?studio=paramount.htm">Par.</a></font></td><td align="right"><font size="2"><b>$9,409,538</b></font></td><td align="right"><font size="2">3,016</font></td><td align="right"><font size="2">$4,101,017</font></td><td align="right"><font size="2">3,014</font></td><td align="right"><font size="2"><a href="/schedule/?view=bydate&release=theatrical&date=2012-10-26&p=.htm">10/26</a></font></td><td align="right"><font size="2">12/13</font></td></tr><tr bgcolor="#f4f4ff"><td align="center"><font size="2">138</font></td><td><b><font size="2"><a href="/movies/?id=bernie.htm">Bernie</a></font></b></td><td><font size="2"><a href="/studio/chart/?studio=millenniumentertainment.htm">MNE</a></font></td><td align="right"><font size="2"><b>$9,206,470</b></font></td><td align="right"><font size="2">332</font></td><td align="right"><font size="2">$85,805</font></td><td align="right"><font size="2">3</font></td><td align="right"><font size="2"><a href="/schedule/?view=bydate&release=theatrical&date=2012-04-27&p=.htm">4/27</a></font></td><td align="right"><font size="2">9/20</font></td></tr><tr bgcolor="#ffffff"><td align="center"><font size="2">139</font></td><td><b><font size="2"><a href="/movies/?id=salmonfishing.htm">Salmon Fishing in the Yemen</a></font></b></td><td><font size="2"><a href="/studio/chart/?studio=cbsfilms.htm">CBS</a></font></td><td align="right"><font size="2"><b>$9,047,981</b></font></td><td align="right"><font size="2">524</font></td><td align="right"><font size="2">$225,894</font></td><td align="right"><font size="2">18</font></td><td align="right"><font size="2"><a href="/schedule/?view=bydate&release=theatrical&date=2012-03-09&p=.htm">3/9</a></font></td><td align="right"><font size="2">6/7</font></td></tr><tr bgcolor="#f4f4ff"><td align="center"><font size="2">140</font></td><td><b><font size="2"><a href="/movies/?id=arbitrage.htm">Arbitrage</a></font></b></td><td><font size="2"><a href="/studio/chart/?studio=roadsideattractions.htm">RAtt.</a></font></td><td align="right"><font size="2"><b>$7,919,574</b></font></td><td align="right"><font size="2">256</font></td><td align="right"><font size="2">$2,002,165</font></td><td align="right"><font size="2">197</font></td><td align="right"><font size="2"><a href="/schedule/?view=bydate&release=theatrical&date=2012-09-14&p=.htm">9/14</a></font></td><td align="right"><font size="2">1/17</font></td></tr><tr bgcolor="#ffffff"><td align="center"><font size="2">141</font></td><td><b><font size="2"><a href="/movies/?id=promisedland2012.htm">Promised Land (2012)</a></font></b></td><td><font size="2"><a href="/studio/chart/?studio=focus.htm">Focus</a></font></td><td align="right"><font size="2"><b>$7,597,898</b></font></td><td align="right"><font size="2">1,676</font></td><td align="right"><font size="2">$173,915</font></td><td align="right"><font size="2">25</font></td><td align="right"><font size="2"><a href="/schedule/?view=bydate&release=theatrical&date=2012-12-28&p=.htm">12/28</a></font></td><td align="right"><font size="2">1/24</font></td></tr><tr bgcolor="#f4f4ff"><td align="center"><font size="2">142</font></td><td><b><font size="2"><a href="/movies/?id=friendswithkids.htm">Friends with Kids</a></font></b></td><td><font size="2"><a href="/studio/chart/?studio=roadsideattractions.htm">RAtt.</a></font></td><td align="right"><font size="2"><b>$7,251,073</b></font></td><td align="right"><font size="2">640</font></td><td align="right"><font size="2">$2,019,083</font></td><td align="right"><font size="2">369</font></td><td align="right"><font size="2"><a href="/schedule/?view=bydate&release=theatrical&date=2012-03-09&p=.htm">3/9</a></font></td><td align="right"><font size="2">6/14</font></td></tr><tr bgcolor="#ffffff"><td align="center"><font size="2">143</font></td><td><b><font size="2"><a href="/movies/?id=seekingafriend.htm">Seeking a Friend for the End of the World</a></font></b></td><td><font size="2"><a href="/studio/chart/?studio=focus.htm">Focus</a></font></td><td align="right"><font size="2"><b>$7,078,738</b></font></td><td align="right"><font size="2">1,625</font></td><td align="right"><font size="2">$3,822,803</font></td><td align="right"><font size="2">1,625</font></td><td align="right"><font size="2"><a href="/schedule/?view=bydate&release=theatrical&date=2012-06-22&p=.htm">6/22</a></font></td><td align="right"><font size="2">7/5</font></td></tr><tr bgcolor="#f4f4ff"><td align="center"><font size="2">144</font></td><td><b><font size="2"><a href="/movies/?id=collection.htm">The Collection</a></font></b></td><td><font size="2"><a href="/studio/chart/?studio=lddistribution.htm">LD</a></font></td><td align="right"><font size="2"><b>$6,842,058</b></font></td><td align="right"><font size="2">1,403</font></td><td align="right"><font size="2">$3,104,269</font></td><td align="right"><font size="2">1,403</font></td><td align="right"><font size="2"><a href="/schedule/?view=bydate&release=theatrical&date=2012-11-30&p=.htm">11/30</a></font></td><td align="right"><font size="2">12/30</font></td></tr><tr bgcolor="#ffffff"><td align="center"><font size="2">145</font></td><td><b><font size="2"><a href="/movies/?id=amour.htm">Amour</a></font></b></td><td><font size="2"><a href="/studio/chart/?studio=sonyclassics.htm">SPC</a></font></td><td align="right"><font size="2"><b>$6,739,492</b></font></td><td align="right"><font size="2">333</font></td><td align="right"><font size="2">$68,266</font></td><td align="right"><font size="2">3</font></td><td align="right"><font size="2"><a href="/schedule/?view=bydate&release=theatrical&date=2012-12-19&p=.htm">12/19</a></font></td><td align="right"><font size="2">5/16</font></td></tr><tr bgcolor="#f4f4ff"><td align="center"><font size="2">146</font></td><td><b><font size="2"><a href="/movies/?id=hydepark.htm">Hyde Park on Hudson</a></font></b></td><td><font size="2"><a href="/studio/chart/?studio=focus.htm">Focus</a></font></td><td align="right"><font size="2"><b>$6,376,145</b></font></td><td align="right"><font size="2">246</font></td><td align="right"><font size="2">$81,362</font></td><td align="right"><font size="2">4</font></td><td align="right"><font size="2"><a href="/schedule/?view=bydate&release=theatrical&date=2012-12-07&p=.htm">12/7</a></font></td><td align="right"><font size="2">3/28</font></td></tr><tr bgcolor="#ffffff"><td align="center"><font size="2">147</font></td><td><b><font size="2"><a href="/movies/?id=hitchcock.htm">Hitchcock</a></font></b></td><td><font size="2"><a href="/studio/chart/?studio=foxsearchlight.htm">FoxS</a></font></td><td align="right"><font size="2"><b>$6,008,677</b></font></td><td align="right"><font size="2">561</font></td><td align="right"><font size="2">$287,715</font></td><td align="right"><font size="2">17</font></td><td align="right"><font size="2"><a href="/schedule/?view=bydate&release=theatrical&date=2012-11-23&p=.htm">11/23</a></font></td><td align="right"><font size="2">3/14</font></td></tr><tr bgcolor="#f4f4ff"><td align="center"><font size="2">148</font></td><td><b><font size="2"><a href="/movies/?id=ofmenandmavericks.htm">Chasing Mavericks</a></font></b></td><td><font size="2"><a href="/studio/chart/?studio=fox.htm">Fox</a></font></td><td align="right"><font size="2"><b>$6,002,756</b></font></td><td align="right"><font size="2">2,030</font></td><td align="right"><font size="2">$2,268,274</font></td><td align="right"><font size="2">2,002</font></td><td align="right"><font size="2"><a href="/schedule/?view=bydate&release=theatrical&date=2012-10-26&p=.htm">10/26</a></font></td><td align="right"><font size="2">1/13</font></td></tr><tr bgcolor="#ffffff"><td align="center"><font size="2">149</font></td><td><b><font size="2"><a href="/movies/?id=sixsessions.htm">The Sessions</a></font></b></td><td><font size="2"><a href="/studio/chart/?studio=foxsearchlight.htm">FoxS</a></font></td><td align="right"><font size="2"><b>$6,002,451</b></font></td><td align="right"><font size="2">516</font></td><td align="right"><font size="2">$113,467</font></td><td align="right"><font size="2">4</font></td><td align="right"><font size="2"><a href="/schedule/?view=bydate&release=theatrical&date=2012-10-19&p=.htm">10/19</a></font></td><td align="right"><font size="2">3/14</font></td></tr><tr bgcolor="#f4f4ff"><td align="center"><font size="2">150</font></td><td><b><font size="2"><a href="/movies/?id=casademipadre.htm">Casa De Mi Padre</a></font></b></td><td><font size="2"><a href="/studio/chart/?studio=lionsgate.htm">LGF</a></font></td><td align="right"><font size="2"><b>$5,909,483</b></font></td><td align="right"><font size="2">475</font></td><td align="right"><font size="2">$2,287,239</font></td><td align="right"><font size="2">382</font></td><td align="right"><font size="2"><a href="/schedule/?view=bydate&release=theatrical&date=2012-03-16&p=.htm">3/16</a></font></td><td align="right"><font size="2">5/17</font></td></tr><tr bgcolor="#ffffff"><td align="center"><font size="2">151</font></td><td><b><font size="2"><a href="/movies/?id=forgreaterglory.htm">For Greater Glory</a></font></b></td><td><font size="2"><a href="/studio/chart/?studio=arcent.htm">ArcEnt</a></font></td><td align="right"><font size="2"><b>$5,672,846</b></font></td><td align="right"><font size="2">757</font></td><td align="right"><font size="2">$1,885,608</font></td><td align="right"><font size="2">757</font></td><td align="right"><font size="2"><a href="/schedule/?view=bydate&release=theatrical&date=2012-06-01&p=.htm">6/1</a></font></td><td align="right"><font size="2">8/16</font></td></tr><tr bgcolor="#f4f4ff"><td align="center"><font size="2">152</font></td><td><b><font size="2"><a href="/movies/?id=learningtofly.htm">Won\'t Back Down</a></font></b></td><td><font size="2"><a href="/studio/chart/?studio=fox.htm">Fox</a></font></td><td align="right"><font size="2"><b>$5,310,554</b></font></td><td align="right"><font size="2">2,517</font></td><td align="right"><font size="2">$2,603,370</font></td><td align="right"><font size="2">2,515</font></td><td align="right"><font size="2"><a href="/schedule/?view=bydate&release=theatrical&date=2012-09-28&p=.htm">9/28</a></font></td><td align="right"><font size="2">11/22</font></td></tr><tr bgcolor="#ffffff"><td align="center"><font size="2">153</font></td><td><b><font size="2"><a href="/movies/?id=octoberbaby2012.htm">October Baby (2012)</a></font></b></td><td><font size="2"><a href="/studio/chart/?studio=samuelgoldwyn.htm">Gold.</a></font></td><td align="right"><font size="2"><b>$5,157,886</b></font></td><td align="right"><font size="2">390</font></td><td align="right"><font size="2">$1,697,130</font></td><td align="right"><font size="2">390</font></td><td align="right"><font size="2"><a href="/schedule/?view=bydate&release=theatrical&date=2012-03-23&p=.htm">3/23</a></font></td><td align="right"><font size="2">6/14</font></td></tr><tr bgcolor="#f4f4ff"><td align="center"><font size="2">154</font></td><td><b><font size="2"><a href="/movies/?id=apparition.htm">The Apparition</a></font></b></td><td><font size="2"><a href="/studio/chart/?studio=warnerbros.htm">WB</a></font></td><td align="right"><font size="2"><b>$4,936,819</b></font></td><td align="right"><font size="2">810</font></td><td align="right"><font size="2">$2,841,488</font></td><td align="right"><font size="2">810</font></td><td align="right"><font size="2"><a href="/schedule/?view=bydate&release=theatrical&date=2012-08-24&p=.htm">8/24</a></font></td><td align="right"><font size="2">10/11</font></td></tr><tr bgcolor="#ffffff"><td align="center"><font size="2">155</font></td><td><b><font size="2"><a href="/movies/?id=jeffwholivesathome.htm">Jeff, Who Lives at Home</a></font></b></td><td><font size="2"><a href="/studio/chart/?studio=paramountvantage.htm">ParV</a></font></td><td align="right"><font size="2"><b>$4,269,426</b></font></td><td align="right"><font size="2">513</font></td><td align="right"><font size="2">$855,709</font></td><td align="right"><font size="2">254</font></td><td align="right"><font size="2"><a href="/schedule/?view=bydate&release=theatrical&date=2012-03-16&p=.htm">3/16</a></font></td><td align="right"><font size="2">5/17</font></td></tr><tr bgcolor="#f4f4ff"><td align="center"><font size="2">156</font></td><td><b><font size="2"><a href="/movies/?id=goon.htm">Goon</a></font></b></td><td><font size="2"><a href="/studio/chart/?studio=magnolia.htm">Magn.</a></font></td><td align="right"><font size="2"><b>$4,168,528</b></font></td><td align="right"><font size="2">242</font></td><td align="right"><font size="2">$1,232,860</font></td><td align="right"><font size="2">241</font></td><td align="right"><font size="2"><a href="/schedule/?view=bydate&release=theatrical&date=2012-02-24&p=.htm">2/24</a></font></td><td align="right"><font size="2">5/31</font></td></tr><tr bgcolor="#ffffff"><td align="center"><font size="2">157</font></td><td><b><font size="2"><a href="/movies/?id=raid.htm">The Raid: Redemption</a></font></b></td><td><font size="2"><a href="/studio/chart/?studio=sonyclassics.htm">SPC</a></font></td><td align="right"><font size="2"><b>$4,105,187</b></font></td><td align="right"><font size="2">881</font></td><td align="right"><font size="2">$213,785</font></td><td align="right"><font size="2">14</font></td><td align="right"><font size="2"><a href="/schedule/?view=bydate&release=theatrical&date=2012-03-23&p=.htm">3/23</a></font></td><td align="right"><font size="2">7/12</font></td></tr><tr bgcolor="#f4f4ff"><td align="center"><font size="2">158</font></td><td><b><font size="2"><a href="/movies/?id=safetynotguaranteed.htm">Safety Not Guaranteed</a></font></b></td><td><font size="2"><a href="/studio/chart/?studio=filmdistrict.htm">FD</a></font></td><td align="right"><font size="2"><b>$4,010,957</b></font></td><td align="right"><font size="2">182</font></td><td align="right"><font size="2">$97,762</font></td><td align="right"><font size="2">9</font></td><td align="right"><font size="2"><a href="/schedule/?view=bydate&release=theatrical&date=2012-06-08&p=.htm">6/8</a></font></td><td align="right"><font size="2">10/18</font></td></tr><tr bgcolor="#ffffff"><td align="center"><font size="2">159</font></td><td><b><font size="2"><a href="/movies/?id=bullypg13.htm">Bully (PG-13)</a></font></b></td><td><font size="2"><a href="/studio/chart/?studio=weinsteincompany.htm">Wein.</a></font></td><td align="right"><font size="2"><b>$3,863,446</b></font></td><td align="right"><font size="2">263</font></td><td align="right"><font size="2">$535,433</font></td><td align="right"><font size="2">158</font></td><td align="right"><font size="2"><a href="/schedule/?view=bydate&release=theatrical&date=2012-04-13&p=.htm">4/13</a></font></td><td align="right"><font size="2">6/21</font></td></tr><tr bgcolor="#f4f4ff"><td align="center"><font size="2">160</font></td><td><b><font size="2"><a href="/movies/?id=coldlightofday.htm">The Cold Light of Day</a></font></b></td><td><font size="2"><a href="/studio/chart/?studio=lionsgatesummit.htm">LG/S</a></font></td><td align="right"><font size="2"><b>$3,763,583</b></font></td><td align="right"><font size="2">1,511</font></td><td align="right"><font size="2">$1,831,588</font></td><td align="right"><font size="2">1,511</font></td><td align="right"><font size="2"><a href="/schedule/?view=bydate&release=theatrical&date=2012-09-07&p=.htm">9/7</a></font></td><td align="right"><font size="2">10/4</font></td></tr><tr bgcolor="#ffffff"><td align="center"><font size="2">161</font></td><td><b><font size="2"><a href="/movies/?id=searchingforsugarman.htm">Searching for Sugar Man</a></font></b></td><td><font size="2"><a href="/studio/chart/?studio=sonyclassics.htm">SPC</a></font></td><td align="right"><font size="2"><b>$3,696,196</b></font></td><td align="right"><font size="2">157</font></td><td align="right"><font size="2">$27,459</font></td><td align="right"><font size="2">3</font></td><td align="right"><font size="2"><a href="/schedule/?view=bydate&release=theatrical&date=2012-07-27&p=.htm">7/27</a></font></td><td align="right"><font size="2">8/22</font></td></tr><tr bgcolor="#f4f4ff"><td align="center"><font size="2">162</font></td><td><b><font size="2"><a href="/movies/?id=nitrocircus.htm">Nitro Circus the Movie 3D</a></font></b></td><td><font size="2"><a href="/studio/chart/?studio=arcent.htm">ArcEnt</a></font></td><td align="right"><font size="2"><b>$3,377,618</b></font></td><td align="right"><font size="2">800</font></td><td align="right"><font size="2">$1,183,701</font></td><td align="right"><font size="2">800</font></td><td align="right"><font size="2"><a href="/schedule/?view=bydate&release=theatrical&date=2012-08-08&p=.htm">8/8</a></font></td><td align="right"><font size="2">10/11</font></td></tr><tr bgcolor="#ffffff"><td align="center"><font size="2">163</font></td><td><b><font size="2"><a href="/movies/?id=atlasshruggedpart2.htm">Atlas Shrugged: Part II</a></font></b></td><td><font size="2"><a href="/studio/chart/?studio=atlas.htm">ADC</a></font></td><td align="right"><font size="2"><b>$3,336,053</b></font></td><td align="right"><font size="2">1,012</font></td><td align="right"><font size="2">$1,751,572</font></td><td align="right"><font size="2">1,012</font></td><td align="right"><font size="2"><a href="/schedule/?view=bydate&release=theatrical&date=2012-10-12&p=.htm">10/12</a></font></td><td align="right"><font size="2">11/29</font></td></tr><tr bgcolor="#f4f4ff"><td align="center"><font size="2">164</font></td><td><b><font size="2"><a href="/movies/?id=lastounceofcourage.htm">Last Ounce of Courage</a></font></b></td><td><font size="2"><a href="/studio/chart/?studio=rockymountainpictures.htm">RM</a></font></td><td align="right"><font size="2"><b>$3,329,674</b></font></td><td align="right"><font size="2">1,407</font></td><td align="right"><font size="2">$1,585,994</font></td><td align="right"><font size="2">1,407</font></td><td align="right"><font size="2"><a href="/schedule/?view=bydate&release=theatrical&date=2012-09-14&p=.htm">9/14</a></font></td><td align="right"><font size="2">10/11</font></td></tr><tr bgcolor="#ffffff"><td align="center"><font size="2">165</font></td><td><b><font size="2"><a href="/movies/?id=robotandfrank.htm">Robot &amp; Frank</a></font></b></td><td><font size="2"><a href="/studio/chart/?studio=samuelgoldwyn.htm">Gold.</a></font></td><td align="right"><font size="2"><b>$3,325,038</b></font></td><td align="right"><font size="2">209</font></td><td align="right"><font size="2">$35,539</font></td><td align="right"><font size="2">2</font></td><td align="right"><font size="2"><a href="/schedule/?view=bydate&release=theatrical&date=2012-08-17&p=.htm">8/17</a></font></td><td align="right"><font size="2">1/21</font></td></tr><tr bgcolor="#f4f4ff"><td align="center"><font size="2">166</font></td><td><b><font size="2"><a href="/movies/?id=raidersimax.htm">Raiders of the Lost Ark (IMAX)</a></font></b></td><td><font size="2"><a href="/studio/chart/?studio=paramount.htm">Par.</a></font></td><td align="right"><font size="2"><b>$3,125,613</b></font></td><td align="right"><font size="2">322</font></td><td align="right"><font size="2">$1,673,731</font></td><td align="right"><font size="2">267</font></td><td align="right"><font size="2"><a href="/schedule/?view=bydate&release=theatrical&date=2012-09-07&p=.htm">9/7</a></font></td><td align="right"><font size="2">10/4</font></td></tr><tr bgcolor="#ffffff"><td align="center"><font size="2">167</font></td><td><b><font size="2"><a href="/movies/?id=celesteandjesseforever.htm">Celeste and Jesse Forever</a></font></b></td><td><font size="2"><a href="/studio/chart/?studio=sonyclassics.htm">SPC</a></font></td><td align="right"><font size="2"><b>$3,094,813</b></font></td><td align="right"><font size="2">586</font></td><td align="right"><font size="2">$107,785</font></td><td align="right"><font size="2">4</font></td><td align="right"><font size="2"><a href="/schedule/?view=bydate&release=theatrical&date=2012-08-03&p=.htm">8/3</a></font></td><td align="right"><font size="2">12/13</font></td></tr><tr bgcolor="#f4f4ff"><td align="center"><font size="2">168</font></td><td><b><font size="2"><a href="/movies/?id=yashchopra.htm">Jab Tak Hai Jaan</a></font></b></td><td><font size="2"><a href="/studio/chart/?studio=yashraj.htm">Yash</a></font></td><td align="right"><font size="2"><b>$3,047,539</b></font></td><td align="right"><font size="2">164</font></td><td align="right"><font size="2">$1,283,585</font></td><td align="right"><font size="2">161</font></td><td align="right"><font size="2"><a href="/schedule/?view=bydate&release=theatrical&date=2012-11-13&p=.htm">11/13</a></font></td><td align="right"><font size="2">11/25</font></td></tr><tr bgcolor="#ffffff"><td align="center"><font size="2">169</font></td><td><b><font size="2"><a href="/movies/?id=albertnobbs.htm">Albert Nobbs</a></font></b></td><td><font size="2"><a href="/studio/chart/?studio=roadsideattractions.htm">RAtt.</a></font></td><td align="right"><font size="2"><b>$3,014,696</b></font></td><td align="right"><font size="2">245</font></td><td align="right"><font size="2">$696,088</font></td><td align="right"><font size="2">245</font></td><td align="right"><font size="2"><a href="/schedule/?view=bydate&release=theatrical&date=2012-01-27&p=.htm">1/27</a></font></td><td align="right"><font size="2">5/17</font></td></tr><tr bgcolor="#f4f4ff"><td align="center"><font size="2">170</font></td><td><b><font size="2"><a href="/movies/?id=talaash.htm">Talaash</a></font></b></td><td><font size="2"><a href="/studio/chart/?studio=reliancebigpictures.htm">Relbig.</a></font></td><td align="right"><font size="2"><b>$2,871,956</b></font></td><td align="right"><font size="2">172</font></td><td align="right"><font size="2">$1,638,706</font></td><td align="right"><font size="2">172</font></td><td align="right"><font size="2"><a href="/schedule/?view=bydate&release=theatrical&date=2012-11-30&p=.htm">11/30</a></font></td><td align="right"><font size="2">1/10</font></td></tr><tr bgcolor="#ffffff"><td align="center"><font size="2">171</font></td><td><b><font size="2"><a href="/movies/?id=barfi.htm">Barfi!</a></font></b></td><td><font size="2"><a href="/studio/chart/?studio=utv.htm">UTV</a></font></td><td align="right"><font size="2"><b>$2,804,874</b></font></td><td align="right"><font size="2">132</font></td><td align="right"><font size="2">$1,061,713</font></td><td align="right"><font size="2">132</font></td><td align="right"><font size="2"><a href="/schedule/?view=bydate&release=theatrical&date=2012-09-14&p=.htm">9/14</a></font></td><td align="right"><font size="2">10/28</font></td></tr><tr bgcolor="#f4f4ff"><td align="center"><font size="2">172</font></td><td><b><font size="2"><a href="/movies/?id=samsara.htm">Samsara</a></font></b></td><td><font size="2"><a href="/studio/chart/?studio=oscilloscopepictures.htm">Osci.</a></font></td><td align="right"><font size="2"><b>$2,672,413</b></font></td><td align="right"><font size="2">70</font></td><td align="right"><font size="2">$76,222</font></td><td align="right"><font size="2">2</font></td><td align="right"><font size="2"><a href="/schedule/?view=bydate&release=theatrical&date=2012-08-24&p=.htm">8/24</a></font></td><td align="right"><font size="2">4/25</font></td></tr><tr bgcolor="#ffffff"><td align="center"><font size="2">173</font></td><td><b><font size="2"><a href="/movies/?id=girlinprogress.htm">Girl in Progress</a></font></b></td><td><font size="2"><a href="/studio/chart/?studio=lionsgate.htm">LGF</a></font></td><td align="right"><font size="2"><b>$2,609,412</b></font></td><td align="right"><font size="2">322</font></td><td align="right"><font size="2">$1,384,078</font></td><td align="right"><font size="2">322</font></td><td align="right"><font size="2"><a href="/schedule/?view=bydate&release=theatrical&date=2012-05-11&p=.htm">5/11</a></font></td><td align="right"><font size="2">6/21</font></td></tr><tr bgcolor="#f4f4ff"><td align="center"><font size="2">174</font></td><td><b><font size="2"><a href="/movies/?id=jirodreamsofsushi.htm">Jiro Dreams of Sushi</a></font></b></td><td><font size="2"><a href="/studio/chart/?studio=magnolia.htm">Magn.</a></font></td><td align="right"><font size="2"><b>$2,552,478</b></font></td><td align="right"><font size="2">80</font></td><td align="right"><font size="2">$42,035</font></td><td align="right"><font size="2">2</font></td><td align="right"><font size="2"><a href="/schedule/?view=bydate&release=theatrical&date=2012-03-09&p=.htm">3/9</a></font></td><td align="right"><font size="2">8/23</font></td></tr><tr bgcolor="#ffffff"><td align="center"><font size="2">175</font></td><td><b><font size="2"><a href="/movies/?id=rubysparks.htm">Ruby Sparks</a></font></b></td><td><font size="2"><a href="/studio/chart/?studio=foxsearchlight.htm">FoxS</a></font></td><td align="right"><font size="2"><b>$2,540,106</b></font></td><td align="right"><font size="2">261</font></td><td align="right"><font size="2">$140,822</font></td><td align="right"><font size="2">13</font></td><td align="right"><font size="2"><a href="/schedule/?view=bydate&release=theatrical&date=2012-07-25&p=.htm">7/25</a></font></td><td align="right"><font size="2">10/25</font></td></tr><tr bgcolor="#f4f4ff"><td align="center"><font size="2">176</font></td><td><b><font size="2"><a href="/movies/?id=debangg2.htm">Dabangg 2</a></font></b></td><td><font size="2"><a href="/studio/chart/?studio=eros.htm">Eros</a></font></td><td align="right"><font size="2"><b>$2,519,190</b></font></td><td align="right"><font size="2">166</font></td><td align="right"><font size="2">$1,019,213</font></td><td align="right"><font size="2">166</font></td><td align="right"><font size="2"><a href="/schedule/?view=bydate&release=theatrical&date=2012-12-21&p=.htm">12/21</a></font></td><td align="right"><font size="2">1/24</font></td></tr><tr bgcolor="#ffffff"><td align="center"><font size="2">177</font></td><td><b><font size="2"><a href="/movies/?id=queenofversailles.htm">The Queen of Versailles</a></font></b></td><td><font size="2"><a href="/studio/chart/?studio=magnolia.htm">Magn.</a></font></td><td align="right"><font size="2"><b>$2,401,999</b></font></td><td align="right"><font size="2">89</font></td><td align="right"><font size="2">$51,326</font></td><td align="right"><font size="2">3</font></td><td align="right"><font size="2"><a href="/schedule/?view=bydate&release=theatrical&date=2012-07-20&p=.htm">7/20</a></font></td><td align="right"><font size="2">11/22</font></td></tr><tr bgcolor="#f4f4ff"><td align="center"><font size="2">178</font></td><td><b><font size="2"><a href="/movies/?id=ekthatiger.htm">Ek Tha Tiger</a></font></b></td><td><font size="2"><a href="/studio/chart/?studio=yashraj.htm">Yash</a></font></td><td align="right"><font size="2"><b>$2,347,774</b></font></td><td align="right"><font size="2">120</font></td><td align="right"><font size="2">$1,139,340</font></td><td align="right"><font size="2">120</font></td><td align="right"><font size="2"><a href="/schedule/?view=bydate&release=theatrical&date=2012-08-15&p=.htm">8/15</a></font></td><td align="right"><font size="2">8/26</font></td></tr><tr bgcolor="#ffffff"><td align="center"><font size="2">179</font></td><td><b><font size="2"><a href="/movies/?id=sleepwalkwithme.htm">Sleepwalk with Me</a></font></b></td><td><font size="2"><a href="/studio/chart/?studio=ifc.htm">IFC</a></font></td><td align="right"><font size="2"><b>$2,266,067</b></font></td><td align="right"><font size="2">135</font></td><td align="right"><font size="2">$68,801</font></td><td align="right"><font size="2">1</font></td><td align="right"><font size="2"><a href="/schedule/?view=bydate&release=theatrical&date=2012-08-24&p=.htm">8/24</a></font></td><td align="right"><font size="2">11/22</font></td></tr><tr bgcolor="#f4f4ff"><td align="center"><font size="2">180</font></td><td><b><font size="2"><a href="/movies/?id=rustandbone.htm">Rust and Bone</a></font></b></td><td><font size="2"><a href="/studio/chart/?studio=sonyclassics.htm">SPC</a></font></td><td align="right"><font size="2"><b>$2,062,027</b></font></td><td align="right"><font size="2">168</font></td><td align="right"><font size="2">$27,154</font></td><td align="right"><font size="2">2</font></td><td align="right"><font size="2"><a href="/schedule/?view=bydate&release=theatrical&date=2012-11-23&p=.htm">11/23</a></font></td><td align="right"><font size="2">4/4</font></td></tr><tr bgcolor="#ffffff"><td align="center"><font size="2">181</font></td><td><b><font size="2"><a href="/movies/?id=monsieurlazhar.htm">Monsieur Lazhar (U.S.-only)</a></font></b></td><td><font size="2"><a href="/studio/chart/?studio=musicboxfilms.htm">MBox</a></font></td><td align="right"><font size="2"><b>$2,009,517</b></font></td><td align="right"><font size="2">86</font></td><td align="right"><font size="2">$112,190</font></td><td align="right"><font size="2">19</font></td><td align="right"><font size="2"><a href="/schedule/?view=bydate&release=theatrical&date=2012-04-13&p=.htm">4/13</a></font></td><td align="right"><font size="2">10/11</font></td></tr><tr bgcolor="#f4f4ff"><td align="center"><font size="2">182</font></td><td><b><font size="2"><a href="/movies/?id=footnote.htm">Footnote</a></font></b></td><td><font size="2"><a href="/studio/chart/?studio=sonyclassics.htm">SPC</a></font></td><td align="right"><font size="2"><b>$2,007,758</b></font></td><td align="right"><font size="2">101</font></td><td align="right"><font size="2">$47,528</font></td><td align="right"><font size="2">2</font></td><td align="right"><font size="2"><a href="/schedule/?view=bydate&release=theatrical&date=2012-03-09&p=.htm">3/9</a></font></td><td align="right"><font size="2">7/12</font></td></tr><tr bgcolor="#ffffff"><td align="center"><font size="2">183</font></td><td><b><font size="2"><a href="/movies/?id=killerjoe.htm">Killer Joe</a></font></b></td><td><font size="2"><a href="/studio/chart/?studio=lddistribution.htm">LD</a></font></td><td align="right"><font size="2"><b>$1,987,762</b></font></td><td align="right"><font size="2">75</font></td><td align="right"><font size="2">$37,900</font></td><td align="right"><font size="2">3</font></td><td align="right"><font size="2"><a href="/schedule/?view=bydate&release=theatrical&date=2012-07-27&p=.htm">7/27</a></font></td><td align="right"><font size="2">10/14</font></td></tr><tr bgcolor="#f4f4ff"><td align="center"><font size="2">184</font></td><td><b><font size="2"><a href="/movies/?id=agneepath.htm">Agneepath</a></font></b></td><td><font size="2"><a href="/studio/chart/?studio=eros.htm">Eros</a></font></td><td align="right"><font size="2"><b>$1,986,748</b></font></td><td align="right"><font size="2">132</font></td><td align="right"><font size="2">$1,140,464</font></td><td align="right"><font size="2">132</font></td><td align="right"><font size="2"><a href="/schedule/?view=bydate&release=theatrical&date=2012-01-26&p=.htm">1/26</a></font></td><td align="right"><font size="2">2/23</font></td></tr><tr bgcolor="#ffffff"><td align="center"><font size="2">185</font></td><td><b><font size="2"><a href="/movies/?id=englishvinglish.htm">English Vinglish</a></font></b></td><td><font size="2"><a href="/studio/chart/?studio=eros.htm">Eros</a></font></td><td align="right"><font size="2"><b>$1,862,086</b></font></td><td align="right"><font size="2">88</font></td><td align="right"><font size="2">$745,414</font></td><td align="right"><font size="2">88</font></td><td align="right"><font size="2"><a href="/schedule/?view=bydate&release=theatrical&date=2012-10-05&p=.htm">10/5</a></font></td><td align="right"><font size="2">11/25</font></td></tr><tr bgcolor="#f4f4ff"><td align="center"><font size="2">186</font></td><td><b><font size="2"><a href="/movies/?id=crookedarrows.htm">Crooked Arrows</a></font></b></td><td><font size="2"><a href="/studio/chart/?studio=brandedpeck.htm">BPE</a></font></td><td align="right"><font size="2"><b>$1,832,541</b></font></td><td align="right"><font size="2">327</font></td><td align="right"><font size="2">$257,364</font></td><td align="right"><font size="2">55</font></td><td align="right"><font size="2"><a href="/schedule/?view=bydate&release=theatrical&date=2012-05-18&p=.htm">5/18</a></font></td><td align="right"><font size="2">7/19</font></td></tr><tr bgcolor="#ffffff"><td align="center"><font size="2">187</font></td><td><b><font size="2"><a href="/movies/?id=hysteria.htm">Hysteria</a></font></b></td><td><font size="2"><a href="/studio/chart/?studio=sonyclassics.htm">SPC</a></font></td><td align="right"><font size="2"><b>$1,804,139</b></font></td><td align="right"><font size="2">218</font></td><td align="right"><font size="2">$35,656</font></td><td align="right"><font size="2">5</font></td><td align="right"><font size="2"><a href="/schedule/?view=bydate&release=theatrical&date=2012-05-18&p=.htm">5/18</a></font></td><td align="right"><font size="2">9/27</font></td></tr><tr bgcolor="#f4f4ff"><td align="center"><font size="2">188</font></td><td><b><font size="2"><a href="/movies/?id=housefull2.htm">Housefull 2</a></font></b></td><td><font size="2"><a href="/studio/chart/?studio=eros.htm">Eros</a></font></td><td align="right"><font size="2"><b>$1,791,780</b></font></td><td align="right"><font size="2">121</font></td><td align="right"><font size="2">$847,132</font></td><td align="right"><font size="2">121</font></td><td align="right"><font size="2"><a href="/schedule/?view=bydate&release=theatrical&date=2012-04-06&p=.htm">4/6</a></font></td><td align="right"><font size="2">5/17</font></td></tr><tr bgcolor="#ffffff"><td align="center"><font size="2">189</font></td><td><b><font size="2"><a href="/movies/?id=2012oscarshorts.htm">2012 Oscar Nominated Short Films</a></font></b></td><td><font size="2"><a href="/studio/chart/?studio=shortsinternational.htm">Shrts.</a></font></td><td align="right"><font size="2"><b>$1,702,415</b></font></td><td align="right"><font size="2">146</font></td><td align="right"><font size="2">$412,304</font></td><td align="right"><font size="2">120</font></td><td align="right"><font size="2"><a href="/schedule/?view=bydate&release=theatrical&date=2012-02-10&p=.htm">2/10</a></font></td><td align="right"><font size="2">3/29</font></td></tr><tr bgcolor="#f4f4ff"><td align="center"><font size="2">190</font></td><td><b><font size="2"><a href="/movies/?id=yoursisterssister.htm">Your Sister\'s Sister</a></font></b></td><td><font size="2"><a href="/studio/chart/?studio=ifc.htm">IFC</a></font></td><td align="right"><font size="2"><b>$1,636,190</b></font></td><td align="right"><font size="2">101</font></td><td align="right"><font size="2">$109,221</font></td><td align="right"><font size="2">13</font></td><td align="right"><font size="2"><a href="/schedule/?view=bydate&release=theatrical&date=2012-06-15&p=.htm">6/15</a></font></td><td align="right"><font size="2">8/26</font></td></tr><tr bgcolor="#ffffff"><td align="center"><font size="2">191</font></td><td><b><font size="2"><a href="/movies/?id=singinintherain2012.htm">Singin\' In the Rain (2012 re-release)</a></font></b></td><td><font size="2"><a href="/studio/chart/?studio=warnerbros.htm">WB</a></font></td><td align="right"><font size="2"><b>$1,608,925</b></font></td><td align="right"><font size="2">561</font></td><td align="right"><font size="2">$587,211</font></td><td align="right"><font size="2">561</font></td><td align="right"><font size="2"><a href="/schedule/?view=bydate&release=theatrical&date=2012-07-12&p=.htm">7/12</a></font></td><td align="right"><font size="2">8/26</font></td></tr><tr bgcolor="#f4f4ff"><td align="center"><font size="2">192</font></td><td><b><font size="2"><a href="/movies/?id=farewellmyqueen.htm">Farewell My Queen</a></font></b></td><td><font size="2"><a href="/studio/chart/?studio=cohenmedia.htm">Cohen</a></font></td><td align="right"><font size="2"><b>$1,597,998</b></font></td><td align="right"><font size="2">64</font></td><td align="right"><font size="2">$72,100</font></td><td align="right"><font size="2">4</font></td><td align="right"><font size="2"><a href="/schedule/?view=bydate&release=theatrical&date=2012-07-13&p=.htm">7/13</a></font></td><td align="right"><font size="2">10/18</font></td></tr><tr bgcolor="#ffffff"><td align="center"><font size="2">193</font></td><td><b><font size="2"><a href="/movies/?id=alatequartet.htm">A Late Quartet</a></font></b></td><td><font size="2"><a href="/studio/chart/?studio=entertainmentone.htm">EOne</a></font></td><td align="right"><font size="2"><b>$1,562,546</b></font></td><td align="right"><font size="2">100</font></td><td align="right"><font size="2">$75,279</font></td><td align="right"><font size="2">9</font></td><td align="right"><font size="2"><a href="/schedule/?view=bydate&release=theatrical&date=2012-11-02&p=.htm">11/2</a></font></td><td align="right"><font size="2">3/14</font></td></tr><tr bgcolor="#f4f4ff"><td align="center"><font size="2">194</font></td><td><b><font size="2"><a href="/movies/?id=aroyalaffair.htm">A Royal Affair</a></font></b></td><td><font size="2"><a href="/studio/chart/?studio=magnolia.htm">Magn.</a></font></td><td align="right"><font size="2"><b>$1,546,761</b></font></td><td align="right"><font size="2">56</font></td><td align="right"><font size="2">$38,212</font></td><td align="right"><font size="2">7</font></td><td align="right"><font size="2"><a href="/schedule/?view=bydate&release=theatrical&date=2012-11-09&p=.htm">11/9</a></font></td><td align="right"><font size="2">5/2</font></td></tr><tr bgcolor="#ffffff"><td align="center"><font size="2">195</font></td><td><b><font size="2"><a href="/movies/?id=darkknight2012.htm">The Dark Knight (2012 re-release)</a></font></b></td><td><font size="2"><a href="/studio/chart/?studio=warnerbros.htm">WB</a></font></td><td align="right"><font size="2"><b>$1,513,086</b></font></td><td align="right"><font size="2">N/A</font></td><td align="right"><font size="2">N/A</font></td><td align="right"><font size="2">N/A</font></td><td align="right"><font size="2"><a href="/schedule/?view=bydate&release=theatrical&date=2012-07-19&p=.htm">7/19</a></font></td><td align="right"><font size="2">7/19</font></td></tr><tr bgcolor="#f4f4ff"><td align="center"><font size="2">196</font></td><td><b><font size="2"><a href="/movies/?id=batman2012.htm">Batman Begins (2012 re-release)</a></font></b></td><td><font size="2"><a href="/studio/chart/?studio=warnerbros.htm">WB</a></font></td><td align="right"><font size="2"><b>$1,508,658</b></font></td><td align="right"><font size="2">N/A</font></td><td align="right"><font size="2">N/A</font></td><td align="right"><font size="2">N/A</font></td><td align="right"><font size="2"><a href="/schedule/?view=bydate&release=theatrical&date=2012-07-19&p=.htm">7/19</a></font></td><td align="right"><font size="2">7/19</font></td></tr><tr bgcolor="#ffffff"><td align="center"><font size="2">197</font></td><td><b><font size="2"><a href="/movies/?id=kidwithabike.htm">Kid With a Bike</a></font></b></td><td><font size="2"><a href="/studio/chart/?studio=ifc.htm">IFC</a></font></td><td align="right"><font size="2"><b>$1,470,000</b></font></td><td align="right"><font size="2">86</font></td><td align="right"><font size="2">$45,933</font></td><td align="right"><font size="2">3</font></td><td align="right"><font size="2"><a href="/schedule/?view=bydate&release=theatrical&date=2012-03-16&p=.htm">3/16</a></font></td><td align="right"><font size="2">6/14</font></td></tr><tr bgcolor="#f4f4ff"><td align="center"><font size="2">198</font></td><td><b><font size="2"><a href="/movies/?id=marley.htm">Marley</a></font></b></td><td><font size="2"><a href="/studio/chart/?studio=magnolia.htm">Magn.</a></font></td><td align="right"><font size="2"><b>$1,413,480</b></font></td><td align="right"><font size="2">73</font></td><td align="right"><font size="2">$262,004</font></td><td align="right"><font size="2">42</font></td><td align="right"><font size="2"><a href="/schedule/?view=bydate&release=theatrical&date=2012-04-20&p=.htm">4/20</a></font></td><td align="right"><font size="2">8/16</font></td></tr><tr bgcolor="#ffffff"><td align="center"><font size="2">199</font></td><td><b><font size="2"><a href="/movies/?id=chasingice.htm">Chasing Ice</a></font></b></td><td><font size="2"><a href="/studio/chart/?studio=submarinedeluxe.htm">SD</a></font></td><td align="right"><font size="2"><b>$1,328,467</b></font></td><td align="right"><font size="2">53</font></td><td align="right"><font size="2">N/A</font></td><td align="right"><font size="2">N/A</font></td><td align="right"><font size="2"><a href="/schedule/?view=bydate&release=theatrical&date=2012-11-09&p=.htm">11/9</a></font></td><td align="right"><font size="2">5/2</font></td></tr><tr bgcolor="#f4f4ff"><td align="center"><font size="2">200</font></td><td><b><font size="2"><a href="/movies/?id=airracers.htm">Air Racers 3D</a></font></b></td><td><font size="2"><a href="/studio/chart/?studio=3dentertainment.htm">3D</a></font></td><td align="right"><font size="2"><b>$1,309,987</b></font></td><td align="right"><font size="2">10</font></td><td align="right"><font size="2">N/A</font></td><td align="right"><font size="2">N/A</font></td><td align="right"><font size="2"><a href="/schedule/?view=bydate&release=theatrical&date=2012-04-06&p=.htm">4/6</a></font></td><td align="right"><font size="2">9/9</font></td></tr><tr bgcolor="#dcdcdc"><td colspan="9" align="center"><font size="2"><b>Summary of 665 Movies on Chart:</b></font></td></tr><tr bgcolor="#f4f4ff"><td align="right" colspan="3"><font size="2"><b>Totals:</b></td><td align="right"><font size="2">$10,959,243,666</font></td><td align="center"><font size="2">-</font></td><td align="center"><font size="2">-</font></td><td align="center"><font size="2">-</font></td><td align="center"><font size="2">-</font></td><td align="center"><font size="2">-</font></td></tr><tr bgcolor="#ffffff"><td align="right" colspan="3"><font size="2"><b>Averages:</b></td><td align="right"><font size="2">$16,480,066</font></td><td align="right"><font size="2">-</font></td><td align="right"><font size="2">-</font></td><td align="right"><font size="2">-</font></td><td align="center"><font size="2">-</font></td><td align="center"><font size="2">-</font></td></tr><tr bgcolor="#dcdcdc"><td colspan="9"><img src="/images/space.gif" width="1" height="1"></td></tr></table></td></tr><tr><td valign="bottom"><font face="Verdana" size="1"><b><a href="/yearly/chart/?yr=2011&view=releasedate&view2=domestic&sort=gross&order=DESC&&p=.htm">&lt; Previous Year</a></b></font></td><td align="center"><table border="0" cellspacing="0" cellpadding="0">\n\t\t\t\t\t<form method="POST" action="yearly.asof.php" name="asofjump">\n\t\t\t\t\t<tr><td><font face="Verdana" size="1"><br>Data as of:\n\t\t\t\t\t<select size="1" name="asof" style="font-size: 8pt">\n\t\t\t\t\t<option selected value="today">Today</option>\n\t\t\t\t\t<option  value="sametime">Today in 2012</option>\n\t\t\t\t\t<option value="2012-01-31">Jan. 31, 2012</option>\n\t\t\t\t\t<option value="2012-02-29">Feb. 29, 2012</option>\n\t\t\t\t\t<option value="2012-03-31">Mar. 31, 2012</option>\n\t\t\t\t\t<option value="2012-04-30">Apr. 30, 2012</option>\n\t\t\t\t\t<option value="2012-05-31">May 31, 2012</option>\n\t\t\t\t\t<option value="2012-06-30">Jun. 30, 2012</option>\n\t\t\t\t\t<option value="2012-07-31">Jul. 31, 2012</option>\n\t\t\t\t\t<option value="2012-08-31">Aug. 31, 2012</option>\n\t\t\t\t\t<option value="2012-09-30">Sep. 30, 2012</option>\n\t\t\t\t\t<option value="2012-10-31">Oct. 31, 2012</option>\n\t\t\t\t\t<option value="2012-11-30">Nov. 30, 2012</option>\n\t\t\t\t\t<option value="2012-12-31">Dec. 31, 2012</option>\n\t\t\t\t\t<option value="specify">Specify Date</option>\n\t\t\t\t\t<option value="about">About this feature</option>\n\t\t\t\t\t</select> or (<select size="1" name="asof_mo" style="font-size: 8pt">\n\t\t\t\t\t<option selected value="">Month</option>\n\t\t\t\t\t\n\t\t\t\t\t<option value="01">Jan.</option>\n\t\t\t\t\t<option value="02">Feb.</option>\n\t\t\t\t\t<option value="03">Mar.</option>\n\t\t\t\t\t<option value="04">Apr.</option>\n\t\t\t\t\t<option value="05">May</option>\n\t\t\t\t\t<option value="06">Jun.</option>\n\t\t\t\t\t<option value="07">Jul.</option>\n\t\t\t\t\t<option value="08">Aug.</option>\n\t\t\t\t\t<option value="09">Sep.</option>\n\t\t\t\t\t<option value="10">Oct.</option>\n\t\t\t\t\t<option value="11">Nov.</option>\n\t\t\t\t\t<option value="12">Dec.</option>\n\t\t\t\t\t</select> / <select size="1" name="asof_day" style="font-size: 8pt">\n\t\t\t\t\t<option selected value="">Day</option>\n\t\t\t\t\t<option value="01">1</option>\n\t\t\t\t\t<option value="02">2</option>\n\t\t\t\t\t<option value="03">3</option>\n\t\t\t\t\t<option value="04">4</option>\n\t\t\t\t\t<option value="05">5</option>\n\t\t\t\t\t<option value="06">6</option>\n\t\t\t\t\t<option value="07">7</option>\n\t\t\t\t\t<option value="08">8</option>\n\t\t\t\t\t<option value="09">9</option>\n\t\t\t\t\t<option value="10">10</option>\n\t\t\t\t\t<option value="11">11</option>\n\t\t\t\t\t<option value="12">12</option>\n\t\t\t\t\t<option value="13">13</option>\n\t\t\t\t\t<option value="14">14</option>\n\t\t\t\t\t<option value="15">15</option>\n\t\t\t\t\t<option value="16">16</option>\n\t\t\t\t\t<option value="17">17</option>\n\t\t\t\t\t<option value="18">18</option>\n\t\t\t\t\t<option value="19">19</option>\n\t\t\t\t\t<option value="20">20</option>\n\t\t\t\t\t<option value="21">21</option>\n\t\t\t\t\t<option value="22">22</option>\n\t\t\t\t\t<option value="23">23</option>\n\t\t\t\t\t<option value="24">24</option>\n\t\t\t\t\t<option value="25">25</option>\n\t\t\t\t\t<option value="26">26</option>\n\t\t\t\t\t<option value="27">27</option>\n\t\t\t\t\t<option value="28">28</option>\n\t\t\t\t\t<option value="29">29</option>\n\t\t\t\t\t<option value="30">30</option>\n\t\t\t\t\t<option value="31">31</option>\n\t\t\t\t\t</select> / <select size="1" name="asof_yr" style="font-size: 8pt">\n\t\t\t\t\t\t<option selected>2012</option>\n\t\t\t\t\t\t<option>2013</option>\n\t\t\t\t\t\t</select>) <input type="submit" value="Go" name="go" style="font-size: 8pt; height: 16">\n\t\t\t\t\t</font></td></tr>\n\t\t\t\t\t<input type="hidden" name="jumpstuff" value="view=releasedate&view2=domestic&yr=2012&sort=gross&order=DESC&p=.htm">\n\t\t\t\t\t<input type="hidden" name="curasof" value="today">\n\t\t\t\t\t<input type="hidden" name="yr" value="2012">\n\t\t\t\t\t</form>\n\t\t\t\t\t</table>\n\t\t\t\t</font></td><td valign="bottom" align="right"><font face="Verdana" size="1"><b><a href="/yearly/chart/?yr=2013&view=releasedate&view2=domestic&sort=gross&order=DESC&&p=.htm">Next Year &gt;</a></b></font></td></tr></table><center><font face="Verdana" size="4"><b><a href="/yearly/chart/?page=1&view=releasedate&view2=domestic&yr=2012&p=.htm">#1&#150;100</a> - <font face="Verdana" size="5">#101&#150;200</font> - <a href="/yearly/chart/?page=3&view=releasedate&view2=domestic&yr=2012&p=.htm">#201&#150;300</a> - <a href="/yearly/chart/?page=4&view=releasedate&view2=domestic&yr=2012&p=.htm">#301&#150;400</a> - <a href="/yearly/chart/?page=5&view=releasedate&view2=domestic&yr=2012&p=.htm">#401&#150;500</a> - <a href="/yearly/chart/?page=6&view=releasedate&view2=domestic&yr=2012&p=.htm">#501&#150;600</a> - <a href="/yearly/chart/?page=7&view=releasedate&view2=domestic&yr=2012&p=.htm">#601&#150;665</a></b></font></center><br><font face="Verdana" size="2">Note: <b>RELEASE DATE</b> shows all movies that opened in a given time period and their total grosses. <b>WIDE RELEASES</b> shows only movies released in 600 or more theaters and their total grosses, grouped by wide release date. <b>LIMITED RELEASES</b> shows only movies released in less than 600 theaters and their total grosses, grouped by release date. <b>CALENDAR GROSSES</b> shows all movies playing during the indicated time period, both new and holdover, and their grosses (or estimated grosses) during that time period. Movies released outside the indicated time period are shown in italics. <b><a href="/about/boxoffice.htm">Click here for a full explanation of the various box office sections</a></b></font><br><br>\n<P ALIGN="CENTER"><A HREF="/yearly/"><FONT FACE="Verdana" SIZE=2><b>back to<br>Yearly Index Page</b></FONT></A></P>\n<br>\n</td><td valign="top" align="center" width="160"><br><br><br><br><br><br><!-- begin ad tag (tile=2) -->\r\n<script type="text/javascript">\r\n//<![CDATA[\r\nord=242234425;\r\ndocument.write(\'<iframe src="http://ad.doubleclick.net/N4215/adi/imdb2.bom.other/;p=rh;tile=2;sz=160x600,120x600,115x600;oe=ISO-8859-1;ord=\' + ord + \'?" width="160" height="600" marginwidth="0" marginheight="0" frameborder="0" scrolling="no">\');\r\n\r\nif (navigator.userAgent.indexOf("Gecko")==-1)\r\n{\r\ndocument.write(\'<script type="text/javascript" src="http://ad.doubleclick.net/N4215/adj/imdb2.bom.other/;p=rh;tile=2;sz=160x600,115x600;abr=!ie;oe=ISO-8859-1;ord=\' + ord + \'?"><\\/script>\');\r\n}\r\ndocument.write(\'</iframe>\');\r\n//]]>\r\n</script>\r\n<noscript><a href="http://ad.doubleclick.net/N4215/jump/imdb2.bom.other/;p=rh;tile=2;sz=160x600;oe=ISO-8859-1;ord=242234425?" target="_blank" ><img src="http://ad.doubleclick.net/N4215/ad/imdb2.bom.other/;p=rh;tile=2;sz=160x600,115x600;oe=ISO-8859-1;ord=242234425?" border="0" alt="" /></a></noscript>\r\n<!-- end ad tag --></td></tr></table><table border="0" width="100%" cellspacing="0" cellpadding="3">\n\t<tr>\n\t\t<td bgcolor="#FFFFFF" align="center"><b><font face="Verdana" size="1"><a href="/yearly/chart/?view=releasedate&view2=domestic&page=2&yr=2012&p=.htm">ALL RELEASES</a></font></b></td>\n\t\t<td bgcolor="#DCDCDC" align="center"><b><font face="Verdana" size="1"><a href="/yearly/chart/?view=widedate&view2=domestic&page=2&yr=2012&p=.htm">WIDE RELEASES</font></b></td>\n\t\t<td bgcolor="#DCDCDC" align="center"><b><font face="Verdana" size="1"><a href="/yearly/chart/?view=limited&view2=domestic&page=2&yr=2012&p=.htm">LIMITED RELEASES</font></b></td>\n\t\t\t\t<td bgcolor="#DCDCDC" align="center"><b><font face="Verdana" size="1"><a href="/yearly/chart/?view=calendargross&view2=domestic&page=2&yr=2012&p=.htm">CALENDAR GROSSES</font></b></td>\n\t\t\t</tr>\n</table>\n<table border="0" cellspacing="0" cellpadding="0" width="100%">\n  <tr><td bgcolor="#8b0000" height="1" colspan="2"><img src="/images/space.gif" border="0" width="1" height="5"></td></tr>\n</table>\n\n</td></tr></table>\n\n\t</div>\n\t</div>\n\t<div id="hp_footer">\n\t\t<div style="padding-bottom: 20px;">\n\n\t\t\t<div style="margin: 0px 121px; vertical-align: top;">\n\t\t\t\t<div id="footer_links">\n\t\t\t\t\t<ul class="footer_link_list">\n\t\t\t\t\t\t<li><strong>Latest Updates</strong></li>\n\t\t\t\t\t\t<li><a href="/news/?ref=ft">Movie News</a>\n\t\t\t\t\t\t<li><a href="/daily/chart/?ref=ft">Daily Chart</a></li>\n\t\t\t\t\t\t<li><a href="/weekend/chart/?ref=ft">Weekend Chart</a></li>\n\t\t\t\t\t\t<li><a href="/alltime/?ref=ft">All Time Charts</a></li>\n\t\t\t\t\t\t<li><a href="/intl/?ref=ft">International Charts</a></li>\n\t\t\t\t\t</ul>\n\t\t\t\t\t<!--\n\t\t\t\t\t<ul class="footer_link_list">\n\t\t\t\t\t\t<li><strong>Popular Movies</strong></li>\n\t\t\t\t\t\t\t\t\t\t\t</ul>\n\t\t\t\t\t-->\n\t\t\t\t\t<ul class="footer_link_list">\n\t\t\t\t\t\t<li><strong>Indices</strong></li>\n\t\t\t\t\t\t<li><a href="/movies/?ref=ft">Movies A-Z</a></li>\n\t\t\t\t\t\t<li><a href="/people/?ref=ft">People</a></li>\n\t\t\t\t\t\t<li><a href="/genres/?ref=ft">Genres</a></li>\n\t\t\t\t\t\t<li><a href="/franchises/?ref=ft">Franchises</a></li>\n\t\t\t\t\t\t<li><a href="/showdowns/?ref=ft">Showdowns</a></li>\n\t\t\t\t\t</ul>\n\t\t\t\t\t<ul class="footer_link_list">\n\t\t\t\t\t\t<li><strong>Other</strong></li>\n\t\t\t\t\t\t<li><a href="/about/?ref=ft">About This Site</a></li>\n\t\t\t\t\t\t<li><a href="/about/advertise.htm?ref=ft">Advertising</a></li>\n\t\t\t\t\t\t<li><a href="/users/?ref=ft">My Account</a></li>\n\t\t\t\t\t\t<li><a href="/about/rss.htm?ref=ft">RSS Feeds</a></li>\n\t\t\t\t\t</ul>\n\t\t\t\t</div>\n\t\t\t\t<div id="copyright">\n\t\t\t\t\t<a href="/?ref=ft"><img src="/img/misc/bom_logo1.png" width="245" height="56" alt="Box Office Mojo"></a><br>\n\t\t\t\t\t<p>An <a href="http://imdb.com/"><img src="/img/misc/IMDbSm.png" width="34" height="16" alt="IMDb" valign="middle"></a> company<br><br></p>\n\t\t\t\t\t<p>&copy; <a href="http://imdb.com/">IMDb.com</a>, Inc. or its affiliates. All rights reserved. Box Office Mojo and IMDb are trademarks or registered trademarks of IMDb.com, Inc. or its affiliates. <a href="/about/termsofuse.htm">Terms of Use</a> and <a href="/about/privacy.htm">Privacy Policy</a> under which this service is provided to you.</p>\n\t\t\t\t\t</div>\t\t\t\n\t\t\t\t</div>\n\t\t\t\t<div style="clear:both;">\n\t\t\t\t<div>\n\t\t\t\t <!-- begin ad tag (tile=6) -->\r\n<script type="text/javascript">\r\n//<![CDATA[\r\nord=242234425;\r\ndocument.write(\'<iframe src="http://ad.doubleclick.net/N4215/adi/imdb2.bom.other/;p=b;tile=3;sz=728x90;oe=ISO-8859-1;ord=\' + ord + \'?" width="728" height="90" marginwidth="0" marginheight="0" frameborder="0" scrolling="no">\');\r\n\r\nif (navigator.userAgent.indexOf("Gecko")==-1)\r\n{\r\ndocument.write(\'<script type="text/javascript" src="http://ad.doubleclick.net/N4215/adj/imdb2.bom.other/;p=b;tile=3;sz=728x90;abr=!ie;oe=ISO-8859-1;ord=\' + ord + \'?"><\\/script>\');\r\n}\r\ndocument.write(\'<\\/iframe>\');\r\n//]]>\r\n</script>\r\n<noscript><a href="http://ad.doubleclick.net/N4215/jump/imdb2.bom.other/;p=b;tile=3;sz=728x90;oe=ISO-8859-1;ord=242234425?" target="_blank" ><img src="http://ad.doubleclick.net/N4215/ad/imdb2.bom.other/;p=b;tile=3;sz=728x90;oe=ISO-8859-1;ord=242234425?" border="0" alt="" ></a></noscript>\r\n<!-- end ad tag --></div>\n\n\t\t\t\t</div>\n\t</div>\n</div>\n\n\n\n\n\n<!-- Page generated in 0.08 seconds | . -->\n<script>\n  var _comscore = _comscore || [];\n  _comscore.push({ c1: "2", c2: "6034961" });\n  (function() {\n    var s = document.createElement("script"), el = document.getElementsByTagName("script")[0]; s.async = true;\n    s.src = (document.location.protocol == "https:" ? "https://sb" : "http://b") + ".scorecardresearch.com/beacon.js";\n  el.parentNode.insertBefore(s, el);\n  })();\n</script>\n<noscript>\n    <img src="http://b.scorecardresearch.com/p?c1=2&c2=6034961&cv=2.0&cj=1" />\n</noscript>\n\n</body>\n</html>\n'
p30
sS'encoding'
p31
S'ISO-8859-1'
p32
sS'url'
p33
Vhttp://www.boxofficemojo.com/yearly/chart/?page=2&view=releasedate&view2=domestic&yr=2012&p=.htm
p34
sS'status_code'
p35
I200
sS'request'
p36
g0
(crequests.models
PreparedRequest
p37
g2
Ntp38
Rp39
(dp40
S'body'
p41
Nsg33
S'http://www.boxofficemojo.com/yearly/chart/?page=2&view=releasedate&view2=domestic&yr=2012&p=.htm'
p42
sS'hooks'
p43
(dp44
S'response'
p45
(lp46
ssS'headers'
p47
g0
(crequests.structures
CaseInsensitiveDict
p48
g2
Ntp49
Rp50
(dp51
S'_store'
p52
(dp53
S'connection'
p54
(S'Connection'
p55
S'keep-alive'
p56
tp57
sS'accept-encoding'
p58
(S'Accept-Encoding'
p59
S'gzip, deflate'
p60
tp61
sS'accept'
p62
(S'Accept'
p63
S'*/*'
p64
tp65
sS'user-agent'
p66
(S'User-Agent'
p67
S'python-requests/2.7.0 CPython/2.7.10 Darwin/14.5.0'
p68
tp69
ssbsg27
g0
(g7
g2
Ntp70
Rp71
(dp72
g11
I1444069024
sg12
(icookielib
DefaultCookiePolicy
p73
(dp74
g15
I01
sg16
I0
sg17
Nsg18
Nsg19
I00
sg20
I00
sg11
I1444069024
sg21
I00
sg22
I00
sg23
I00
sg24
I00
sg25
(tsg26
I01
sbsg27
(dp75
sbsS'method'
p76
S'GET'
p77
sbsS'elapsed'
p78
cdatetime
timedelta
p79
(I0
I0
I128400
tp80
Rp81
sg47
g0
(g48
g2
Ntp82
Rp83
(dp84
g52
(dp85
S'content-length'
p86
(S'content-length'
p87
S'18571'
p88
tp89
sS'x-xss-protection'
p90
(S'x-xss-protection'
p91
S'1; mode=block'
p92
tp93
sS'x-content-type-options'
p94
(S'x-content-type-options'
p95
S'nosniff'
p96
tp97
sS'content-encoding'
p98
(S'content-encoding'
p99
S'gzip'
p100
tp101
sS'expires'
p102
(S'expires'
p103
S'Thu, 19 Nov 1981 08:52:00 GMT'
p104
tp105
sS'server'
p106
(S'server'
p107
S'Server'
p108
tp109
sS'connection'
p110
(S'connection'
p111
S'keep-alive'
p112
tp113
sS'x-permitted-cross-domain-policies'
p114
(S'x-permitted-cross-domain-policies'
p115
S'master-only'
p116
tp117
sS'pragma'
p118
(S'pragma'
p119
S'no-cache'
p120
tp121
sS'cache-control'
p122
(S'cache-control'
p123
S'no-store, no-cache, must-revalidate, post-check=0, pre-check=0'
p124
tp125
sS'date'
p126
(S'date'
p127
S'Mon, 05 Oct 2015 18:20:02 GMT'
p128
tp129
sS'x-frame-options'
p130
(S'x-frame-options'
p131
S'SAMEORIGIN'
p132
tp133
sS'content-type'
p134
(S'content-type'
p135
S'text/html'
p136
tp137
ssbsS'reason'
p138
S'OK'
p139
sS'history'
p140
(lp141
sb.