ccopy_reg
_reconstructor
p0
(crequests.models
Response
p1
c__builtin__
object
p2
Ntp3
Rp4
(dp5
S'cookies'
p6
g0
(crequests.cookies
RequestsCookieJar
p7
g2
Ntp8
Rp9
(dp10
S'_now'
p11
I1444069024
sS'_policy'
p12
(icookielib
DefaultCookiePolicy
p13
(dp14
S'strict_rfc2965_unverifiable'
p15
I01
sS'strict_ns_domain'
p16
I0
sS'_allowed_domains'
p17
NsS'rfc2109_as_netscape'
p18
NsS'rfc2965'
p19
I00
sS'strict_domain'
p20
I00
sg11
I1444069024
sS'strict_ns_set_path'
p21
I00
sS'strict_ns_unverifiable'
p22
I00
sS'strict_ns_set_initial_dollar'
p23
I00
sS'hide_cookie2'
p24
I00
sS'_blocked_domains'
p25
(tsS'netscape'
p26
I01
sbsS'_cookies'
p27
(dp28
sbsS'_content'
p29
S'<!DOCTYPE html PUBLIC "-//W3C//DTD HTML 4.01 Transitional//EN" "http://www.w3.org/TR/html4/loose.dtd">\n<html lang="en">\n<HEAD>\n<TITLE>2013 Yearly Box Office Results - Box Office Mojo</TITLE>\n<META NAME="keywords" CONTENT="2013, year, yearly, box, office, result, list, movie, movies, listing, listings, top movies, all time, film">\n<META NAME="description" CONTENT="Yearly box office results for 2013.">\n<link rel="stylesheet" href="/css/mojo.css?1" type="text/css" media="screen" title="no title" charset="utf-8">\n<link rel="stylesheet" href="/css/mojo.css?1" type="text/css" media="print" title="no title" charset="utf-8"></head>\n<body>\n\t<iframe id="sis_pixel_sitewide" width="1" height="1" frameborder="0" marginwidth="0" marginheight="0" style="display: none;"></iframe>\n<script>\n    setTimeout(function(){\n        try{\n            //sis3.0 pixel\n            var cacheBust = Math.random() * 10000000000000000,\n                url_sis3 = \'http://s.amazon-adsystem.com/iu3?\',\n                params_sis3 = [\n                    "d=boxofficemojo.com",\n                    "cb=" + cacheBust\n                ];\n\n            (document.getElementById(\'sis_pixel_sitewide\')).src = url_sis3 + params_sis3.join(\'&\');\n        }catch(e){\n            if (window.ueLogError) { \n                window.ueLogError(e);\n            }\n        }\n    }, 5);\n</script>\n\n<div id="container">\n<div>\n<!-- GOOGLE ANALYTICS CODE STARTS -->\n<script type="text/javascript">\n\n  var _gaq = _gaq || [];\n  _gaq.push([\'_setAccount\', \'UA-2831726-1\']);\n  _gaq.push([\'_trackPageview\']);\n\n  (function() {\n    var ga = document.createElement(\'script\'); ga.type = \'text/javascript\'; ga.async = true;\n    ga.src = (\'https:\' == document.location.protocol ? \'https://ssl\' : \'http://www\') + \'.google-analytics.com/ga.js\';\n    (document.getElementsByTagName(\'head\')[0] || document.getElementsByTagName(\'body\')[0]).appendChild(ga);\n  })();\n\n</script>\n<!-- GOOGLE ANALYTICS CODE ENDS -->\n\t<div id="hp_banner">\n\t<div id="top_links">\n\t\t<div style="float: left"><a href="/daily/chart/">Daily Box Office (Sun.)</a> | <a href="/weekend/chart/">Weekend Box Office (Oct. 2&ndash;4)</a> | <a href="/movies/?id=scott2016.htm">#1 Movie: \'The Martian\'</a> | <a href="http://www.imdb.com/showtimes/?ref_=mojo">Showtimes</a></div>\n\t\t<div style="float: right">Updated 10/4/2015 7:11 P.M. Pacific Time</div>\n\t\t<div style="clear:both; height: 0px"></div>\n\t</div>\n</div>\n\t\t\n<div id="header">\n\t<div id="leaderboard"><!-- begin ad tag (tile=1) -->\r\n<script type="text/javascript">\r\n//<![CDATA[\r\nord=1057291112;\r\ndocument.write(\'<iframe src="http://ad.doubleclick.net/N4215/adi/imdb2.bom.other/;p=t;tile=1;sz=728x90;oe=ISO-8859-1;ord=\' + ord + \'?" width="728" height="90" marginwidth="0" marginheight="0" frameborder="0" scrolling="no">\');\r\n\r\nif (navigator.userAgent.indexOf("Gecko")==-1)\r\n{\r\ndocument.write(\'<script type="text/javascript" src="http://ad.doubleclick.net/N4215/adj/imdb2.bom.other/;p=t;tile=1;sz=728x90;abr=!ie;oe=ISO-8859-1;ord=\' + ord + \'?"><\\/script>\');\r\n}\r\ndocument.write(\'<\\/iframe>\');\r\n//]]>\r\n</script>\r\n<noscript><a href="http://ad.doubleclick.net/N4215/jump/imdb2.bom.other/;p=t;tile=1;sz=728x90;oe=ISO-8859-1;ord=1057291112?" target="_blank" ><img src="http://ad.doubleclick.net/N4215/ad/imdb2.bom.other/;p=t;tile=1;sz=728x90;oe=ISO-8859-1;ord=1057291112?" border="0" alt="" ></a></noscript>\r\n<!-- end ad tag --></div>\t<div id="hp_logo"><a href="/"><img src="/img/misc/bom_logo1.png" width="245" height="56" alt="Box Office Mojo"></a></div>\n\t<div style="clear:both; height: 0px"></div>\n</div>\n\n\n</div>\n\n\n<div id="main">\n<!-- COLUMN 1 of 4 -->\n\t<div id="leftnav">\n<!-- google_ad_section_start(weight=ignore) -->\n<!-- <table id="navleft" cellspacing="0" cellpadding="2" border="0"> -->\n<ul id="leftnav">\n<li class="nl_section">Search Site</li>\n<li class="nl_link" style="padding-left:0px">\n\t<form name="searchbox" method="POST" action="/search/q.php">\n\t<input name="q"  type="text" style="font-size: 9 pt; font-weight: bold; width: 90px;"><br>\n\t<input type="submit" value="Search..." ></form> \n</li>\n<li class=\'nl_section\'>Social</li>\n<li class="nl_link"><a href="http://facebook.com/boxofficemojo" style="vertical-align:middle;"><img src="/images/FaceBook_16x16.png" border="0" alt="Facebook Logo">Facebook</a></li>\n<li class="nl_link"><a href="http://twitter.com/boxofficemojo" style="vertical-align:middle;"><img src="/images/Twitter_16x16.png" border="0" alt="Twitter Logo">Twitter</a></li>\n\n<li class=\'nl_section\'>Features</li>\n<li class=\'nl_link\'><a href="/news/">News</a></li>\n<li class=\'nl_link\'><a href="/schedule/">Release Sched.</a></li>\n<li class=\'nl_link\'><a href="http://www.imdb.com/showtimes?ref_=mojo">Showtimes<br/><span style="margin-left:7px;color: #999999; font-size: 9px;">at <img src="/images/mojo_imdb_sm.png"/></span></a></li>\n<li class=\'nl_section\'>Box Office</li>\n<li class=\'nl_link\'><a href="/daily/">Daily</a></li>\n<li class=\'nl_link\'><a href="/weekend/">Weekend</a></li>\n<li class=\'nl_link\'><a href="/weekly/">Weekly</a></li>\n<li class=\'nl_link\'><a href="/monthly/">Monthly</a></li>\n<li class=\'nl_link\'><a href="/quarterly/">Quarterly</a></li>\n<li class=\'nl_link\'><a href="/seasonal/">Seasonal</a></li>\n<li class=\'nl_link_current\'><a href="/yearly/">Yearly</a></li>\n<li class=\'nl_link\'><a href="/alltime/">All Time</a></li>\n<li class=\'nl_link\'><a href="/chartwatch/">Chart Watch</a></li>\n<li class=\'nl_link\'><a href="/intl/">International</a></li>\n<li class=\'nl_section\'>Indices</li>\n<li class=\'nl_link\'><a href="/movies/">Movies A-Z</a></li>\n<li class=\'nl_link\'><a href="/studio/">Studios</a></li>\n<li class=\'nl_link\'><a href="/people/">People</a></li>\n<li class=\'nl_link\'><a href="/genres/">Genres</a></li>\n<li class=\'nl_link\'><a href="/franchises/">Franchises</a></li>\n<li class=\'nl_link\'><a href="/showdowns/">Showdowns</a></li>\n<li class=\'nl_link\'><a href="/oscar/">Oscar</a></li>\n<li class=\'nl_link\'><a href="/counts/">Theater Counts</a></li>\n</ul>\n</div>\n\t<div id="body">\n\t<div id="addthis"><table border="0" cellspacing="0" cellpadding="0">\r\n<tr>\r\n<form method="POST" action="/adjuster.php" name="adjuster">\r\n<input type="hidden" name="returnURL" value="/yearly/chart/?page=2&amp;view=releasedate&amp;view2=domestic&amp;yr=2013&amp;p=.htm">\r\n<td valign="center">\r\n  <font face="Verdana" size="2"><a href="/about/adjuster.htm"><b>Adjuster:</b></a></font>\r\n  <select size="1" name="ticketyr" style="font-family: Verdana; font-size: 10pt">\r\n  <option value="0" selected>Actuals</option>\r\n  <option value="1" >Est. Tckts</option>\r\n<script language="javascript">\r\n  for(i=2015; i>=1933; i--) {\r\n  \tdocument.write(\'<option value="\' + i + \'"\');\r\n\tif(i==\'0\') document.write(\' selected\');\r\n\tdocument.write(\'>\' + i );\r\n\tif(i==\'0\') document.write(\', $\' + \'0.00\');\r\n\tdocument.write(\'</option>\');\r\n  }\r\n</script>\r\n  <option value="1929" >1929</option>\r\n  <option value="1924" >1924</option>\r\n  <option value="1910" >1910</option>\r\n  </select><input type="submit" name="Go" value="Go" style="font-size: 10pt; height: 22">\r\n\r\n</td></form></tr></table>\r\n\r\n</div>\t\n\t<h2><a href="/yearly/">Yearly Box Office</a></h2>\n\n\t<table border="0" cellpadding="0" cellspacing="0" width="100%">\n\t\t<tr><td bgcolor="#8b0000" colspan="2"><img src="/images/space.gif" border="0" width="1" height="5"></td></tr>\n\t</table>\n\t\n<table border="0" width="100%" cellspacing="0" cellpadding="3">\n\t<tr>\n\t\t<td bgcolor="#FFFFFF" align="center"><b><font face="Verdana" size="1"><a href="/yearly/chart/?view=releasedate&view2=domestic&page=2&yr=2013&p=.htm">ALL RELEASES</a></font></b></td>\n\t\t<td bgcolor="#DCDCDC" align="center"><b><font face="Verdana" size="1"><a href="/yearly/chart/?view=widedate&view2=domestic&page=2&yr=2013&p=.htm">WIDE RELEASES</font></b></td>\n\t\t<td bgcolor="#DCDCDC" align="center"><b><font face="Verdana" size="1"><a href="/yearly/chart/?view=limited&view2=domestic&page=2&yr=2013&p=.htm">LIMITED RELEASES</font></b></td>\n\t\t\t\t<td bgcolor="#DCDCDC" align="center"><b><font face="Verdana" size="1"><a href="/yearly/chart/?view=calendargross&view2=domestic&page=2&yr=2013&p=.htm">CALENDAR GROSSES</font></b></td>\n\t\t\t</tr>\n</table>\n<table border="0" cellspacing="0" cellpadding="0" width="100%"><tr><td valign="top" align="center"><br>\n<h1>2013 DOMESTIC GROSSES</h1><p>Total Grosses of all Movies Released in 2013</h1></b></FONT></p>\n\n<center><font face="Verdana" size="4"><b><a href="/yearly/chart/?page=1&view=releasedate&view2=domestic&yr=2013&p=.htm">#1&#150;100</a> - <font face="Verdana" size="5">#101&#150;200</font> - <a href="/yearly/chart/?page=3&view=releasedate&view2=domestic&yr=2013&p=.htm">#201&#150;300</a> - <a href="/yearly/chart/?page=4&view=releasedate&view2=domestic&yr=2013&p=.htm">#301&#150;400</a> - <a href="/yearly/chart/?page=5&view=releasedate&view2=domestic&yr=2013&p=.htm">#401&#150;500</a> - <a href="/yearly/chart/?page=6&view=releasedate&view2=domestic&yr=2013&p=.htm">#501&#150;600</a> - <a href="/yearly/chart/?page=7&view=releasedate&view2=domestic&yr=2013&p=.htm">#601&#150;687</a></b></font></center><table border="0" cellspacing="0" cellpadding="0"><tr><td valign="bottom"><font face="Verdana" size="1"><b><a href="/yearly/chart/?yr=2012&view=releasedate&view2=domestic&sort=gross&order=DESC&&p=.htm">&lt; Previous Year</a></b></font></td><td align="center"><table border="0" cellspacing="0" cellpadding="0">\n\t\t\t\t\t<form method="POST" action="yearly.asof.php" name="asofjump">\n\t\t\t\t\t<tr><td><font face="Verdana" size="1"><br>Data as of:\n\t\t\t\t\t<select size="1" name="asof" style="font-size: 8pt">\n\t\t\t\t\t<option selected value="today">Today</option>\n\t\t\t\t\t<option  value="sametime">Today in 2013</option>\n\t\t\t\t\t<option value="2013-01-31">Jan. 31, 2013</option>\n\t\t\t\t\t<option value="2013-02-28">Feb. 28, 2013</option>\n\t\t\t\t\t<option value="2013-03-31">Mar. 31, 2013</option>\n\t\t\t\t\t<option value="2013-04-30">Apr. 30, 2013</option>\n\t\t\t\t\t<option value="2013-05-31">May 31, 2013</option>\n\t\t\t\t\t<option value="2013-06-30">Jun. 30, 2013</option>\n\t\t\t\t\t<option value="2013-07-31">Jul. 31, 2013</option>\n\t\t\t\t\t<option value="2013-08-31">Aug. 31, 2013</option>\n\t\t\t\t\t<option value="2013-09-30">Sep. 30, 2013</option>\n\t\t\t\t\t<option value="2013-10-31">Oct. 31, 2013</option>\n\t\t\t\t\t<option value="2013-11-30">Nov. 30, 2013</option>\n\t\t\t\t\t<option value="2013-12-31">Dec. 31, 2013</option>\n\t\t\t\t\t<option value="specify">Specify Date</option>\n\t\t\t\t\t<option value="about">About this feature</option>\n\t\t\t\t\t</select> or (<select size="1" name="asof_mo" style="font-size: 8pt">\n\t\t\t\t\t<option selected value="">Month</option>\n\t\t\t\t\t\n\t\t\t\t\t<option value="01">Jan.</option>\n\t\t\t\t\t<option value="02">Feb.</option>\n\t\t\t\t\t<option value="03">Mar.</option>\n\t\t\t\t\t<option value="04">Apr.</option>\n\t\t\t\t\t<option value="05">May</option>\n\t\t\t\t\t<option value="06">Jun.</option>\n\t\t\t\t\t<option value="07">Jul.</option>\n\t\t\t\t\t<option value="08">Aug.</option>\n\t\t\t\t\t<option value="09">Sep.</option>\n\t\t\t\t\t<option value="10">Oct.</option>\n\t\t\t\t\t<option value="11">Nov.</option>\n\t\t\t\t\t<option value="12">Dec.</option>\n\t\t\t\t\t</select> / <select size="1" name="asof_day" style="font-size: 8pt">\n\t\t\t\t\t<option selected value="">Day</option>\n\t\t\t\t\t<option value="01">1</option>\n\t\t\t\t\t<option value="02">2</option>\n\t\t\t\t\t<option value="03">3</option>\n\t\t\t\t\t<option value="04">4</option>\n\t\t\t\t\t<option value="05">5</option>\n\t\t\t\t\t<option value="06">6</option>\n\t\t\t\t\t<option value="07">7</option>\n\t\t\t\t\t<option value="08">8</option>\n\t\t\t\t\t<option value="09">9</option>\n\t\t\t\t\t<option value="10">10</option>\n\t\t\t\t\t<option value="11">11</option>\n\t\t\t\t\t<option value="12">12</option>\n\t\t\t\t\t<option value="13">13</option>\n\t\t\t\t\t<option value="14">14</option>\n\t\t\t\t\t<option value="15">15</option>\n\t\t\t\t\t<option value="16">16</option>\n\t\t\t\t\t<option value="17">17</option>\n\t\t\t\t\t<option value="18">18</option>\n\t\t\t\t\t<option value="19">19</option>\n\t\t\t\t\t<option value="20">20</option>\n\t\t\t\t\t<option value="21">21</option>\n\t\t\t\t\t<option value="22">22</option>\n\t\t\t\t\t<option value="23">23</option>\n\t\t\t\t\t<option value="24">24</option>\n\t\t\t\t\t<option value="25">25</option>\n\t\t\t\t\t<option value="26">26</option>\n\t\t\t\t\t<option value="27">27</option>\n\t\t\t\t\t<option value="28">28</option>\n\t\t\t\t\t<option value="29">29</option>\n\t\t\t\t\t<option value="30">30</option>\n\t\t\t\t\t<option value="31">31</option>\n\t\t\t\t\t</select> / <select size="1" name="asof_yr" style="font-size: 8pt">\n\t\t\t\t\t\t<option selected>2013</option>\n\t\t\t\t\t\t<option>2014</option>\n\t\t\t\t\t\t</select>) <input type="submit" value="Go" name="go" style="font-size: 8pt; height: 16">\n\t\t\t\t\t</font></td></tr>\n\t\t\t\t\t<input type="hidden" name="jumpstuff" value="view=releasedate&view2=domestic&yr=2013&sort=gross&order=DESC&p=.htm">\n\t\t\t\t\t<input type="hidden" name="curasof" value="today">\n\t\t\t\t\t<input type="hidden" name="yr" value="2013">\n\t\t\t\t\t</form>\n\t\t\t\t\t</table>\n\t\t\t\t</font></td><td valign="bottom" align="right"><font face="Verdana" size="1"><b><a href="/yearly/chart/?yr=2014&view=releasedate&view2=domestic&sort=gross&order=DESC&&p=.htm">Next Year &gt;</a></b></font></td></tr><tr><td colspan="3"><table border="0" cellspacing="1" cellpadding="5" bgcolor="#ffffff"><tr bgcolor="#dcdcdc"><td align="center"><font size="2"><a href="/yearly/chart/?view=releasedate&view2=domestic&yr=2013&sort=gross&order=ASC&p=.htm"><b>Rank</b></a></font></td><td align="center"><font size="2"><a href="/yearly/chart/?view=releasedate&view2=domestic&yr=2013&sort=title&order=ASC&p=.htm">Movie Title (click to view)</a></font></td><td align="center"><font size="2"><a href="/yearly/chart/?view=releasedate&view2=domestic&yr=2013&sort=studio&order=ASC&p=.htm">Studio</a><br><script language="javascript">\r\nfunction MojoDrop1() {\r\nvar number = document.MojoDropDown1.mojolinks1.selectedIndex;location.href = document.MojoDropDown1.mojolinks1.options[number].value;}</script>\r\n<table border="0" cellspacing="0" cellpadding="0">\r\n<form name="MojoDropDown1"><tr><td>\r\n<select name="mojolinks1" style="font-family: Verdana; font-size: 8pt" onChange="MojoDrop1(this.form)">\r\n<option selected>Filter</option><option value="/yearly/chart/?view=releasedate&view2=domestic&yr=2013&sort=gross&order=DESC&studio=area23a.htm">A23</option>\r\n<option value="/yearly/chart/?view=releasedate&view2=domestic&yr=2013&sort=gross&order=DESC&studio=a24.htm">A24</option>\r\n<option value="/yearly/chart/?view=releasedate&view2=domestic&yr=2013&sort=gross&order=DESC&studio=abramorama.htm">Abr.</option>\r\n<option value="/yearly/chart/?view=releasedate&view2=domestic&yr=2013&sort=gross&order=DESC&studio=archstone.htm">AD</option>\r\n<option value="/yearly/chart/?view=releasedate&view2=domestic&yr=2013&sort=gross&order=DESC&studio=adoptfilms.htm">AF</option>\r\n<option value="/yearly/chart/?view=releasedate&view2=domestic&yr=2013&sort=gross&order=DESC&studio=affrm.htm">AFFRM</option>\r\n<option value="/yearly/chart/?view=releasedate&view2=domestic&yr=2013&sort=gross&order=DESC&studio=activefox.htm">AFP</option>\r\n<option value="/yearly/chart/?view=releasedate&view2=domestic&yr=2013&sort=gross&order=DESC&studio=afterlifepictures.htm">ALP</option>\r\n<option value="/yearly/chart/?view=releasedate&view2=domestic&yr=2013&sort=gross&order=DESC&studio=alivemind.htm">AM</option>\r\n<option value="/yearly/chart/?view=releasedate&view2=domestic&yr=2013&sort=gross&order=DESC&studio=armandomontelongo.htm">AMP</option>\r\n<option value="/yearly/chart/?view=releasedate&view2=domestic&yr=2013&sort=gross&order=DESC&studio=anchorbayentertainment.htm">Anch.</option>\r\n<option value="/yearly/chart/?view=releasedate&view2=domestic&yr=2013&sort=gross&order=DESC&studio=apdcinema.htm">APD/C</option>\r\n<option value="/yearly/chart/?view=releasedate&view2=domestic&yr=2013&sort=gross&order=DESC&studio=asiareleasing.htm">AR</option>\r\n<option value="/yearly/chart/?view=releasedate&view2=domestic&yr=2013&sort=gross&order=DESC&studio=areans.htm">Aren</option>\r\n<option value="/yearly/chart/?view=releasedate&view2=domestic&yr=2013&sort=gross&order=DESC&studio=argotpictures.htm">Argo.</option>\r\n<option value="/yearly/chart/?view=releasedate&view2=domestic&yr=2013&sort=gross&order=DESC&studio=artisttribe.htm">AT/OS</option>\r\n<option value="/yearly/chart/?view=releasedate&view2=domestic&yr=2013&sort=gross&order=DESC&studio=atopictures.htm">ATO</option>\r\n<option value="/yearly/chart/?view=releasedate&view2=domestic&yr=2013&sort=gross&order=DESC&studio=b4u.htm">B4U</option>\r\n<option value="/yearly/chart/?view=releasedate&view2=domestic&yr=2013&sort=gross&order=DESC&studio=bonfire.htm">BFOA</option>\r\n<option value="/yearly/chart/?view=releasedate&view2=domestic&yr=2013&sort=gross&order=DESC&studio=breakingglass.htm">BGP</option>\r\n<option value="/yearly/chart/?view=releasedate&view2=domestic&yr=2013&sort=gross&order=DESC&studio=bluellama.htm">BLS</option>\r\n<option value="/yearly/chart/?view=releasedate&view2=domestic&yr=2013&sort=gross&order=DESC&studio=brainstormmedia.htm">BSM</option>\r\n<option value="/yearly/chart/?view=releasedate&view2=domestic&yr=2013&sort=gross&order=DESC&studio=buenavista.htm">BV</option>\r\n<option value="/yearly/chart/?view=releasedate&view2=domestic&yr=2013&sort=gross&order=DESC&studio=cbsfilms.htm">CBS</option>\r\n<option value="/yearly/chart/?view=releasedate&view2=domestic&yr=2013&sort=gross&order=DESC&studio=cinedigmentertainment.htm">Cdgm.</option>\r\n<option value="/yearly/chart/?view=releasedate&view2=domestic&yr=2013&sort=gross&order=DESC&studio=carlotta.htm">CFilms</option>\r\n<option value="/yearly/chart/?view=releasedate&view2=domestic&yr=2013&sort=gross&order=DESC&studio=cinemaguild.htm">CGld</option>\r\n<option value="/yearly/chart/?view=releasedate&view2=domestic&yr=2013&sort=gross&order=DESC&studio=cinipix.htm">Cini</option>\r\n<option value="/yearly/chart/?view=releasedate&view2=domestic&yr=2013&sort=gross&order=DESC&studio=cjentertainment.htm">CJ</option>\r\n<option value="/yearly/chart/?view=releasedate&view2=domestic&yr=2013&sort=gross&order=DESC&studio=chinalion.htm">CL</option>\r\n<option value="/yearly/chart/?view=releasedate&view2=domestic&yr=2013&sort=gross&order=DESC&studio=contentmedia.htm">CM</option>\r\n<option value="/yearly/chart/?view=releasedate&view2=domestic&yr=2013&sort=gross&order=DESC&studio=codeblackentertainment.htm">Code</option>\r\n<option value="/yearly/chart/?view=releasedate&view2=domestic&yr=2013&sort=gross&order=DESC&studio=cohenmedia.htm">Cohen</option>\r\n<option value="/yearly/chart/?view=releasedate&view2=domestic&yr=2013&sort=gross&order=DESC&studio=cinemapurgatorio.htm">CP</option>\r\n<option value="/yearly/chart/?view=releasedate&view2=domestic&yr=2013&sort=gross&order=DESC&studio=dada.htm">Da.</option>\r\n<option value="/yearly/chart/?view=releasedate&view2=domestic&yr=2013&sort=gross&order=DESC&studio=drivein.htm">DID</option>\r\n<option value="/yearly/chart/?view=releasedate&view2=domestic&yr=2013&sort=gross&order=DESC&studio=distribfilms.htm">Distrib.</option>\r\n<option value="/yearly/chart/?view=releasedate&view2=domestic&yr=2013&sort=gross&order=DESC&studio=diginext.htm">DN</option>\r\n<option value="/yearly/chart/?view=releasedate&view2=domestic&yr=2013&sort=gross&order=DESC&studio=doppelganger.htm">DR</option>\r\n<option value="/yearly/chart/?view=releasedate&view2=domestic&yr=2013&sort=gross&order=DESC&studio=drafthousefilms.htm">Drft.</option>\r\n<option value="/yearly/chart/?view=releasedate&view2=domestic&yr=2013&sort=gross&order=DESC&studio=drivingwithoureyesshut.htm">DWOES</option>\r\n<option value="/yearly/chart/?view=releasedate&view2=domestic&yr=2013&sort=gross&order=DESC&studio=e1entertainment.htm">E1</option>\r\n<option value="/yearly/chart/?view=releasedate&view2=domestic&yr=2013&sort=gross&order=DESC&studio=elevenarts.htm">Elev.</option>\r\n<option value="/yearly/chart/?view=releasedate&view2=domestic&yr=2013&sort=gross&order=DESC&studio=echolight.htm">ELS</option>\r\n<option value="/yearly/chart/?view=releasedate&view2=domestic&yr=2013&sort=gross&order=DESC&studio=entertainmentone.htm">EOne</option>\r\n<option value="/yearly/chart/?view=releasedate&view2=domestic&yr=2013&sort=gross&order=DESC&studio=epicpics.htm">EpicPics</option>\r\n<option value="/yearly/chart/?view=releasedate&view2=domestic&yr=2013&sort=gross&order=DESC&studio=erbpfilm.htm">erbp</option>\r\n<option value="/yearly/chart/?view=releasedate&view2=domestic&yr=2013&sort=gross&order=DESC&studio=eros.htm">Eros</option>\r\n<option value="/yearly/chart/?view=releasedate&view2=domestic&yr=2013&sort=gross&order=DESC&studio=excel.htm">Excel</option>\r\n<option value="/yearly/chart/?view=releasedate&view2=domestic&yr=2013&sort=gross&order=DESC&studio=exclusivemedia.htm">EXCL</option>\r\n<option value="/yearly/chart/?view=releasedate&view2=domestic&yr=2013&sort=gross&order=DESC&studio=filmbuff.htm">FB</option>\r\n<option value="/yearly/chart/?view=releasedate&view2=domestic&yr=2013&sort=gross&order=DESC&studio=filmcollective.htm">FC</option>\r\n<option value="/yearly/chart/?view=releasedate&view2=domestic&yr=2013&sort=gross&order=DESC&studio=filmdistrict.htm">FD</option>\r\n<option value="/yearly/chart/?view=releasedate&view2=domestic&yr=2013&sort=gross&order=DESC&studio=thefilmdesk.htm">FDesk</option>\r\n<option value="/yearly/chart/?view=releasedate&view2=domestic&yr=2013&sort=gross&order=DESC&studio=futureeducational.htm">FEF</option>\r\n<option value="/yearly/chart/?view=releasedate&view2=domestic&yr=2013&sort=gross&order=DESC&studio=fip.htm">FIP</option>\r\n<option value="/yearly/chart/?view=releasedate&view2=domestic&yr=2013&sort=gross&order=DESC&studio=finelinemedia.htm">FLM</option>\r\n<option value="/yearly/chart/?view=releasedate&view2=domestic&yr=2013&sort=gross&order=DESC&studio=filmmovement.htm">FM</option>\r\n<option value="/yearly/chart/?view=releasedate&view2=domestic&yr=2013&sort=gross&order=DESC&studio=focus.htm">Focus</option>\r\n<option value="/yearly/chart/?view=releasedate&view2=domestic&yr=2013&sort=gross&order=DESC&studio=fox.htm">Fox</option>\r\n<option value="/yearly/chart/?view=releasedate&view2=domestic&yr=2013&sort=gross&order=DESC&studio=foxsearchlight.htm">FoxS</option>\r\n<option value="/yearly/chart/?view=releasedate&view2=domestic&yr=2013&sort=gross&order=DESC&studio=freestyle.htm">Free</option>\r\n<option value="/yearly/chart/?view=releasedate&view2=domestic&yr=2013&sort=gross&order=DESC&studio=firstrun.htm">FRun</option>\r\n<option value="/yearly/chart/?view=releasedate&view2=domestic&yr=2013&sort=gross&order=DESC&studio=followyournose.htm">FYN</option>\r\n<option value="/yearly/chart/?view=releasedate&view2=domestic&yr=2013&sort=gross&order=DESC&studio=gathrfilms.htm">Gathr</option>\r\n<option value="/yearly/chart/?view=releasedate&view2=domestic&yr=2013&sort=gross&order=DESC&studio=goldcapfilms.htm">GCF</option>\r\n<option value="/yearly/chart/?view=releasedate&view2=domestic&yr=2013&sort=gross&order=DESC&studio=godigital.htm">GD</option>\r\n<option value="/yearly/chart/?view=releasedate&view2=domestic&yr=2013&sort=gross&order=DESC&studio=gogogo.htm">GGGE</option>\r\n<option value="/yearly/chart/?view=releasedate&view2=domestic&yr=2013&sort=gross&order=DESC&studio=gkids.htm">GK</option>\r\n<option value="/yearly/chart/?view=releasedate&view2=domestic&yr=2013&sort=gross&order=DESC&studio=gabrielsmessenger.htm">GMF</option>\r\n<option value="/yearly/chart/?view=releasedate&view2=domestic&yr=2013&sort=gross&order=DESC&studio=ghostsmedia.htm">GMI</option>\r\n<option value="/yearly/chart/?view=releasedate&view2=domestic&yr=2013&sort=gross&order=DESC&studio=samuelgoldwyn.htm">Gold.</option>\r\n<option value="/yearly/chart/?view=releasedate&view2=domestic&yr=2013&sort=gross&order=DESC&studio=gravitas.htm">Grav.</option>\r\n<option value="/yearly/chart/?view=releasedate&view2=domestic&yr=2013&sort=gross&order=DESC&studio=gaiamvivendi.htm">GVE</option>\r\n<option value="/yearly/chart/?view=releasedate&view2=domestic&yr=2013&sort=gross&order=DESC&studio=houselightsmedia.htm">HLM</option>\r\n<option value="/yearly/chart/?view=releasedate&view2=domestic&yr=2013&sort=gross&order=DESC&studio=hightop.htm">HTR</option>\r\n<option value="/yearly/chart/?view=releasedate&view2=domestic&yr=2013&sort=gross&order=DESC&studio=icarus.htm">Icar.</option>\r\n<option value="/yearly/chart/?view=releasedate&view2=domestic&yr=2013&sort=gross&order=DESC&studio=intlfilmcircuit.htm">ICir</option>\r\n<option value="/yearly/chart/?view=releasedate&view2=domestic&yr=2013&sort=gross&order=DESC&studio=ifc.htm">IFC</option>\r\n<option value="/yearly/chart/?view=releasedate&view2=domestic&yr=2013&sort=gross&order=DESC&studio=indomina.htm">IM</option>\r\n<option value="/yearly/chart/?view=releasedate&view2=domestic&yr=2013&sort=gross&order=DESC&studio=imageentertainment.htm">Imag.</option>\r\n<option value="/yearly/chart/?view=releasedate&view2=domestic&yr=2013&sort=gross&order=DESC&studio=imax.htm">Imax</option>\r\n<option value="/yearly/chart/?view=releasedate&view2=domestic&yr=2013&sort=gross&order=DESC&studio=imglobalblum.htm">IMG/B</option>\r\n<option value="/yearly/chart/?view=releasedate&view2=domestic&yr=2013&sort=gross&order=DESC&studio=indican.htm">Indic.</option>\r\n<option value="/yearly/chart/?view=releasedate&view2=domestic&yr=2013&sort=gross&order=DESC&studio=janusfilms.htm">Jan.</option>\r\n<option value="/yearly/chart/?view=releasedate&view2=domestic&yr=2013&sort=gross&order=DESC&studio=jansonmedia.htm">JM</option>\r\n<option value="/yearly/chart/?view=releasedate&view2=domestic&yr=2013&sort=gross&order=DESC&studio=kdkfactory.htm">KDK</option>\r\n<option value="/yearly/chart/?view=releasedate&view2=domestic&yr=2013&sort=gross&order=DESC&studio=ketchup.htm">KE</option>\r\n<option value="/yearly/chart/?view=releasedate&view2=domestic&yr=2013&sort=gross&order=DESC&studio=kinolorber.htm">KL</option>\r\n<option value="/yearly/chart/?view=releasedate&view2=domestic&yr=2013&sort=gross&order=DESC&studio=krian.htm">KM</option>\r\n<option value="/yearly/chart/?view=releasedate&view2=domestic&yr=2013&sort=gross&order=DESC&studio=kimstim.htm">KS</option>\r\n<option value="/yearly/chart/?view=releasedate&view2=domestic&yr=2013&sort=gross&order=DESC&studio=leavebetter.htm">LB</option>\r\n<option value="/yearly/chart/?view=releasedate&view2=domestic&yr=2013&sort=gross&order=DESC&studio=lddistribution.htm">LD</option>\r\n<option value="/yearly/chart/?view=releasedate&view2=domestic&yr=2013&sort=gross&order=DESC&studio=leisuretime.htm">Leis.</option>\r\n<option value="/yearly/chart/?view=releasedate&view2=domestic&yr=2013&sort=gross&order=DESC&studio=lionsgatesummit.htm">LG/S</option>\r\n<option value="/yearly/chart/?view=releasedate&view2=domestic&yr=2013&sort=gross&order=DESC&studio=lionsgate.htm">LGF</option>\r\n<option value="/yearly/chart/?view=releasedate&view2=domestic&yr=2013&sort=gross&order=DESC&studio=cinemalibre.htm">Libre</option>\r\n<option value="/yearly/chart/?view=releasedate&view2=domestic&yr=2013&sort=gross&order=DESC&studio=libertystreet.htm">LibSt.</option>\r\n<option value="/yearly/chart/?view=releasedate&view2=domestic&yr=2013&sort=gross&order=DESC&studio=lepetitcanyon.htm">LPC</option>\r\n<option value="/yearly/chart/?view=releasedate&view2=domestic&yr=2013&sort=gross&order=DESC&studio=lambertreleasing.htm">LR</option>\r\n<option value="/yearly/chart/?view=releasedate&view2=domestic&yr=2013&sort=gross&order=DESC&studio=magnolia.htm">Magn.</option>\r\n<option value="/yearly/chart/?view=releasedate&view2=domestic&yr=2013&sort=gross&order=DESC&studio=musicboxfilms.htm">MBox</option>\r\n<option value="/yearly/chart/?view=releasedate&view2=domestic&yr=2013&sort=gross&order=DESC&studio=millenniumentertainment.htm">MNE</option>\r\n<option value="/yearly/chart/?view=releasedate&view2=domestic&yr=2013&sort=gross&order=DESC&studio=montereymediainc.htm">Mont.</option>\r\n<option value="/yearly/chart/?view=releasedate&view2=domestic&yr=2013&sort=gross&order=DESC&studio=mpimediagroup.htm">MPI</option>\r\n<option value="/yearly/chart/?view=releasedate&view2=domestic&yr=2013&sort=gross&order=DESC&studio=mainstreetfilms.htm">MSF</option>\r\n<option value="/yearly/chart/?view=releasedate&view2=domestic&yr=2013&sort=gross&order=DESC&studio=methinx.htm">MTE</option>\r\n<option value="/yearly/chart/?view=releasedate&view2=domestic&yr=2013&sort=gross&order=DESC&studio=unknown.htm">N/A</option>\r\n<option value="/yearly/chart/?view=releasedate&view2=domestic&yr=2013&sort=gross&order=DESC&studio=nocoast.htm">NC</option>\r\n<option value="/yearly/chart/?view=releasedate&view2=domestic&yr=2013&sort=gross&order=DESC&studio=nationalgeographiccinema.htm">NGE</option>\r\n<option value="/yearly/chart/?view=releasedate&view2=domestic&yr=2013&sort=gross&order=DESC&studio=noujaim.htm">Nou</option>\r\n<option value="/yearly/chart/?view=releasedate&view2=domestic&yr=2013&sort=gross&order=DESC&studio=newyorker.htm">NYer</option>\r\n<option value="/yearly/chart/?view=releasedate&view2=domestic&yr=2013&sort=gross&order=DESC&studio=openroads.htm">ORF</option>\r\n<option value="/yearly/chart/?view=releasedate&view2=domestic&yr=2013&sort=gross&order=DESC&studio=oscilloscopepictures.htm">Osci.</option>\r\n<option value="/yearly/chart/?view=releasedate&view2=domestic&yr=2013&sort=gross&order=DESC&studio=paladin108.htm">P/108</option>\r\n<option value="/yearly/chart/?view=releasedate&view2=domestic&yr=2013&sort=gross&order=DESC&studio=paladinfilmbuff.htm">P/FB</option>\r\n<option value="/yearly/chart/?view=releasedate&view2=domestic&yr=2013&sort=gross&order=DESC&studio=paladin.htm">Pala.</option>\r\n<option value="/yearly/chart/?view=releasedate&view2=domestic&yr=2013&sort=gross&order=DESC&studio=paramount.htm">Par.</option>\r\n<option value="/yearly/chart/?view=releasedate&view2=domestic&yr=2013&sort=gross&order=DESC&studio=participant.htm">Part.</option>\r\n<option value="/yearly/chart/?view=releasedate&view2=domestic&yr=2013&sort=gross&order=DESC&studio=pda.htm">PDA</option>\r\n<option value="/yearly/chart/?view=releasedate&view2=domestic&yr=2013&sort=gross&order=DESC&studio=picturehouse2.htm">PH</option>\r\n<option value="/yearly/chart/?view=releasedate&view2=domestic&yr=2013&sort=gross&order=DESC&studio=palmera.htm">PI</option>\r\n<option value="/yearly/chart/?view=releasedate&view2=domestic&yr=2013&sort=gross&order=DESC&studio=panmedia.htm">PM&amp;E</option>\r\n<option value="/yearly/chart/?view=releasedate&view2=domestic&yr=2013&sort=gross&order=DESC&studio=pradhubheva.htm">Prab.</option>\r\n<option value="/yearly/chart/?view=releasedate&view2=domestic&yr=2013&sort=gross&order=DESC&studio=purdie.htm">Purd.</option>\r\n<option value="/yearly/chart/?view=releasedate&view2=domestic&yr=2013&sort=gross&order=DESC&studio=reactor88.htm">R88</option>\r\n<option value="/yearly/chart/?view=releasedate&view2=domestic&yr=2013&sort=gross&order=DESC&studio=roadsideattractions.htm">RAtt.</option>\r\n<option value="/yearly/chart/?view=releasedate&view2=domestic&yr=2013&sort=gross&order=DESC&studio=rcr.htm">RCR</option>\r\n<option value="/yearly/chart/?view=releasedate&view2=domestic&yr=2013&sort=gross&order=DESC&studio=relativity.htm">Rela.</option>\r\n<option value="/yearly/chart/?view=releasedate&view2=domestic&yr=2013&sort=gross&order=DESC&studio=reliancebigpictures.htm">Relbig.</option>\r\n<option value="/yearly/chart/?view=releasedate&view2=domestic&yr=2013&sort=gross&order=DESC&studio=radafilmgroup.htm">RFG</option>\r\n<option value="/yearly/chart/?view=releasedate&view2=domestic&yr=2013&sort=gross&order=DESC&studio=rialto.htm">Rialto</option>\r\n<option value="/yearly/chart/?view=releasedate&view2=domestic&yr=2013&sort=gross&order=DESC&studio=riverrain.htm">RivR</option>\r\n<option value="/yearly/chart/?view=releasedate&view2=domestic&yr=2013&sort=gross&order=DESC&studio=rockymountainpictures.htm">RM</option>\r\n<option value="/yearly/chart/?view=releasedate&view2=domestic&yr=2013&sort=gross&order=DESC&studio=rockstone.htm">RR</option>\r\n<option value="/yearly/chart/?view=releasedate&view2=domestic&yr=2013&sort=gross&order=DESC&studio=radiustwc.htm">RTWC</option>\r\n<option value="/yearly/chart/?view=releasedate&view2=domestic&yr=2013&sort=gross&order=DESC&studio=seatzyima.htm">S/IMA</option>\r\n<option value="/yearly/chart/?view=releasedate&view2=domestic&yr=2013&sort=gross&order=DESC&studio=screenmedia.htm">Scre.</option>\r\n<option value="/yearly/chart/?view=releasedate&view2=domestic&yr=2013&sort=gross&order=DESC&studio=submarinedeluxe.htm">SD</option>\r\n<option value="/yearly/chart/?view=releasedate&view2=domestic&yr=2013&sort=gross&order=DESC&studio=striped.htm">SE</option>\r\n<option value="/yearly/chart/?view=releasedate&view2=domestic&yr=2013&sort=gross&order=DESC&studio=screengems.htm">SGem</option>\r\n<option value="/yearly/chart/?view=releasedate&view2=domestic&yr=2013&sort=gross&order=DESC&studio=shoutfactory.htm">Shout!</option>\r\n<option value="/yearly/chart/?view=releasedate&view2=domestic&yr=2013&sort=gross&order=DESC&studio=shortsinternational.htm">Shrts.</option>\r\n<option value="/yearly/chart/?view=releasedate&view2=domestic&yr=2013&sort=gross&order=DESC&studio=starzmedia.htm">SM</option>\r\n<option value="/yearly/chart/?view=releasedate&view2=domestic&yr=2013&sort=gross&order=DESC&studio=sony.htm">Sony</option>\r\n<option value="/yearly/chart/?view=releasedate&view2=domestic&yr=2013&sort=gross&order=DESC&studio=steelyardpictures.htm">SP</option>\r\n<option value="/yearly/chart/?view=releasedate&view2=domestic&yr=2013&sort=gross&order=DESC&studio=sonyclassics.htm">SPC</option>\r\n<option value="/yearly/chart/?view=releasedate&view2=domestic&yr=2013&sort=gross&order=DESC&studio=strand.htm">Strand</option>\r\n<option value="/yearly/chart/?view=releasedate&view2=domestic&yr=2013&sort=gross&order=DESC&studio=ashtontimes.htm">TAT</option>\r\n<option value="/yearly/chart/?view=releasedate&view2=domestic&yr=2013&sort=gross&order=DESC&studio=filmarcade.htm">TFA</option>\r\n<option value="/yearly/chart/?view=releasedate&view2=domestic&yr=2013&sort=gross&order=DESC&studio=filmcollaborative.htm">TFC</option>\r\n<option value="/yearly/chart/?view=releasedate&view2=domestic&yr=2013&sort=gross&order=DESC&studio=happysadllc.htm">THS</option>\r\n<option value="/yearly/chart/?view=releasedate&view2=domestic&yr=2013&sort=gross&order=DESC&studio=tribecafilm.htm">Trib.</option>\r\n<option value="/yearly/chart/?view=releasedate&view2=domestic&yr=2013&sort=gross&order=DESC&studio=tristar.htm">TriS</option>\r\n<option value="/yearly/chart/?view=releasedate&view2=domestic&yr=2013&sort=gross&order=DESC&studio=trulyindie.htm">Truly</option>\r\n<option value="/yearly/chart/?view=releasedate&view2=domestic&yr=2013&sort=gross&order=DESC&studio=vladarcompany.htm">TVC</option>\r\n<option value="/yearly/chart/?view=releasedate&view2=domestic&yr=2013&sort=gross&order=DESC&studio=universal.htm">Uni.</option>\r\n<option value="/yearly/chart/?view=releasedate&view2=domestic&yr=2013&sort=gross&order=DESC&studio=milkyway.htm">UTMW</option>\r\n<option value="/yearly/chart/?view=releasedate&view2=domestic&yr=2013&sort=gross&order=DESC&studio=utv.htm">UTV</option>\r\n<option value="/yearly/chart/?view=releasedate&view2=domestic&yr=2013&sort=gross&order=DESC&studio=variancefilms.htm">Vari.</option>\r\n<option value="/yearly/chart/?view=releasedate&view2=domestic&yr=2013&sort=gross&order=DESC&studio=vertical.htm">VE</option>\r\n<option value="/yearly/chart/?view=releasedate&view2=domestic&yr=2013&sort=gross&order=DESC&studio=vanguardia.htm">VF</option>\r\n<option value="/yearly/chart/?view=releasedate&view2=domestic&yr=2013&sort=gross&order=DESC&studio=vitagraph.htm">Vita.</option>\r\n<option value="/yearly/chart/?view=releasedate&view2=domestic&yr=2013&sort=gross&order=DESC&studio=wdimension.htm">W/Dim.</option>\r\n<option value="/yearly/chart/?view=releasedate&view2=domestic&yr=2013&sort=gross&order=DESC&studio=amctheaters.htm">WAMCR</option>\r\n<option value="/yearly/chart/?view=releasedate&view2=domestic&yr=2013&sort=gross&order=DESC&studio=warnerbros.htm">WB</option>\r\n<option value="/yearly/chart/?view=releasedate&view2=domestic&yr=2013&sort=gross&order=DESC&studio=wb-newline.htm">WB (NL)</option>\r\n<option value="/yearly/chart/?view=releasedate&view2=domestic&yr=2013&sort=gross&order=DESC&studio=weinsteincompany.htm">Wein.</option>\r\n<option value="/yearly/chart/?view=releasedate&view2=domestic&yr=2013&sort=gross&order=DESC&studio=wakinggiants.htm">WG</option>\r\n<option value="/yearly/chart/?view=releasedate&view2=domestic&yr=2013&sort=gross&order=DESC&studio=wellgo.htm">WGUSA</option>\r\n<option value="/yearly/chart/?view=releasedate&view2=domestic&yr=2013&sort=gross&order=DESC&studio=wolfereleasing.htm">Wlfe.</option>\r\n<option value="/yearly/chart/?view=releasedate&view2=domestic&yr=2013&sort=gross&order=DESC&studio=xlratormedia.htm">XL</option>\r\n<option value="/yearly/chart/?view=releasedate&view2=domestic&yr=2013&sort=gross&order=DESC&studio=yashraj.htm">Yash</option>\r\n<option value="/yearly/chart/?view=releasedate&view2=domestic&yr=2013&sort=gross&order=DESC&studio=zeitgeist.htm">Zeit.</option>\r\n<option value="/yearly/chart/?view=releasedate&view2=domestic&yr=2013&sort=gross&order=DESC&studio=zipporahfilms.htm">Zipp.</option>\r\n<option value="/yearly/chart/?view=releasedate&view2=domestic&yr=2013&sort=gross&order=DESC&p=.htm">ALL</option>\r\n</select></td></tr></form></table><a></a></font></td><td align="center" colspan="2"><font size="2"><a href="/yearly/chart/?view=releasedate&view2=domestic&yr=2013&sort=gross&order=ASC&p=.htm"><b>Total Gross</b></a> / </font><font size="2"><a href="/yearly/chart/?view=releasedate&view2=domestic&yr=2013&sort=theaters&order=DESC&p=.htm">Theaters</a></font></td><td align="center" colspan="2"><font size="2"><a href="/yearly/chart/?view=releasedate&view2=domestic&yr=2013&sort=opengross&order=DESC&p=.htm">Opening</a> / </font><font size="2"><a href="/yearly/chart/?view=releasedate&view2=domestic&yr=2013&sort=opentheaters&order=DESC&p=.htm">Theaters</a></font></td><td align="center"><font size="2"><a href="/yearly/chart/?view=releasedate&view2=domestic&yr=2013&sort=open&order=DESC&p=.htm">Open</a></font></td><td align="center"><font size="2"><a href="/yearly/chart/?view=releasedate&view2=domestic&yr=2013&sort=close&order=DESC&p=.htm">Close</a></font></td></tr><tr bgcolor="#ffffff"><td align="center"><font size="2">101</font></td><td><b><font size="2"><a href="/movies/?id=tomb.htm">Escape Plan</a></font></b></td><td><font size="2"><a href="/studio/chart/?studio=lionsgatesummit.htm">LG/S</a></font></td><td align="right"><font size="2"><b>$25,135,965</b></font></td><td align="right"><font size="2">2,883</font></td><td align="right"><font size="2">$9,885,732</font></td><td align="right"><font size="2">2,883</font></td><td align="right"><font size="2"><a href="/schedule/?view=bydate&release=theatrical&date=2013-10-18&p=.htm">10/18</a></font></td><td align="right"><font size="2">1/16</font></td></tr><tr bgcolor="#f4f4ff"><td align="center"><font size="2">102</font></td><td><b><font size="2"><a href="/movies/?id=donjon.htm">Don Jon</a></font></b></td><td><font size="2"><a href="/studio/chart/?studio=relativity.htm">Rela.</a></font></td><td align="right"><font size="2"><b>$24,477,704</b></font></td><td align="right"><font size="2">2,422</font></td><td align="right"><font size="2">$8,677,009</font></td><td align="right"><font size="2">2,422</font></td><td align="right"><font size="2"><a href="/schedule/?view=bydate&release=theatrical&date=2013-09-27&p=.htm">9/27</a></font></td><td align="right"><font size="2">1/9</font></td></tr><tr bgcolor="#ffffff"><td align="center"><font size="2">103</font></td><td><b><font size="2"><a href="/movies/?id=burtwonderstone.htm">The Incredible Burt Wonderstone</a></font></b></td><td><font size="2"><a href="/studio/chart/?studio=warnerbros.htm">WB</a></font></td><td align="right"><font size="2"><b>$22,537,881</b></font></td><td align="right"><font size="2">3,160</font></td><td align="right"><font size="2">$10,177,257</font></td><td align="right"><font size="2">3,160</font></td><td align="right"><font size="2"><a href="/schedule/?view=bydate&release=theatrical&date=2013-03-15&p=.htm">3/15</a></font></td><td align="right"><font size="2">5/9</font></td></tr><tr bgcolor="#f4f4ff"><td align="center"><font size="2">104</font></td><td><b><font size="2"><a href="/movies/?id=bigwedding.htm">The Big Wedding</a></font></b></td><td><font size="2"><a href="/studio/chart/?studio=lionsgate.htm">LGF</a></font></td><td align="right"><font size="2"><b>$21,819,348</b></font></td><td align="right"><font size="2">2,633</font></td><td align="right"><font size="2">$7,591,663</font></td><td align="right"><font size="2">2,633</font></td><td align="right"><font size="2"><a href="/schedule/?view=bydate&release=theatrical&date=2013-04-26&p=.htm">4/26</a></font></td><td align="right"><font size="2">7/4</font></td></tr><tr bgcolor="#ffffff"><td align="center"><font size="2">105</font></td><td><b><font size="2"><a href="/movies/?id=mud.htm">Mud</a></font></b></td><td><font size="2"><a href="/studio/chart/?studio=roadsideattractions.htm">RAtt.</a></font></td><td align="right"><font size="2"><b>$21,590,086</b></font></td><td align="right"><font size="2">960</font></td><td align="right"><font size="2">$2,215,891</font></td><td align="right"><font size="2">363</font></td><td align="right"><font size="2"><a href="/schedule/?view=bydate&release=theatrical&date=2013-04-26&p=.htm">4/26</a></font></td><td align="right"><font size="2">9/12</font></td></tr><tr bgcolor="#f4f4ff"><td align="center"><font size="2">106</font></td><td><b><font size="2"><a href="/movies/?id=baggageclaim.htm">Baggage Claim</a></font></b></td><td><font size="2"><a href="/studio/chart/?studio=foxsearchlight.htm">FoxS</a></font></td><td align="right"><font size="2"><b>$21,569,509</b></font></td><td align="right"><font size="2">2,230</font></td><td align="right"><font size="2">$9,031,102</font></td><td align="right"><font size="2">2,027</font></td><td align="right"><font size="2"><a href="/schedule/?view=bydate&release=theatrical&date=2013-09-27&p=.htm">9/27</a></font></td><td align="right"><font size="2">12/19</font></td></tr><tr bgcolor="#ffffff"><td align="center"><font size="2">107</font></td><td><b><font size="2"><a href="/movies/?id=waywayback.htm">The Way, Way Back</a></font></b></td><td><font size="2"><a href="/studio/chart/?studio=foxsearchlight.htm">FoxS</a></font></td><td align="right"><font size="2"><b>$21,506,546</b></font></td><td align="right"><font size="2">1,001</font></td><td align="right"><font size="2">$552,788</font></td><td align="right"><font size="2">19</font></td><td align="right"><font size="2"><a href="/schedule/?view=bydate&release=theatrical&date=2013-07-05&p=.htm">7/5</a></font></td><td align="right"><font size="2">11/21</font></td></tr><tr bgcolor="#f4f4ff"><td align="center"><font size="2">108</font></td><td><b><font size="2"><a href="/movies/?id=bookthief.htm">The Book Thief</a></font></b></td><td><font size="2"><a href="/studio/chart/?studio=fox.htm">Fox</a></font></td><td align="right"><font size="2"><b>$21,488,481</b></font></td><td align="right"><font size="2">1,316</font></td><td align="right"><font size="2">$105,005</font></td><td align="right"><font size="2">4</font></td><td align="right"><font size="2"><a href="/schedule/?view=bydate&release=theatrical&date=2013-11-08&p=.htm">11/8</a></font></td><td align="right"><font size="2">4/10</font></td></tr><tr bgcolor="#ffffff"><td align="center"><font size="2">109</font></td><td><b><font size="2"><a href="/movies/?id=placebeyondthepines.htm">The Place Beyond the Pines</a></font></b></td><td><font size="2"><a href="/studio/chart/?studio=focus.htm">Focus</a></font></td><td align="right"><font size="2"><b>$21,403,519</b></font></td><td align="right"><font size="2">1,584</font></td><td align="right"><font size="2">$279,457</font></td><td align="right"><font size="2">4</font></td><td align="right"><font size="2"><a href="/schedule/?view=bydate&release=theatrical&date=2013-03-29&p=.htm">3/29</a></font></td><td align="right"><font size="2">6/27</font></td></tr><tr bgcolor="#f4f4ff"><td align="center"><font size="2">110</font></td><td><b><font size="2"><a href="/movies/?id=homefront.htm">Homefront</a></font></b></td><td><font size="2"><a href="/studio/chart/?studio=openroads.htm">ORF</a></font></td><td align="right"><font size="2"><b>$20,158,898</b></font></td><td align="right"><font size="2">2,570</font></td><td align="right"><font size="2">$6,915,241</font></td><td align="right"><font size="2">2,570</font></td><td align="right"><font size="2"><a href="/schedule/?view=bydate&release=theatrical&date=2013-11-27&p=.htm">11/27</a></font></td><td align="right"><font size="2">1/2</font></td></tr><tr bgcolor="#ffffff"><td align="center"><font size="2">111</font></td><td><b><font size="2"><a href="/movies/?id=brokencity.htm">Broken City</a></font></b></td><td><font size="2"><a href="/studio/chart/?studio=fox.htm">Fox</a></font></td><td align="right"><font size="2"><b>$19,701,164</b></font></td><td align="right"><font size="2">2,622</font></td><td align="right"><font size="2">$8,268,908</font></td><td align="right"><font size="2">2,620</font></td><td align="right"><font size="2"><a href="/schedule/?view=bydate&release=theatrical&date=2013-01-18&p=.htm">1/18</a></font></td><td align="right"><font size="2">4/4</font></td></tr><tr bgcolor="#f4f4ff"><td align="center"><font size="2">112</font></td><td><b><font size="2"><a href="/movies/?id=beautifulcreatures13.htm">Beautiful Creatures (2013)</a></font></b></td><td><font size="2"><a href="/studio/chart/?studio=warnerbros.htm">WB</a></font></td><td align="right"><font size="2"><b>$19,452,138</b></font></td><td align="right"><font size="2">2,950</font></td><td align="right"><font size="2">$7,582,595</font></td><td align="right"><font size="2">2,950</font></td><td align="right"><font size="2"><a href="/schedule/?view=bydate&release=theatrical&date=2013-02-14&p=.htm">2/14</a></font></td><td align="right"><font size="2">4/11</font></td></tr><tr bgcolor="#ffffff"><td align="center"><font size="2">113</font></td><td><b><font size="2"><a href="/movies/?id=runnerrunner.htm">Runner Runner</a></font></b></td><td><font size="2"><a href="/studio/chart/?studio=fox.htm">Fox</a></font></td><td align="right"><font size="2"><b>$19,316,646</b></font></td><td align="right"><font size="2">3,026</font></td><td align="right"><font size="2">$7,706,712</font></td><td align="right"><font size="2">3,026</font></td><td align="right"><font size="2"><a href="/schedule/?view=bydate&release=theatrical&date=2013-10-04&p=.htm">10/4</a></font></td><td align="right"><font size="2">12/8</font></td></tr><tr bgcolor="#f4f4ff"><td align="center"><font size="2">114</font></td><td><b><font size="2"><a href="/movies/?id=yourenext.htm">You\'re Next</a></font></b></td><td><font size="2"><a href="/studio/chart/?studio=lionsgate.htm">LGF</a></font></td><td align="right"><font size="2"><b>$18,494,006</b></font></td><td align="right"><font size="2">2,437</font></td><td align="right"><font size="2">$7,020,196</font></td><td align="right"><font size="2">2,437</font></td><td align="right"><font size="2"><a href="/schedule/?view=bydate&release=theatrical&date=2013-08-23&p=.htm">8/23</a></font></td><td align="right"><font size="2">10/17</font></td></tr><tr bgcolor="#ffffff"><td align="center"><font size="2">115</font></td><td><b><font size="2"><a href="/movies/?id=quartet.htm">Quartet</a></font></b></td><td><font size="2"><a href="/studio/chart/?studio=weinsteincompany.htm">Wein.</a></font></td><td align="right"><font size="2"><b>$18,390,117</b></font></td><td align="right"><font size="2">725</font></td><td align="right"><font size="2">$47,122</font></td><td align="right"><font size="2">2</font></td><td align="right"><font size="2"><a href="/schedule/?view=bydate&release=theatrical&date=2013-01-11&p=.htm">1/11</a></font></td><td align="right"><font size="2">6/27</font></td></tr><tr bgcolor="#f4f4ff"><td align="center"><font size="2">116</font></td><td><b><font size="2"><a href="/movies/?id=admission.htm">Admission</a></font></b></td><td><font size="2"><a href="/studio/chart/?studio=focus.htm">Focus</a></font></td><td align="right"><font size="2"><b>$18,007,317</b></font></td><td align="right"><font size="2">2,161</font></td><td align="right"><font size="2">$6,154,984</font></td><td align="right"><font size="2">2,160</font></td><td align="right"><font size="2"><a href="/schedule/?view=bydate&release=theatrical&date=2013-03-22&p=.htm">3/22</a></font></td><td align="right"><font size="2">6/6</font></td></tr><tr bgcolor="#ffffff"><td align="center"><font size="2">117</font></td><td><b><font size="2"><a href="/movies/?id=nebraska.htm">Nebraska</a></font></b></td><td><font size="2"><a href="/studio/chart/?studio=paramount.htm">Par.</a></font></td><td align="right"><font size="2"><b>$17,654,912</b></font></td><td align="right"><font size="2">968</font></td><td align="right"><font size="2">$140,401</font></td><td align="right"><font size="2">4</font></td><td align="right"><font size="2"><a href="/schedule/?view=bydate&release=theatrical&date=2013-11-15&p=.htm">11/15</a></font></td><td align="right"><font size="2">3/20</font></td></tr><tr bgcolor="#f4f4ff"><td align="center"><font size="2">118</font></td><td><b><font size="2"><a href="/movies/?id=parker.htm">Parker</a></font></b></td><td><font size="2"><a href="/studio/chart/?studio=filmdistrict.htm">FD</a></font></td><td align="right"><font size="2"><b>$17,616,641</b></font></td><td align="right"><font size="2">2,238</font></td><td align="right"><font size="2">$7,008,222</font></td><td align="right"><font size="2">2,224</font></td><td align="right"><font size="2"><a href="/schedule/?view=bydate&release=theatrical&date=2013-01-25&p=.htm">1/25</a></font></td><td align="right"><font size="2">4/4</font></td></tr><tr bgcolor="#ffffff"><td align="center"><font size="2">119</font></td><td><b><font size="2"><a href="/movies/?id=enoughsaid.htm">Enough Said</a></font></b></td><td><font size="2"><a href="/studio/chart/?studio=foxsearchlight.htm">FoxS</a></font></td><td align="right"><font size="2"><b>$17,550,872</b></font></td><td align="right"><font size="2">835</font></td><td align="right"><font size="2">$232,800</font></td><td align="right"><font size="2">4</font></td><td align="right"><font size="2"><a href="/schedule/?view=bydate&release=theatrical&date=2013-09-18&p=.htm">9/18</a></font></td><td align="right"><font size="2">1/16</font></td></tr><tr bgcolor="#f4f4ff"><td align="center"><font size="2">120</font></td><td><b><font size="2"><a href="/movies/?id=darkskies.htm">Dark Skies</a></font></b></td><td><font size="2"><a href="/studio/chart/?studio=wdimension.htm">W/Dim.</a></font></td><td align="right"><font size="2"><b>$17,418,667</b></font></td><td align="right"><font size="2">2,313</font></td><td align="right"><font size="2">$8,189,166</font></td><td align="right"><font size="2">2,313</font></td><td align="right"><font size="2"><a href="/schedule/?view=bydate&release=theatrical&date=2013-02-22&p=.htm">2/22</a></font></td><td align="right"><font size="2">5/23</font></td></tr><tr bgcolor="#ffffff"><td align="center"><font size="2">121</font></td><td><b><font size="2"><a href="/movies/?id=counselor.htm">The Counselor</a></font></b></td><td><font size="2"><a href="/studio/chart/?studio=fox.htm">Fox</a></font></td><td align="right"><font size="2"><b>$16,973,715</b></font></td><td align="right"><font size="2">3,044</font></td><td align="right"><font size="2">$7,842,930</font></td><td align="right"><font size="2">3,044</font></td><td align="right"><font size="2"><a href="/schedule/?view=bydate&release=theatrical&date=2013-10-25&p=.htm">10/25</a></font></td><td align="right"><font size="2">1/16</font></td></tr><tr bgcolor="#f4f4ff"><td align="center"><font size="2">122</font></td><td><b><font size="2"><a href="/movies/?id=jobs.htm">Jobs</a></font></b></td><td><font size="2"><a href="/studio/chart/?studio=openroads.htm">ORF</a></font></td><td align="right"><font size="2"><b>$16,131,410</b></font></td><td align="right"><font size="2">2,381</font></td><td align="right"><font size="2">$6,713,900</font></td><td align="right"><font size="2">2,381</font></td><td align="right"><font size="2"><a href="/schedule/?view=bydate&release=theatrical&date=2013-08-16&p=.htm">8/16</a></font></td><td align="right"><font size="2">10/3</font></td></tr><tr bgcolor="#ffffff"><td align="center"><font size="2">123</font></td><td><b><font size="2"><a href="/movies/?id=fruitvale.htm">Fruitvale Station</a></font></b></td><td><font size="2"><a href="/studio/chart/?studio=weinsteincompany.htm">Wein.</a></font></td><td align="right"><font size="2"><b>$16,101,339</b></font></td><td align="right"><font size="2">1,086</font></td><td align="right"><font size="2">$386,291</font></td><td align="right"><font size="2">7</font></td><td align="right"><font size="2"><a href="/schedule/?view=bydate&release=theatrical&date=2013-07-12&p=.htm">7/12</a></font></td><td align="right"><font size="2">10/31</font></td></tr><tr bgcolor="#f4f4ff"><td align="center"><font size="2">124</font></td><td><b><font size="2"><a href="/movies/?id=abouttime.htm">About Time</a></font></b></td><td><font size="2"><a href="/studio/chart/?studio=universal.htm">Uni.</a></font></td><td align="right"><font size="2"><b>$15,322,921</b></font></td><td align="right"><font size="2">1,280</font></td><td align="right"><font size="2">$1,076,250</font></td><td align="right"><font size="2">175</font></td><td align="right"><font size="2"><a href="/schedule/?view=bydate&release=theatrical&date=2013-11-01&p=.htm">11/1</a></font></td><td align="right"><font size="2">12/26</font></td></tr><tr bgcolor="#ffffff"><td align="center"><font size="2">125</font></td><td><b><font size="2"><a href="/movies/?id=lastexorcism2.htm">The Last Exorcism Part II</a></font></b></td><td><font size="2"><a href="/studio/chart/?studio=cbsfilms.htm">CBS</a></font></td><td align="right"><font size="2"><b>$15,179,302</b></font></td><td align="right"><font size="2">2,700</font></td><td align="right"><font size="2">$7,728,354</font></td><td align="right"><font size="2">2,700</font></td><td align="right"><font size="2"><a href="/schedule/?view=bydate&release=theatrical&date=2013-03-01&p=.htm">3/1</a></font></td><td align="right"><font size="2">4/4</font></td></tr><tr bgcolor="#f4f4ff"><td align="center"><font size="2">126</font></td><td><b><font size="2"><a href="/movies/?id=springbreakers.htm">Spring Breakers</a></font></b></td><td><font size="2"><a href="/studio/chart/?studio=a24.htm">A24</a></font></td><td align="right"><font size="2"><b>$14,124,284</b></font></td><td align="right"><font size="2">1,379</font></td><td align="right"><font size="2">$263,002</font></td><td align="right"><font size="2">3</font></td><td align="right"><font size="2"><a href="/schedule/?view=bydate&release=theatrical&date=2013-03-15&p=.htm">3/15</a></font></td><td align="right"><font size="2">6/11</font></td></tr><tr bgcolor="#ffffff"><td align="center"><font size="2">127</font></td><td><b><font size="2"><a href="/movies/?id=insidellewyndavis.htm">Inside Llewyn Davis</a></font></b></td><td><font size="2"><a href="/studio/chart/?studio=cbsfilms.htm">CBS</a></font></td><td align="right"><font size="2"><b>$13,235,319</b></font></td><td align="right"><font size="2">729</font></td><td align="right"><font size="2">$405,411</font></td><td align="right"><font size="2">4</font></td><td align="right"><font size="2"><a href="/schedule/?view=bydate&release=theatrical&date=2013-12-06&p=.htm">12/6</a></font></td><td align="right"><font size="2">3/13</font></td></tr><tr bgcolor="#f4f4ff"><td align="center"><font size="2">128</font></td><td><b><font size="2"><a href="/movies/?id=laststand.htm">The Last Stand</a></font></b></td><td><font size="2"><a href="/studio/chart/?studio=lionsgate.htm">LGF</a></font></td><td align="right"><font size="2"><b>$12,050,299</b></font></td><td align="right"><font size="2">2,913</font></td><td align="right"><font size="2">$6,281,433</font></td><td align="right"><font size="2">2,913</font></td><td align="right"><font size="2"><a href="/schedule/?view=bydate&release=theatrical&date=2013-01-18&p=.htm">1/18</a></font></td><td align="right"><font size="2">2/28</font></td></tr><tr bgcolor="#ffffff"><td align="center"><font size="2">129</font></td><td><b><font size="2"><a href="/movies/?id=outofthefurnace.htm">Out of the Furnace</a></font></b></td><td><font size="2"><a href="/studio/chart/?studio=relativity.htm">Rela.</a></font></td><td align="right"><font size="2"><b>$11,330,849</b></font></td><td align="right"><font size="2">2,101</font></td><td align="right"><font size="2">$5,220,288</font></td><td align="right"><font size="2">2,101</font></td><td align="right"><font size="2"><a href="/schedule/?view=bydate&release=theatrical&date=2013-12-04&p=.htm">12/4</a></font></td><td align="right"><font size="2">2/6</font></td></tr><tr bgcolor="#f4f4ff"><td align="center"><font size="2">130</font></td><td><b><font size="2"><a href="/movies/?id=deadmandown.htm">Dead Man Down</a></font></b></td><td><font size="2"><a href="/studio/chart/?studio=filmdistrict.htm">FD</a></font></td><td align="right"><font size="2"><b>$10,895,295</b></font></td><td align="right"><font size="2">2,188</font></td><td align="right"><font size="2">$5,345,250</font></td><td align="right"><font size="2">2,188</font></td><td align="right"><font size="2"><a href="/schedule/?view=bydate&release=theatrical&date=2013-03-08&p=.htm">3/8</a></font></td><td align="right"><font size="2">4/18</font></td></tr><tr bgcolor="#ffffff"><td align="center"><font size="2">131</font></td><td><b><font size="2"><a href="/movies/?id=getaway2013.htm">Getaway (2013)</a></font></b></td><td><font size="2"><a href="/studio/chart/?studio=warnerbros.htm">WB</a></font></td><td align="right"><font size="2"><b>$10,501,938</b></font></td><td align="right"><font size="2">2,135</font></td><td align="right"><font size="2">$4,503,892</font></td><td align="right"><font size="2">2,130</font></td><td align="right"><font size="2"><a href="/schedule/?view=bydate&release=theatrical&date=2013-08-30&p=.htm">8/30</a></font></td><td align="right"><font size="2">10/3</font></td></tr><tr bgcolor="#f4f4ff"><td align="center"><font size="2">132</font></td><td><b><font size="2"><a href="/movies/?id=bullettothehead.htm">Bullet to the Head</a></font></b></td><td><font size="2"><a href="/studio/chart/?studio=warnerbros.htm">WB</a></font></td><td align="right"><font size="2"><b>$9,489,829</b></font></td><td align="right"><font size="2">2,404</font></td><td align="right"><font size="2">$4,548,201</font></td><td align="right"><font size="2">2,404</font></td><td align="right"><font size="2"><a href="/schedule/?view=bydate&release=theatrical&date=2013-02-01&p=.htm">2/1</a></font></td><td align="right"><font size="2">3/14</font></td></tr><tr bgcolor="#ffffff"><td align="center"><font size="2">133</font></td><td><b><font size="2"><a href="/movies/?id=wethepeeples.htm">Tyler Perry Presents Peeples</a></font></b></td><td><font size="2"><a href="/studio/chart/?studio=lionsgate.htm">LGF</a></font></td><td align="right"><font size="2"><b>$9,177,065</b></font></td><td align="right"><font size="2">2,041</font></td><td align="right"><font size="2">$4,611,534</font></td><td align="right"><font size="2">2,041</font></td><td align="right"><font size="2"><a href="/schedule/?view=bydate&release=theatrical&date=2013-05-10&p=.htm">5/10</a></font></td><td align="right"><font size="2">6/13</font></td></tr><tr bgcolor="#f4f4ff"><td align="center"><font size="2">134</font></td><td><b><font size="2"><a href="/movies/?id=planetbboy3d.htm">Battle of the Year</a></font></b></td><td><font size="2"><a href="/studio/chart/?studio=screengems.htm">SGem</a></font></td><td align="right"><font size="2"><b>$8,888,355</b></font></td><td align="right"><font size="2">2,008</font></td><td align="right"><font size="2">$4,603,177</font></td><td align="right"><font size="2">2,008</font></td><td align="right"><font size="2"><a href="/schedule/?view=bydate&release=theatrical&date=2013-09-20&p=.htm">9/20</a></font></td><td align="right"><font size="2">10/20</font></td></tr><tr bgcolor="#ffffff"><td align="center"><font size="2">135</font></td><td><b><font size="2"><a href="/movies/?id=movie43.htm">Movie 43</a></font></b></td><td><font size="2"><a href="/studio/chart/?studio=relativity.htm">Rela.</a></font></td><td align="right"><font size="2"><b>$8,840,453</b></font></td><td align="right"><font size="2">2,023</font></td><td align="right"><font size="2">$4,805,878</font></td><td align="right"><font size="2">2,023</font></td><td align="right"><font size="2"><a href="/schedule/?view=bydate&release=theatrical&date=2013-01-25&p=.htm">1/25</a></font></td><td align="right"><font size="2">3/14</font></td></tr><tr bgcolor="#f4f4ff"><td align="center"><font size="2">136</font></td><td><b><font size="2"><a href="/movies/?id=mandela2013.htm">Mandela: Long Walk to Freedom</a></font></b></td><td><font size="2"><a href="/studio/chart/?studio=weinsteincompany.htm">Wein.</a></font></td><td align="right"><font size="2"><b>$8,323,085</b></font></td><td align="right"><font size="2">1,010</font></td><td align="right"><font size="2">$84,283</font></td><td align="right"><font size="2">4</font></td><td align="right"><font size="2"><a href="/schedule/?view=bydate&release=theatrical&date=2013-11-29&p=.htm">11/29</a></font></td><td align="right"><font size="2">3/27</font></td></tr><tr bgcolor="#ffffff"><td align="center"><font size="2">137</font></td><td><b><font size="2"><a href="/movies/?id=beforemidnight.htm">Before Midnight</a></font></b></td><td><font size="2"><a href="/studio/chart/?studio=sonyclassics.htm">SPC</a></font></td><td align="right"><font size="2"><b>$8,114,627</b></font></td><td align="right"><font size="2">897</font></td><td align="right"><font size="2">$246,914</font></td><td align="right"><font size="2">5</font></td><td align="right"><font size="2"><a href="/schedule/?view=bydate&release=theatrical&date=2013-05-24&p=.htm">5/24</a></font></td><td align="right"><font size="2">11/7</font></td></tr><tr bgcolor="#f4f4ff"><td align="center"><font size="2">138</font></td><td><b><font size="2"><a href="/movies/?id=dhoom3.htm">Dhoom 3</a></font></b></td><td><font size="2"><a href="/studio/chart/?studio=yashraj.htm">Yash</a></font></td><td align="right"><font size="2"><b>$8,031,955</b></font></td><td align="right"><font size="2">239</font></td><td align="right"><font size="2">$3,423,508</font></td><td align="right"><font size="2">239</font></td><td align="right"><font size="2"><a href="/schedule/?view=bydate&release=theatrical&date=2013-12-20&p=.htm">12/20</a></font></td><td align="right"><font size="2">1/12</font></td></tr><tr bgcolor="#ffffff"><td align="center"><font size="2">139</font></td><td><b><font size="2"><a href="/movies/?id=jerusalem.htm">Jerusalem</a></font></b></td><td><font size="2"><a href="/studio/chart/?studio=nationalgeographiccinema.htm">NGE</a></font></td><td align="right"><font size="2"><b>$8,020,721</b></font></td><td align="right"><font size="2">33</font></td><td align="right"><font size="2">N/A</font></td><td align="right"><font size="2">N/A</font></td><td align="right"><font size="2"><a href="/schedule/?view=bydate&release=theatrical&date=2013-09-13&p=.htm">9/13</a></font></td><td align="right"><font size="2">-</font></td></tr><tr bgcolor="#f4f4ff"><td align="center"><font size="2">140</font></td><td><b><font size="2"><a href="/movies/?id=machete2.htm">Machete Kills</a></font></b></td><td><font size="2"><a href="/studio/chart/?studio=openroads.htm">ORF</a></font></td><td align="right"><font size="2"><b>$8,008,161</b></font></td><td align="right"><font size="2">2,538</font></td><td align="right"><font size="2">$3,837,183</font></td><td align="right"><font size="2">2,538</font></td><td align="right"><font size="2"><a href="/schedule/?view=bydate&release=theatrical&date=2013-10-11&p=.htm">10/11</a></font></td><td align="right"><font size="2">11/14</font></td></tr><tr bgcolor="#ffffff"><td align="center"><font size="2">141</font></td><td><b><font size="2"><a href="/movies/?id=paranoia.htm">Paranoia</a></font></b></td><td><font size="2"><a href="/studio/chart/?studio=relativity.htm">Rela.</a></font></td><td align="right"><font size="2"><b>$7,385,015</b></font></td><td align="right"><font size="2">2,459</font></td><td align="right"><font size="2">$3,528,376</font></td><td align="right"><font size="2">2,459</font></td><td align="right"><font size="2"><a href="/schedule/?view=bydate&release=theatrical&date=2013-08-16&p=.htm">8/16</a></font></td><td align="right"><font size="2">10/3</font></td></tr><tr bgcolor="#f4f4ff"><td align="center"><font size="2">142</font></td><td><b><font size="2"><a href="/movies/?id=blacknativity.htm">Black Nativity</a></font></b></td><td><font size="2"><a href="/studio/chart/?studio=foxsearchlight.htm">FoxS</a></font></td><td align="right"><font size="2"><b>$7,018,189</b></font></td><td align="right"><font size="2">1,525</font></td><td align="right"><font size="2">$3,669,530</font></td><td align="right"><font size="2">1,516</font></td><td align="right"><font size="2"><a href="/schedule/?view=bydate&release=theatrical&date=2013-11-27&p=.htm">11/27</a></font></td><td align="right"><font size="2">1/16</font></td></tr><tr bgcolor="#ffffff"><td align="center"><font size="2">143</font></td><td><b><font size="2"><a href="/movies/?id=spectacularnow.htm">The Spectacular Now</a></font></b></td><td><font size="2"><a href="/studio/chart/?studio=a24.htm">A24</a></font></td><td align="right"><font size="2"><b>$6,854,611</b></font></td><td align="right"><font size="2">770</font></td><td align="right"><font size="2">$197,415</font></td><td align="right"><font size="2">4</font></td><td align="right"><font size="2"><a href="/schedule/?view=bydate&release=theatrical&date=2013-08-02&p=.htm">8/2</a></font></td><td align="right"><font size="2">12/12</font></td></tr><tr bgcolor="#f4f4ff"><td align="center"><font size="2">144</font></td><td><b><font size="2"><a href="/movies/?id=grandmasters.htm">The Grandmaster</a></font></b></td><td><font size="2"><a href="/studio/chart/?studio=weinsteincompany.htm">Wein.</a></font></td><td align="right"><font size="2"><b>$6,594,959</b></font></td><td align="right"><font size="2">804</font></td><td align="right"><font size="2">$132,617</font></td><td align="right"><font size="2">7</font></td><td align="right"><font size="2"><a href="/schedule/?view=bydate&release=theatrical&date=2013-08-23&p=.htm">8/23</a></font></td><td align="right"><font size="2">10/24</font></td></tr><tr bgcolor="#ffffff"><td align="center"><font size="2">145</font></td><td><b><font size="2"><a href="/movies/?id=allislost.htm">All Is Lost</a></font></b></td><td><font size="2"><a href="/studio/chart/?studio=roadsideattractions.htm">RAtt.</a></font></td><td align="right"><font size="2"><b>$6,263,670</b></font></td><td align="right"><font size="2">483</font></td><td align="right"><font size="2">$93,583</font></td><td align="right"><font size="2">6</font></td><td align="right"><font size="2"><a href="/schedule/?view=bydate&release=theatrical&date=2013-10-18&p=.htm">10/18</a></font></td><td align="right"><font size="2">2/27</font></td></tr><tr bgcolor="#f4f4ff"><td align="center"><font size="2">146</font></td><td><b><font size="2"><a href="/movies/?id=believe.htm">Believe</a></font></b></td><td><font size="2"><a href="/studio/chart/?studio=openroads.htm">ORF</a></font></td><td align="right"><font size="2"><b>$6,206,566</b></font></td><td align="right"><font size="2">1,037</font></td><td align="right"><font size="2">$2,007,567</font></td><td align="right"><font size="2">1,037</font></td><td align="right"><font size="2"><a href="/schedule/?view=bydate&release=theatrical&date=2013-12-25&p=.htm">12/25</a></font></td><td align="right"><font size="2">1/16</font></td></tr><tr bgcolor="#ffffff"><td align="center"><font size="2">147</font></td><td><b><font size="2"><a href="/movies/?id=blingring.htm">The Bling Ring</a></font></b></td><td><font size="2"><a href="/studio/chart/?studio=a24.htm">A24</a></font></td><td align="right"><font size="2"><b>$5,845,732</b></font></td><td align="right"><font size="2">650</font></td><td align="right"><font size="2">$214,395</font></td><td align="right"><font size="2">5</font></td><td align="right"><font size="2"><a href="/schedule/?view=bydate&release=theatrical&date=2013-06-14&p=.htm">6/14</a></font></td><td align="right"><font size="2">9/12</font></td></tr><tr bgcolor="#f4f4ff"><td align="center"><font size="2">148</font></td><td><b><font size="2"><a href="/movies/?id=pullingstrings.htm">Pulling Strings</a></font></b></td><td><font size="2"><a href="/studio/chart/?studio=lionsgate.htm">LGF</a></font></td><td align="right"><font size="2"><b>$5,842,961</b></font></td><td align="right"><font size="2">438</font></td><td align="right"><font size="2">$2,467,168</font></td><td align="right"><font size="2">387</font></td><td align="right"><font size="2"><a href="/schedule/?view=bydate&release=theatrical&date=2013-10-04&p=.htm">10/4</a></font></td><td align="right"><font size="2">11/21</font></td></tr><tr bgcolor="#ffffff"><td align="center"><font size="2">149</font></td><td><b><font size="2"><a href="/movies/?id=closedcircuit.htm">Closed Circuit</a></font></b></td><td><font size="2"><a href="/studio/chart/?studio=focus.htm">Focus</a></font></td><td align="right"><font size="2"><b>$5,750,401</b></font></td><td align="right"><font size="2">870</font></td><td align="right"><font size="2">$2,464,931</font></td><td align="right"><font size="2">870</font></td><td align="right"><font size="2"><a href="/schedule/?view=bydate&release=theatrical&date=2013-08-28&p=.htm">8/28</a></font></td><td align="right"><font size="2">9/26</font></td></tr><tr bgcolor="#f4f4ff"><td align="center"><font size="2">150</font></td><td><b><font size="2"><a href="/movies/?id=wizardofozimax.htm">The Wizard of Oz (3D/IMAX)</a></font></b></td><td><font size="2"><a href="/studio/chart/?studio=warnerbros.htm">WB</a></font></td><td align="right"><font size="2"><b>$5,633,202</b></font></td><td align="right"><font size="2">318</font></td><td align="right"><font size="2">$3,093,998</font></td><td align="right"><font size="2">318</font></td><td align="right"><font size="2"><a href="/schedule/?view=bydate&release=theatrical&date=2013-09-20&p=.htm">9/20</a></font></td><td align="right"><font size="2">10/17</font></td></tr><tr bgcolor="#ffffff"><td align="center"><font size="2">151</font></td><td><b><font size="2"><a href="/movies/?id=chennaiexpress.htm">Chennai Express</a></font></b></td><td><font size="2"><a href="/studio/chart/?studio=utv.htm">UTV</a></font></td><td align="right"><font size="2"><b>$5,307,960</b></font></td><td align="right"><font size="2">196</font></td><td align="right"><font size="2">$2,220,497</font></td><td align="right"><font size="2">196</font></td><td align="right"><font size="2"><a href="/schedule/?view=bydate&release=theatrical&date=2013-08-08&p=.htm">8/8</a></font></td><td align="right"><font size="2">10/3</font></td></tr><tr bgcolor="#f4f4ff"><td align="center"><font size="2">152</font></td><td><b><font size="2"><a href="/movies/?id=journeytothesouthpacific.htm">Journey to the South Pacific</a></font></b></td><td><font size="2"><a href="/studio/chart/?studio=imax.htm">Imax</a></font></td><td align="right"><font size="2"><b>$5,136,738</b></font></td><td align="right"><font size="2">19</font></td><td align="right"><font size="2">$8,137</font></td><td align="right"><font size="2">1</font></td><td align="right"><font size="2"><a href="/schedule/?view=bydate&release=theatrical&date=2013-11-27&p=.htm">11/27</a></font></td><td align="right"><font size="2">-</font></td></tr><tr bgcolor="#ffffff"><td align="center"><font size="2">153</font></td><td><b><font size="2"><a href="/movies/?id=companyyoukeep.htm">The Company You Keep</a></font></b></td><td><font size="2"><a href="/studio/chart/?studio=sonyclassics.htm">SPC</a></font></td><td align="right"><font size="2"><b>$5,133,027</b></font></td><td align="right"><font size="2">807</font></td><td align="right"><font size="2">$131,718</font></td><td align="right"><font size="2">5</font></td><td align="right"><font size="2"><a href="/schedule/?view=bydate&release=theatrical&date=2013-04-05&p=.htm">4/5</a></font></td><td align="right"><font size="2">8/1</font></td></tr><tr bgcolor="#f4f4ff"><td align="center"><font size="2">154</font></td><td><b><font size="2"><a href="/movies/?id=20feetfromstardom.htm">20 Feet from Stardom</a></font></b></td><td><font size="2"><a href="/studio/chart/?studio=radiustwc.htm">RTWC</a></font></td><td align="right"><font size="2"><b>$4,946,445</b></font></td><td align="right"><font size="2">147</font></td><td align="right"><font size="2">$54,596</font></td><td align="right"><font size="2">3</font></td><td align="right"><font size="2"><a href="/schedule/?view=bydate&release=theatrical&date=2013-06-14&p=.htm">6/14</a></font></td><td align="right"><font size="2">6/19</font></td></tr><tr bgcolor="#ffffff"><td align="center"><font size="2">155</font></td><td><b><font size="2"><a href="/movies/?id=muchado13.htm">Much Ado About Nothing (2013)</a></font></b></td><td><font size="2"><a href="/studio/chart/?studio=roadsideattractions.htm">RAtt.</a></font></td><td align="right"><font size="2"><b>$4,328,849</b></font></td><td align="right"><font size="2">222</font></td><td align="right"><font size="2">$171,942</font></td><td align="right"><font size="2">5</font></td><td align="right"><font size="2"><a href="/schedule/?view=bydate&release=theatrical&date=2013-06-07&p=.htm">6/7</a></font></td><td align="right"><font size="2">10/10</font></td></tr><tr bgcolor="#f4f4ff"><td align="center"><font size="2">156</font></td><td><b><font size="2"><a href="/movies/?id=francisha.htm">Frances Ha</a></font></b></td><td><font size="2"><a href="/studio/chart/?studio=ifc.htm">IFC</a></font></td><td align="right"><font size="2"><b>$4,069,826</b></font></td><td align="right"><font size="2">233</font></td><td align="right"><font size="2">$137,398</font></td><td align="right"><font size="2">4</font></td><td align="right"><font size="2"><a href="/schedule/?view=bydate&release=theatrical&date=2013-05-17&p=.htm">5/17</a></font></td><td align="right"><font size="2">9/12</font></td></tr><tr bgcolor="#ffffff"><td align="center"><font size="2">157</font></td><td><b><font size="2"><a href="/movies/?id=yeijawaanihaideewani.htm">Yeh Jawaani Hai Deewani</a></font></b></td><td><font size="2"><a href="/studio/chart/?studio=eros.htm">Eros</a></font></td><td align="right"><font size="2"><b>$3,827,466</b></font></td><td align="right"><font size="2">161</font></td><td align="right"><font size="2">$1,568,677</font></td><td align="right"><font size="2">161</font></td><td align="right"><font size="2"><a href="/schedule/?view=bydate&release=theatrical&date=2013-05-31&p=.htm">5/31</a></font></td><td align="right"><font size="2">7/21</font></td></tr><tr bgcolor="#f4f4ff"><td align="center"><font size="2">158</font></td><td><b><font size="2"><a href="/movies/?id=todolist.htm">The To-Do List</a></font></b></td><td><font size="2"><a href="/studio/chart/?studio=cbsfilms.htm">CBS</a></font></td><td align="right"><font size="2"><b>$3,491,669</b></font></td><td align="right"><font size="2">591</font></td><td align="right"><font size="2">$1,579,402</font></td><td align="right"><font size="2">591</font></td><td align="right"><font size="2"><a href="/schedule/?view=bydate&release=theatrical&date=2013-07-26&p=.htm">7/26</a></font></td><td align="right"><font size="2">8/15</font></td></tr><tr bgcolor="#ffffff"><td align="center"><font size="2">159</font></td><td><b><font size="2"><a href="/movies/?id=metallica2013.htm">Metallica Through the Never</a></font></b></td><td><font size="2"><a href="/studio/chart/?studio=picturehouse2.htm">PH</a></font></td><td align="right"><font size="2"><b>$3,419,967</b></font></td><td align="right"><font size="2">589</font></td><td align="right"><font size="2">$1,576,561</font></td><td align="right"><font size="2">305</font></td><td align="right"><font size="2"><a href="/schedule/?view=bydate&release=theatrical&date=2013-09-27&p=.htm">9/27</a></font></td><td align="right"><font size="2">10/27</font></td></tr><tr bgcolor="#f4f4ff"><td align="center"><font size="2">160</font></td><td><b><font size="2"><a href="/movies/?id=emperor.htm">Emperor</a></font></b></td><td><font size="2"><a href="/studio/chart/?studio=roadsideattractions.htm">RAtt.</a></font></td><td align="right"><font size="2"><b>$3,346,265</b></font></td><td align="right"><font size="2">311</font></td><td align="right"><font size="2">$1,014,099</font></td><td align="right"><font size="2">260</font></td><td align="right"><font size="2"><a href="/schedule/?view=bydate&release=theatrical&date=2013-03-08&p=.htm">3/8</a></font></td><td align="right"><font size="2">6/13</font></td></tr><tr bgcolor="#ffffff"><td align="center"><font size="2">161</font></td><td><b><font size="2"><a href="/movies/?id=standupguys.htm">Stand Up Guys</a></font></b></td><td><font size="2"><a href="/studio/chart/?studio=lionsgate.htm">LGF</a></font></td><td align="right"><font size="2"><b>$3,310,031</b></font></td><td align="right"><font size="2">670</font></td><td align="right"><font size="2">$1,486,390</font></td><td align="right"><font size="2">659</font></td><td align="right"><font size="2"><a href="/schedule/?view=bydate&release=theatrical&date=2013-02-01&p=.htm">2/1</a></font></td><td align="right"><font size="2">3/7</font></td></tr><tr bgcolor="#f4f4ff"><td align="center"><font size="2">162</font></td><td><b><font size="2"><a href="/movies/?id=fifthestate.htm">The Fifth Estate</a></font></b></td><td><font size="2"><a href="/studio/chart/?studio=buenavista.htm">BV</a></font></td><td align="right"><font size="2"><b>$3,255,008</b></font></td><td align="right"><font size="2">1,769</font></td><td align="right"><font size="2">$1,673,351</font></td><td align="right"><font size="2">1,769</font></td><td align="right"><font size="2"><a href="/schedule/?view=bydate&release=theatrical&date=2013-10-18&p=.htm">10/18</a></font></td><td align="right"><font size="2">12/5</font></td></tr><tr bgcolor="#ffffff"><td align="center"><font size="2">163</font></td><td><b><font size="2"><a href="/movies/?id=topgun3d.htm">Top Gun 3D</a></font></b></td><td><font size="2"><a href="/studio/chart/?studio=paramount.htm">Par.</a></font></td><td align="right"><font size="2"><b>$3,018,873</b></font></td><td align="right"><font size="2">300</font></td><td align="right"><font size="2">$1,965,737</font></td><td align="right"><font size="2">300</font></td><td align="right"><font size="2"><a href="/schedule/?view=bydate&release=theatrical&date=2013-02-08&p=.htm">2/8</a></font></td><td align="right"><font size="2">2/21</font></td></tr><tr bgcolor="#f4f4ff"><td align="center"><font size="2">164</font></td><td><b><font size="2"><a href="/movies/?id=inaworld.htm">In a World</a></font></b></td><td><font size="2"><a href="/studio/chart/?studio=roadsideattractions.htm">RAtt.</a></font></td><td align="right"><font size="2"><b>$2,963,902</b></font></td><td align="right"><font size="2">144</font></td><td align="right"><font size="2">$70,541</font></td><td align="right"><font size="2">3</font></td><td align="right"><font size="2"><a href="/schedule/?view=bydate&release=theatrical&date=2013-08-09&p=.htm">8/9</a></font></td><td align="right"><font size="2">12/5</font></td></tr><tr bgcolor="#ffffff"><td align="center"><font size="2">165</font></td><td><b><font size="2"><a href="/movies/?id=homerun.htm">Home Run</a></font></b></td><td><font size="2"><a href="/studio/chart/?studio=samuelgoldwyn.htm">Gold.</a></font></td><td align="right"><font size="2"><b>$2,861,020</b></font></td><td align="right"><font size="2">381</font></td><td align="right"><font size="2">$1,582,466</font></td><td align="right"><font size="2">381</font></td><td align="right"><font size="2"><a href="/schedule/?view=bydate&release=theatrical&date=2013-04-19&p=.htm">4/19</a></font></td><td align="right"><font size="2">6/13</font></td></tr><tr bgcolor="#f4f4ff"><td align="center"><font size="2">166</font></td><td><b><font size="2"><a href="/movies/?id=greatbeauty.htm">The Great Beauty</a></font></b></td><td><font size="2"><a href="/studio/chart/?studio=janusfilms.htm">Jan.</a></font></td><td align="right"><font size="2"><b>$2,852,400</b></font></td><td align="right"><font size="2">77</font></td><td align="right"><font size="2">$23,442</font></td><td align="right"><font size="2">1</font></td><td align="right"><font size="2"><a href="/schedule/?view=bydate&release=theatrical&date=2013-11-15&p=.htm">11/15</a></font></td><td align="right"><font size="2">4/20</font></td></tr><tr bgcolor="#ffffff"><td align="center"><font size="2">167</font></td><td><b><font size="2"><a href="/movies/?id=fillybrown.htm">Filly Brown</a></font></b></td><td><font size="2"><a href="/studio/chart/?studio=lionsgate.htm">LGF</a></font></td><td align="right"><font size="2"><b>$2,850,357</b></font></td><td align="right"><font size="2">259</font></td><td align="right"><font size="2">$1,478,323</font></td><td align="right"><font size="2">188</font></td><td align="right"><font size="2"><a href="/schedule/?view=bydate&release=theatrical&date=2013-04-19&p=.htm">4/19</a></font></td><td align="right"><font size="2">5/30</font></td></tr><tr bgcolor="#f4f4ff"><td align="center"><font size="2">168</font></td><td><b><font size="2"><a href="/movies/?id=ramleela.htm">Ram-Leela</a></font></b></td><td><font size="2"><a href="/studio/chart/?studio=eros.htm">Eros</a></font></td><td align="right"><font size="2"><b>$2,738,863</b></font></td><td align="right"><font size="2">204</font></td><td align="right"><font size="2">$1,449,174</font></td><td align="right"><font size="2">204</font></td><td align="right"><font size="2"><a href="/schedule/?view=bydate&release=theatrical&date=2013-11-15&p=.htm">11/15</a></font></td><td align="right"><font size="2">12/12</font></td></tr><tr bgcolor="#ffffff"><td align="center"><font size="2">169</font></td><td><b><font size="2"><a href="/movies/?id=graceunplugged.htm">Grace Unplugged</a></font></b></td><td><font size="2"><a href="/studio/chart/?studio=roadsideattractions.htm">RAtt.</a></font></td><td align="right"><font size="2"><b>$2,507,201</b></font></td><td align="right"><font size="2">511</font></td><td align="right"><font size="2">$998,145</font></td><td align="right"><font size="2">511</font></td><td align="right"><font size="2"><a href="/schedule/?view=bydate&release=theatrical&date=2013-10-04&p=.htm">10/4</a></font></td><td align="right"><font size="2">12/5</font></td></tr><tr bgcolor="#f4f4ff"><td align="center"><font size="2">170</font></td><td><b><font size="2"><a href="/movies/?id=sapphires.htm">The Sapphires</a></font></b></td><td><font size="2"><a href="/studio/chart/?studio=weinsteincompany.htm">Wein.</a></font></td><td align="right"><font size="2"><b>$2,450,867</b></font></td><td align="right"><font size="2">126</font></td><td align="right"><font size="2">$38,372</font></td><td align="right"><font size="2">4</font></td><td align="right"><font size="2"><a href="/schedule/?view=bydate&release=theatrical&date=2013-03-22&p=.htm">3/22</a></font></td><td align="right"><font size="2">7/25</font></td></tr><tr bgcolor="#ffffff"><td align="center"><font size="2">171</font></td><td><b><font size="2"><a href="/movies/?id=gatekeepers.htm">The Gatekeepers</a></font></b></td><td><font size="2"><a href="/studio/chart/?studio=sonyclassics.htm">SPC</a></font></td><td align="right"><font size="2"><b>$2,415,727</b></font></td><td align="right"><font size="2">131</font></td><td align="right"><font size="2">$61,552</font></td><td align="right"><font size="2">3</font></td><td align="right"><font size="2"><a href="/schedule/?view=bydate&release=theatrical&date=2013-02-01&p=.htm">2/1</a></font></td><td align="right"><font size="2">6/20</font></td></tr><tr bgcolor="#f4f4ff"><td align="center"><font size="2">172</font></td><td><b><font size="2"><a href="/movies/?id=churchgirl.htm">I\'m In Love With a Church Girl</a></font></b></td><td><font size="2"><a href="/studio/chart/?studio=hightop.htm">HTR</a></font></td><td align="right"><font size="2"><b>$2,387,730</b></font></td><td align="right"><font size="2">458</font></td><td align="right"><font size="2">$971,826</font></td><td align="right"><font size="2">457</font></td><td align="right"><font size="2"><a href="/schedule/?view=bydate&release=theatrical&date=2013-10-18&p=.htm">10/18</a></font></td><td align="right"><font size="2">11/26</font></td></tr><tr bgcolor="#ffffff"><td align="center"><font size="2">173</font></td><td><b><font size="2"><a href="/movies/?id=no2013.htm">No (2013)</a></font></b></td><td><font size="2"><a href="/studio/chart/?studio=sonyclassics.htm">SPC</a></font></td><td align="right"><font size="2"><b>$2,343,664</b></font></td><td align="right"><font size="2">99</font></td><td align="right"><font size="2">$71,742</font></td><td align="right"><font size="2">4</font></td><td align="right"><font size="2"><a href="/schedule/?view=bydate&release=theatrical&date=2013-02-15&p=.htm">2/15</a></font></td><td align="right"><font size="2">6/20</font></td></tr><tr bgcolor="#f4f4ff"><td align="center"><font size="2">174</font></td><td><b><font size="2"><a href="/movies/?id=trance.htm">Trance</a></font></b></td><td><font size="2"><a href="/studio/chart/?studio=foxsearchlight.htm">FoxS</a></font></td><td align="right"><font size="2"><b>$2,328,743</b></font></td><td align="right"><font size="2">443</font></td><td align="right"><font size="2">$131,145</font></td><td align="right"><font size="2">4</font></td><td align="right"><font size="2"><a href="/schedule/?view=bydate&release=theatrical&date=2013-04-05&p=.htm">4/5</a></font></td><td align="right"><font size="2">6/6</font></td></tr><tr bgcolor="#ffffff"><td align="center"><font size="2">175</font></td><td><b><font size="2"><a href="/movies/?id=east.htm">The East</a></font></b></td><td><font size="2"><a href="/studio/chart/?studio=foxsearchlight.htm">FoxS</a></font></td><td align="right"><font size="2"><b>$2,301,839</b></font></td><td align="right"><font size="2">195</font></td><td align="right"><font size="2">$77,031</font></td><td align="right"><font size="2">4</font></td><td align="right"><font size="2"><a href="/schedule/?view=bydate&release=theatrical&date=2013-05-31&p=.htm">5/31</a></font></td><td align="right"><font size="2">8/8</font></td></tr><tr bgcolor="#f4f4ff"><td align="center"><font size="2">176</font></td><td><b><font size="2"><a href="/movies/?id=renoir.htm">Renoir</a></font></b></td><td><font size="2"><a href="/studio/chart/?studio=samuelgoldwyn.htm">Gold.</a></font></td><td align="right"><font size="2"><b>$2,293,798</b></font></td><td align="right"><font size="2">86</font></td><td align="right"><font size="2">$65,194</font></td><td align="right"><font size="2">6</font></td><td align="right"><font size="2"><a href="/schedule/?view=bydate&release=theatrical&date=2013-03-29&p=.htm">3/29</a></font></td><td align="right"><font size="2">9/26</font></td></tr><tr bgcolor="#ffffff"><td align="center"><font size="2">177</font></td><td><b><font size="2"><a href="/movies/?id=christmascandle.htm">The Christmas Candle</a></font></b></td><td><font size="2"><a href="/studio/chart/?studio=echolight.htm">ELS</a></font></td><td align="right"><font size="2"><b>$2,258,620</b></font></td><td align="right"><font size="2">392</font></td><td align="right"><font size="2">$68,655</font></td><td align="right"><font size="2">5</font></td><td align="right"><font size="2"><a href="/schedule/?view=bydate&release=theatrical&date=2013-11-15&p=.htm">11/15</a></font></td><td align="right"><font size="2">1/2</font></td></tr><tr bgcolor="#f4f4ff"><td align="center"><font size="2">178</font></td><td><b><font size="2"><a href="/movies/?id=bluewarm.htm">Blue Is the Warmest Color</a></font></b></td><td><font size="2"><a href="/studio/chart/?studio=ifc.htm">IFC</a></font></td><td align="right"><font size="2"><b>$2,199,787</b></font></td><td align="right"><font size="2">142</font></td><td align="right"><font size="2">$100,316</font></td><td align="right"><font size="2">4</font></td><td align="right"><font size="2"><a href="/schedule/?view=bydate&release=theatrical&date=2013-10-25&p=.htm">10/25</a></font></td><td align="right"><font size="2">3/13</font></td></tr><tr bgcolor="#ffffff"><td align="center"><font size="2">179</font></td><td><b><font size="2"><a href="/movies/?id=oldboy2013.htm">Oldboy (2013)</a></font></b></td><td><font size="2"><a href="/studio/chart/?studio=filmdistrict.htm">FD</a></font></td><td align="right"><font size="2"><b>$2,193,658</b></font></td><td align="right"><font size="2">583</font></td><td align="right"><font size="2">$885,382</font></td><td align="right"><font size="2">583</font></td><td align="right"><font size="2"><a href="/schedule/?view=bydate&release=theatrical&date=2013-11-27&p=.htm">11/27</a></font></td><td align="right"><font size="2">1/2</font></td></tr><tr bgcolor="#f4f4ff"><td align="center"><font size="2">180</font></td><td><b><font size="2"><a href="/movies/?id=krrish3.htm">Krrish 3</a></font></b></td><td><font size="2"><a href="/studio/chart/?studio=eros.htm">Eros</a></font></td><td align="right"><font size="2"><b>$2,191,534</b></font></td><td align="right"><font size="2">208</font></td><td align="right"><font size="2">$1,049,560</font></td><td align="right"><font size="2">208</font></td><td align="right"><font size="2"><a href="/schedule/?view=bydate&release=theatrical&date=2013-11-01&p=.htm">11/1</a></font></td><td align="right"><font size="2">12/5</font></td></tr><tr bgcolor="#ffffff"><td align="center"><font size="2">181</font></td><td><b><font size="2"><a href="/movies/?id=austenland.htm">Austenland</a></font></b></td><td><font size="2"><a href="/studio/chart/?studio=sonyclassics.htm">SPC</a></font></td><td align="right"><font size="2"><b>$2,159,041</b></font></td><td align="right"><font size="2">274</font></td><td align="right"><font size="2">$40,662</font></td><td align="right"><font size="2">4</font></td><td align="right"><font size="2"><a href="/schedule/?view=bydate&release=theatrical&date=2013-08-16&p=.htm">8/16</a></font></td><td align="right"><font size="2">1/2</font></td></tr><tr bgcolor="#f4f4ff"><td align="center"><font size="2">182</font></td><td><b><font size="2"><a href="/movies/?id=saratovapproach.htm">The Saratov Approach</a></font></b></td><td><font size="2"><a href="/studio/chart/?studio=purdie.htm">Purd.</a></font></td><td align="right"><font size="2"><b>$2,146,999</b></font></td><td align="right"><font size="2">84</font></td><td align="right"><font size="2">$137,226</font></td><td align="right"><font size="2">23</font></td><td align="right"><font size="2"><a href="/schedule/?view=bydate&release=theatrical&date=2013-10-09&p=.htm">10/9</a></font></td><td align="right"><font size="2">3/9</font></td></tr><tr bgcolor="#ffffff"><td align="center"><font size="2">183</font></td><td><b><font size="2"><a href="/movies/?id=2013oscar.htm">2013 Oscar Nominated Short Films</a></font></b></td><td><font size="2"><a href="/studio/chart/?studio=shortsinternational.htm">Shrts.</a></font></td><td align="right"><font size="2"><b>$2,142,342</b></font></td><td align="right"><font size="2">266</font></td><td align="right"><font size="2">$371,605</font></td><td align="right"><font size="2">105</font></td><td align="right"><font size="2"><a href="/schedule/?view=bydate&release=theatrical&date=2013-02-01&p=.htm">2/1</a></font></td><td align="right"><font size="2">3/21</font></td></tr><tr bgcolor="#f4f4ff"><td align="center"><font size="2">184</font></td><td><b><font size="2"><a href="/movies/?id=blackfish.htm">Blackfish</a></font></b></td><td><font size="2"><a href="/studio/chart/?studio=magnolia.htm">Magn.</a></font></td><td align="right"><font size="2"><b>$2,073,582</b></font></td><td align="right"><font size="2">99</font></td><td align="right"><font size="2">$75,962</font></td><td align="right"><font size="2">5</font></td><td align="right"><font size="2"><a href="/schedule/?view=bydate&release=theatrical&date=2013-07-19&p=.htm">7/19</a></font></td><td align="right"><font size="2">10/24</font></td></tr><tr bgcolor="#ffffff"><td align="center"><font size="2">185</font></td><td><b><font size="2"><a href="/movies/?id=iceman2013.htm">The Iceman (2013)</a></font></b></td><td><font size="2"><a href="/studio/chart/?studio=millenniumentertainment.htm">MNE</a></font></td><td align="right"><font size="2"><b>$1,969,193</b></font></td><td align="right"><font size="2">258</font></td><td align="right"><font size="2">$87,946</font></td><td align="right"><font size="2">4</font></td><td align="right"><font size="2"><a href="/schedule/?view=bydate&release=theatrical&date=2013-05-03&p=.htm">5/3</a></font></td><td align="right"><font size="2">8/1</font></td></tr><tr bgcolor="#f4f4ff"><td align="center"><font size="2">186</font></td><td><b><font size="2"><a href="/movies/?id=fillthevoid.htm">Fill the Void</a></font></b></td><td><font size="2"><a href="/studio/chart/?studio=sonyclassics.htm">SPC</a></font></td><td align="right"><font size="2"><b>$1,775,316</b></font></td><td align="right"><font size="2">64</font></td><td align="right"><font size="2">$59,164</font></td><td align="right"><font size="2">3</font></td><td align="right"><font size="2"><a href="/schedule/?view=bydate&release=theatrical&date=2013-05-24&p=.htm">5/24</a></font></td><td align="right"><font size="2">10/3</font></td></tr><tr bgcolor="#ffffff"><td align="center"><font size="2">187</font></td><td><b><font size="2"><a href="/movies/?id=girlrising.htm">Girl Rising</a></font></b></td><td><font size="2"><a href="/studio/chart/?studio=gathrfilms.htm">Gathr</a></font></td><td align="right"><font size="2"><b>$1,727,259</b></font></td><td align="right"><font size="2">170</font></td><td align="right"><font size="2">$81,640</font></td><td align="right"><font size="2">34</font></td><td align="right"><font size="2"><a href="/schedule/?view=bydate&release=theatrical&date=2013-03-07&p=.htm">3/7</a></font></td><td align="right"><font size="2">3/20</font></td></tr><tr bgcolor="#f4f4ff"><td align="center"><font size="2">188</font></td><td><b><font size="2"><a href="/movies/?id=attack.htm">The Attack</a></font></b></td><td><font size="2"><a href="/studio/chart/?studio=cohenmedia.htm">Cohen</a></font></td><td align="right"><font size="2"><b>$1,720,325</b></font></td><td align="right"><font size="2">55</font></td><td align="right"><font size="2">$27,379</font></td><td align="right"><font size="2">3</font></td><td align="right"><font size="2"><a href="/schedule/?view=bydate&release=theatrical&date=2013-06-21&p=.htm">6/21</a></font></td><td align="right"><font size="2">10/3</font></td></tr><tr bgcolor="#ffffff"><td align="center"><font size="2">189</font></td><td><b><font size="2"><a href="/movies/?id=stoker.htm">Stoker</a></font></b></td><td><font size="2"><a href="/studio/chart/?studio=foxsearchlight.htm">FoxS</a></font></td><td align="right"><font size="2"><b>$1,714,221</b></font></td><td align="right"><font size="2">275</font></td><td align="right"><font size="2">$160,547</font></td><td align="right"><font size="2">7</font></td><td align="right"><font size="2"><a href="/schedule/?view=bydate&release=theatrical&date=2013-03-01&p=.htm">3/1</a></font></td><td align="right"><font size="2">5/9</font></td></tr><tr bgcolor="#f4f4ff"><td align="center"><font size="2">190</font></td><td><b><font size="2"><a href="/movies/?id=unfinishedsong.htm">Unfinished Song</a></font></b></td><td><font size="2"><a href="/studio/chart/?studio=weinsteincompany.htm">Wein.</a></font></td><td align="right"><font size="2"><b>$1,702,668</b></font></td><td align="right"><font size="2">91</font></td><td align="right"><font size="2">$25,728</font></td><td align="right"><font size="2">2</font></td><td align="right"><font size="2"><a href="/schedule/?view=bydate&release=theatrical&date=2013-06-21&p=.htm">6/21</a></font></td><td align="right"><font size="2">10/3</font></td></tr><tr bgcolor="#ffffff"><td align="center"><font size="2">191</font></td><td><b><font size="2"><a href="/movies/?id=bhaagmilkhabhaag.htm">Bhaag Milkha Bhaag</a></font></b></td><td><font size="2"><a href="/studio/chart/?studio=reliancebigpictures.htm">Relbig.</a></font></td><td align="right"><font size="2"><b>$1,636,731</b></font></td><td align="right"><font size="2">140</font></td><td align="right"><font size="2">$647,112</font></td><td align="right"><font size="2">140</font></td><td align="right"><font size="2"><a href="/schedule/?view=bydate&release=theatrical&date=2013-07-12&p=.htm">7/12</a></font></td><td align="right"><font size="2">8/22</font></td></tr><tr bgcolor="#f4f4ff"><td align="center"><font size="2">192</font></td><td><b><font size="2"><a href="/movies/?id=loveisallyouneed.htm">Love is All You Need</a></font></b></td><td><font size="2"><a href="/studio/chart/?studio=sonyclassics.htm">SPC</a></font></td><td align="right"><font size="2"><b>$1,631,709</b></font></td><td align="right"><font size="2">101</font></td><td align="right"><font size="2">$36,746</font></td><td align="right"><font size="2">4</font></td><td align="right"><font size="2"><a href="/schedule/?view=bydate&release=theatrical&date=2013-05-03&p=.htm">5/3</a></font></td><td align="right"><font size="2">10/3</font></td></tr><tr bgcolor="#ffffff"><td align="center"><font size="2">193</font></td><td><b><font size="2"><a href="/movies/?id=storieswetell.htm">Stories We Tell</a></font></b></td><td><font size="2"><a href="/studio/chart/?studio=roadsideattractions.htm">RAtt.</a></font></td><td align="right"><font size="2"><b>$1,600,145</b></font></td><td align="right"><font size="2">70</font></td><td align="right"><font size="2">$27,053</font></td><td align="right"><font size="2">2</font></td><td align="right"><font size="2"><a href="/schedule/?view=bydate&release=theatrical&date=2013-05-10&p=.htm">5/10</a></font></td><td align="right"><font size="2">10/10</font></td></tr><tr bgcolor="#f4f4ff"><td align="center"><font size="2">194</font></td><td><b><font size="2"><a href="/movies/?id=race2.htm">Race 2</a></font></b></td><td><font size="2"><a href="/studio/chart/?studio=utv.htm">UTV</a></font></td><td align="right"><font size="2"><b>$1,579,940</b></font></td><td align="right"><font size="2">153</font></td><td align="right"><font size="2">$884,757</font></td><td align="right"><font size="2">153</font></td><td align="right"><font size="2"><a href="/schedule/?view=bydate&release=theatrical&date=2013-01-25&p=.htm">1/25</a></font></td><td align="right"><font size="2">2/28</font></td></tr><tr bgcolor="#ffffff"><td align="center"><font size="2">195</font></td><td><b><font size="2"><a href="/movies/?id=blessmeultima.htm">Bless Me Ultima</a></font></b></td><td><font size="2"><a href="/studio/chart/?studio=areans.htm">Aren</a></font></td><td align="right"><font size="2"><b>$1,553,826</b></font></td><td align="right"><font size="2">263</font></td><td align="right"><font size="2">$470,109</font></td><td align="right"><font size="2">263</font></td><td align="right"><font size="2"><a href="/schedule/?view=bydate&release=theatrical&date=2013-02-22&p=.htm">2/22</a></font></td><td align="right"><font size="2">4/11</font></td></tr><tr bgcolor="#f4f4ff"><td align="center"><font size="2">196</font></td><td><b><font size="2"><a href="/movies/?id=kontiki.htm">Kon-Tiki</a></font></b></td><td><font size="2"><a href="/studio/chart/?studio=weinsteincompany.htm">Wein.</a></font></td><td align="right"><font size="2"><b>$1,517,410</b></font></td><td align="right"><font size="2">75</font></td><td align="right"><font size="2">$22,168</font></td><td align="right"><font size="2">2</font></td><td align="right"><font size="2"><a href="/schedule/?view=bydate&release=theatrical&date=2013-04-26&p=.htm">4/26</a></font></td><td align="right"><font size="2">8/8</font></td></tr><tr bgcolor="#ffffff"><td align="center"><font size="2">197</font></td><td><b><font size="2"><a href="/movies/?id=disconnect.htm">Disconnect</a></font></b></td><td><font size="2"><a href="/studio/chart/?studio=lddistribution.htm">LD</a></font></td><td align="right"><font size="2"><b>$1,436,900</b></font></td><td align="right"><font size="2">180</font></td><td align="right"><font size="2">$124,000</font></td><td align="right"><font size="2">15</font></td><td align="right"><font size="2"><a href="/schedule/?view=bydate&release=theatrical&date=2013-04-12&p=.htm">4/12</a></font></td><td align="right"><font size="2">5/23</font></td></tr><tr bgcolor="#f4f4ff"><td align="center"><font size="2">198</font></td><td><b><font size="2"><a href="/movies/?id=girlmostlikely.htm">Girl Most Likely</a></font></b></td><td><font size="2"><a href="/studio/chart/?studio=roadsideattractions.htm">RAtt.</a></font></td><td align="right"><font size="2"><b>$1,378,591</b></font></td><td align="right"><font size="2">351</font></td><td align="right"><font size="2">$694,447</font></td><td align="right"><font size="2">351</font></td><td align="right"><font size="2"><a href="/schedule/?view=bydate&release=theatrical&date=2013-07-19&p=.htm">7/19</a></font></td><td align="right"><font size="2">9/12</font></td></tr><tr bgcolor="#ffffff"><td align="center"><font size="2">199</font></td><td><b><font size="2"><a href="/movies/?id=imsoexcited.htm">I\'m So Excited</a></font></b></td><td><font size="2"><a href="/studio/chart/?studio=sonyclassics.htm">SPC</a></font></td><td align="right"><font size="2"><b>$1,368,119</b></font></td><td align="right"><font size="2">99</font></td><td align="right"><font size="2">$97,328</font></td><td align="right"><font size="2">5</font></td><td align="right"><font size="2"><a href="/schedule/?view=bydate&release=theatrical&date=2013-06-28&p=.htm">6/28</a></font></td><td align="right"><font size="2">11/7</font></td></tr><tr bgcolor="#f4f4ff"><td align="center"><font size="2">200</font></td><td><b><font size="2"><a href="/movies/?id=wadjda.htm">Wadjda (U.S. only)</a></font></b></td><td><font size="2"><a href="/studio/chart/?studio=sonyclassics.htm">SPC</a></font></td><td align="right"><font size="2"><b>$1,347,747</b></font></td><td align="right"><font size="2">87</font></td><td align="right"><font size="2">$41,253</font></td><td align="right"><font size="2">3</font></td><td align="right"><font size="2"><a href="/schedule/?view=bydate&release=theatrical&date=2013-09-13&p=.htm">9/13</a></font></td><td align="right"><font size="2">1/30</font></td></tr><tr bgcolor="#dcdcdc"><td colspan="9" align="center"><font size="2"><b>Summary of 687 Movies on Chart:</b></font></td></tr><tr bgcolor="#f4f4ff"><td align="right" colspan="3"><font size="2"><b>Totals:</b></td><td align="right"><font size="2">$10,952,894,526</font></td><td align="center"><font size="2">-</font></td><td align="center"><font size="2">-</font></td><td align="center"><font size="2">-</font></td><td align="center"><font size="2">-</font></td><td align="center"><font size="2">-</font></td></tr><tr bgcolor="#ffffff"><td align="right" colspan="3"><font size="2"><b>Averages:</b></td><td align="right"><font size="2">$15,943,078</font></td><td align="right"><font size="2">-</font></td><td align="right"><font size="2">-</font></td><td align="right"><font size="2">-</font></td><td align="center"><font size="2">-</font></td><td align="center"><font size="2">-</font></td></tr><tr bgcolor="#dcdcdc"><td colspan="9"><img src="/images/space.gif" width="1" height="1"></td></tr></table></td></tr><tr><td valign="bottom"><font face="Verdana" size="1"><b><a href="/yearly/chart/?yr=2012&view=releasedate&view2=domestic&sort=gross&order=DESC&&p=.htm">&lt; Previous Year</a></b></font></td><td align="center"><table border="0" cellspacing="0" cellpadding="0">\n\t\t\t\t\t<form method="POST" action="yearly.asof.php" name="asofjump">\n\t\t\t\t\t<tr><td><font face="Verdana" size="1"><br>Data as of:\n\t\t\t\t\t<select size="1" name="asof" style="font-size: 8pt">\n\t\t\t\t\t<option selected value="today">Today</option>\n\t\t\t\t\t<option  value="sametime">Today in 2013</option>\n\t\t\t\t\t<option value="2013-01-31">Jan. 31, 2013</option>\n\t\t\t\t\t<option value="2013-02-28">Feb. 28, 2013</option>\n\t\t\t\t\t<option value="2013-03-31">Mar. 31, 2013</option>\n\t\t\t\t\t<option value="2013-04-30">Apr. 30, 2013</option>\n\t\t\t\t\t<option value="2013-05-31">May 31, 2013</option>\n\t\t\t\t\t<option value="2013-06-30">Jun. 30, 2013</option>\n\t\t\t\t\t<option value="2013-07-31">Jul. 31, 2013</option>\n\t\t\t\t\t<option value="2013-08-31">Aug. 31, 2013</option>\n\t\t\t\t\t<option value="2013-09-30">Sep. 30, 2013</option>\n\t\t\t\t\t<option value="2013-10-31">Oct. 31, 2013</option>\n\t\t\t\t\t<option value="2013-11-30">Nov. 30, 2013</option>\n\t\t\t\t\t<option value="2013-12-31">Dec. 31, 2013</option>\n\t\t\t\t\t<option value="specify">Specify Date</option>\n\t\t\t\t\t<option value="about">About this feature</option>\n\t\t\t\t\t</select> or (<select size="1" name="asof_mo" style="font-size: 8pt">\n\t\t\t\t\t<option selected value="">Month</option>\n\t\t\t\t\t\n\t\t\t\t\t<option value="01">Jan.</option>\n\t\t\t\t\t<option value="02">Feb.</option>\n\t\t\t\t\t<option value="03">Mar.</option>\n\t\t\t\t\t<option value="04">Apr.</option>\n\t\t\t\t\t<option value="05">May</option>\n\t\t\t\t\t<option value="06">Jun.</option>\n\t\t\t\t\t<option value="07">Jul.</option>\n\t\t\t\t\t<option value="08">Aug.</option>\n\t\t\t\t\t<option value="09">Sep.</option>\n\t\t\t\t\t<option value="10">Oct.</option>\n\t\t\t\t\t<option value="11">Nov.</option>\n\t\t\t\t\t<option value="12">Dec.</option>\n\t\t\t\t\t</select> / <select size="1" name="asof_day" style="font-size: 8pt">\n\t\t\t\t\t<option selected value="">Day</option>\n\t\t\t\t\t<option value="01">1</option>\n\t\t\t\t\t<option value="02">2</option>\n\t\t\t\t\t<option value="03">3</option>\n\t\t\t\t\t<option value="04">4</option>\n\t\t\t\t\t<option value="05">5</option>\n\t\t\t\t\t<option value="06">6</option>\n\t\t\t\t\t<option value="07">7</option>\n\t\t\t\t\t<option value="08">8</option>\n\t\t\t\t\t<option value="09">9</option>\n\t\t\t\t\t<option value="10">10</option>\n\t\t\t\t\t<option value="11">11</option>\n\t\t\t\t\t<option value="12">12</option>\n\t\t\t\t\t<option value="13">13</option>\n\t\t\t\t\t<option value="14">14</option>\n\t\t\t\t\t<option value="15">15</option>\n\t\t\t\t\t<option value="16">16</option>\n\t\t\t\t\t<option value="17">17</option>\n\t\t\t\t\t<option value="18">18</option>\n\t\t\t\t\t<option value="19">19</option>\n\t\t\t\t\t<option value="20">20</option>\n\t\t\t\t\t<option value="21">21</option>\n\t\t\t\t\t<option value="22">22</option>\n\t\t\t\t\t<option value="23">23</option>\n\t\t\t\t\t<option value="24">24</option>\n\t\t\t\t\t<option value="25">25</option>\n\t\t\t\t\t<option value="26">26</option>\n\t\t\t\t\t<option value="27">27</option>\n\t\t\t\t\t<option value="28">28</option>\n\t\t\t\t\t<option value="29">29</option>\n\t\t\t\t\t<option value="30">30</option>\n\t\t\t\t\t<option value="31">31</option>\n\t\t\t\t\t</select> / <select size="1" name="asof_yr" style="font-size: 8pt">\n\t\t\t\t\t\t<option selected>2013</option>\n\t\t\t\t\t\t<option>2014</option>\n\t\t\t\t\t\t</select>) <input type="submit" value="Go" name="go" style="font-size: 8pt; height: 16">\n\t\t\t\t\t</font></td></tr>\n\t\t\t\t\t<input type="hidden" name="jumpstuff" value="view=releasedate&view2=domestic&yr=2013&sort=gross&order=DESC&p=.htm">\n\t\t\t\t\t<input type="hidden" name="curasof" value="today">\n\t\t\t\t\t<input type="hidden" name="yr" value="2013">\n\t\t\t\t\t</form>\n\t\t\t\t\t</table>\n\t\t\t\t</font></td><td valign="bottom" align="right"><font face="Verdana" size="1"><b><a href="/yearly/chart/?yr=2014&view=releasedate&view2=domestic&sort=gross&order=DESC&&p=.htm">Next Year &gt;</a></b></font></td></tr></table><center><font face="Verdana" size="4"><b><a href="/yearly/chart/?page=1&view=releasedate&view2=domestic&yr=2013&p=.htm">#1&#150;100</a> - <font face="Verdana" size="5">#101&#150;200</font> - <a href="/yearly/chart/?page=3&view=releasedate&view2=domestic&yr=2013&p=.htm">#201&#150;300</a> - <a href="/yearly/chart/?page=4&view=releasedate&view2=domestic&yr=2013&p=.htm">#301&#150;400</a> - <a href="/yearly/chart/?page=5&view=releasedate&view2=domestic&yr=2013&p=.htm">#401&#150;500</a> - <a href="/yearly/chart/?page=6&view=releasedate&view2=domestic&yr=2013&p=.htm">#501&#150;600</a> - <a href="/yearly/chart/?page=7&view=releasedate&view2=domestic&yr=2013&p=.htm">#601&#150;687</a></b></font></center><br><font face="Verdana" size="2">Note: <b>RELEASE DATE</b> shows all movies that opened in a given time period and their total grosses. <b>WIDE RELEASES</b> shows only movies released in 600 or more theaters and their total grosses, grouped by wide release date. <b>LIMITED RELEASES</b> shows only movies released in less than 600 theaters and their total grosses, grouped by release date. <b>CALENDAR GROSSES</b> shows all movies playing during the indicated time period, both new and holdover, and their grosses (or estimated grosses) during that time period. Movies released outside the indicated time period are shown in italics. <b><a href="/about/boxoffice.htm">Click here for a full explanation of the various box office sections</a></b></font><br><br>\n<P ALIGN="CENTER"><A HREF="/yearly/"><FONT FACE="Verdana" SIZE=2><b>back to<br>Yearly Index Page</b></FONT></A></P>\n<br>\n</td><td valign="top" align="center" width="160"><br><br><br><br><br><br><!-- begin ad tag (tile=2) -->\r\n<script type="text/javascript">\r\n//<![CDATA[\r\nord=1057291112;\r\ndocument.write(\'<iframe src="http://ad.doubleclick.net/N4215/adi/imdb2.bom.other/;p=rh;tile=2;sz=160x600,120x600,115x600;oe=ISO-8859-1;ord=\' + ord + \'?" width="160" height="600" marginwidth="0" marginheight="0" frameborder="0" scrolling="no">\');\r\n\r\nif (navigator.userAgent.indexOf("Gecko")==-1)\r\n{\r\ndocument.write(\'<script type="text/javascript" src="http://ad.doubleclick.net/N4215/adj/imdb2.bom.other/;p=rh;tile=2;sz=160x600,115x600;abr=!ie;oe=ISO-8859-1;ord=\' + ord + \'?"><\\/script>\');\r\n}\r\ndocument.write(\'</iframe>\');\r\n//]]>\r\n</script>\r\n<noscript><a href="http://ad.doubleclick.net/N4215/jump/imdb2.bom.other/;p=rh;tile=2;sz=160x600;oe=ISO-8859-1;ord=1057291112?" target="_blank" ><img src="http://ad.doubleclick.net/N4215/ad/imdb2.bom.other/;p=rh;tile=2;sz=160x600,115x600;oe=ISO-8859-1;ord=1057291112?" border="0" alt="" /></a></noscript>\r\n<!-- end ad tag --></td></tr></table><table border="0" width="100%" cellspacing="0" cellpadding="3">\n\t<tr>\n\t\t<td bgcolor="#FFFFFF" align="center"><b><font face="Verdana" size="1"><a href="/yearly/chart/?view=releasedate&view2=domestic&page=2&yr=2013&p=.htm">ALL RELEASES</a></font></b></td>\n\t\t<td bgcolor="#DCDCDC" align="center"><b><font face="Verdana" size="1"><a href="/yearly/chart/?view=widedate&view2=domestic&page=2&yr=2013&p=.htm">WIDE RELEASES</font></b></td>\n\t\t<td bgcolor="#DCDCDC" align="center"><b><font face="Verdana" size="1"><a href="/yearly/chart/?view=limited&view2=domestic&page=2&yr=2013&p=.htm">LIMITED RELEASES</font></b></td>\n\t\t\t\t<td bgcolor="#DCDCDC" align="center"><b><font face="Verdana" size="1"><a href="/yearly/chart/?view=calendargross&view2=domestic&page=2&yr=2013&p=.htm">CALENDAR GROSSES</font></b></td>\n\t\t\t</tr>\n</table>\n<table border="0" cellspacing="0" cellpadding="0" width="100%">\n  <tr><td bgcolor="#8b0000" height="1" colspan="2"><img src="/images/space.gif" border="0" width="1" height="5"></td></tr>\n</table>\n\n</td></tr></table>\n\n\t</div>\n\t</div>\n\t<div id="hp_footer">\n\t\t<div style="padding-bottom: 20px;">\n\n\t\t\t<div style="margin: 0px 121px; vertical-align: top;">\n\t\t\t\t<div id="footer_links">\n\t\t\t\t\t<ul class="footer_link_list">\n\t\t\t\t\t\t<li><strong>Latest Updates</strong></li>\n\t\t\t\t\t\t<li><a href="/news/?ref=ft">Movie News</a>\n\t\t\t\t\t\t<li><a href="/daily/chart/?ref=ft">Daily Chart</a></li>\n\t\t\t\t\t\t<li><a href="/weekend/chart/?ref=ft">Weekend Chart</a></li>\n\t\t\t\t\t\t<li><a href="/alltime/?ref=ft">All Time Charts</a></li>\n\t\t\t\t\t\t<li><a href="/intl/?ref=ft">International Charts</a></li>\n\t\t\t\t\t</ul>\n\t\t\t\t\t<!--\n\t\t\t\t\t<ul class="footer_link_list">\n\t\t\t\t\t\t<li><strong>Popular Movies</strong></li>\n\t\t\t\t\t\t\t\t\t\t\t</ul>\n\t\t\t\t\t-->\n\t\t\t\t\t<ul class="footer_link_list">\n\t\t\t\t\t\t<li><strong>Indices</strong></li>\n\t\t\t\t\t\t<li><a href="/movies/?ref=ft">Movies A-Z</a></li>\n\t\t\t\t\t\t<li><a href="/people/?ref=ft">People</a></li>\n\t\t\t\t\t\t<li><a href="/genres/?ref=ft">Genres</a></li>\n\t\t\t\t\t\t<li><a href="/franchises/?ref=ft">Franchises</a></li>\n\t\t\t\t\t\t<li><a href="/showdowns/?ref=ft">Showdowns</a></li>\n\t\t\t\t\t</ul>\n\t\t\t\t\t<ul class="footer_link_list">\n\t\t\t\t\t\t<li><strong>Other</strong></li>\n\t\t\t\t\t\t<li><a href="/about/?ref=ft">About This Site</a></li>\n\t\t\t\t\t\t<li><a href="/about/advertise.htm?ref=ft">Advertising</a></li>\n\t\t\t\t\t\t<li><a href="/users/?ref=ft">My Account</a></li>\n\t\t\t\t\t\t<li><a href="/about/rss.htm?ref=ft">RSS Feeds</a></li>\n\t\t\t\t\t</ul>\n\t\t\t\t</div>\n\t\t\t\t<div id="copyright">\n\t\t\t\t\t<a href="/?ref=ft"><img src="/img/misc/bom_logo1.png" width="245" height="56" alt="Box Office Mojo"></a><br>\n\t\t\t\t\t<p>An <a href="http://imdb.com/"><img src="/img/misc/IMDbSm.png" width="34" height="16" alt="IMDb" valign="middle"></a> company<br><br></p>\n\t\t\t\t\t<p>&copy; <a href="http://imdb.com/">IMDb.com</a>, Inc. or its affiliates. All rights reserved. Box Office Mojo and IMDb are trademarks or registered trademarks of IMDb.com, Inc. or its affiliates. <a href="/about/termsofuse.htm">Terms of Use</a> and <a href="/about/privacy.htm">Privacy Policy</a> under which this service is provided to you.</p>\n\t\t\t\t\t</div>\t\t\t\n\t\t\t\t</div>\n\t\t\t\t<div style="clear:both;">\n\t\t\t\t<div>\n\t\t\t\t <!-- begin ad tag (tile=6) -->\r\n<script type="text/javascript">\r\n//<![CDATA[\r\nord=1057291112;\r\ndocument.write(\'<iframe src="http://ad.doubleclick.net/N4215/adi/imdb2.bom.other/;p=b;tile=3;sz=728x90;oe=ISO-8859-1;ord=\' + ord + \'?" width="728" height="90" marginwidth="0" marginheight="0" frameborder="0" scrolling="no">\');\r\n\r\nif (navigator.userAgent.indexOf("Gecko")==-1)\r\n{\r\ndocument.write(\'<script type="text/javascript" src="http://ad.doubleclick.net/N4215/adj/imdb2.bom.other/;p=b;tile=3;sz=728x90;abr=!ie;oe=ISO-8859-1;ord=\' + ord + \'?"><\\/script>\');\r\n}\r\ndocument.write(\'<\\/iframe>\');\r\n//]]>\r\n</script>\r\n<noscript><a href="http://ad.doubleclick.net/N4215/jump/imdb2.bom.other/;p=b;tile=3;sz=728x90;oe=ISO-8859-1;ord=1057291112?" target="_blank" ><img src="http://ad.doubleclick.net/N4215/ad/imdb2.bom.other/;p=b;tile=3;sz=728x90;oe=ISO-8859-1;ord=1057291112?" border="0" alt="" ></a></noscript>\r\n<!-- end ad tag --></div>\n\n\t\t\t\t</div>\n\t</div>\n</div>\n\n\n\n\n\n<!-- Page generated in 0.12 seconds | . -->\n<script>\n  var _comscore = _comscore || [];\n  _comscore.push({ c1: "2", c2: "6034961" });\n  (function() {\n    var s = document.createElement("script"), el = document.getElementsByTagName("script")[0]; s.async = true;\n    s.src = (document.location.protocol == "https:" ? "https://sb" : "http://b") + ".scorecardresearch.com/beacon.js";\n  el.parentNode.insertBefore(s, el);\n  })();\n</script>\n<noscript>\n    <img src="http://b.scorecardresearch.com/p?c1=2&c2=6034961&cv=2.0&cj=1" />\n</noscript>\n\n</body>\n</html>\n'
p30
sS'encoding'
p31
S'ISO-8859-1'
p32
sS'url'
p33
Vhttp://www.boxofficemojo.com/yearly/chart/?page=2&view=releasedate&view2=domestic&yr=2013&p=.htm
p34
sS'status_code'
p35
I200
sS'request'
p36
g0
(crequests.models
PreparedRequest
p37
g2
Ntp38
Rp39
(dp40
S'body'
p41
Nsg33
S'http://www.boxofficemojo.com/yearly/chart/?page=2&view=releasedate&view2=domestic&yr=2013&p=.htm'
p42
sS'hooks'
p43
(dp44
S'response'
p45
(lp46
ssS'headers'
p47
g0
(crequests.structures
CaseInsensitiveDict
p48
g2
Ntp49
Rp50
(dp51
S'_store'
p52
(dp53
S'connection'
p54
(S'Connection'
p55
S'keep-alive'
p56
tp57
sS'accept-encoding'
p58
(S'Accept-Encoding'
p59
S'gzip, deflate'
p60
tp61
sS'accept'
p62
(S'Accept'
p63
S'*/*'
p64
tp65
sS'user-agent'
p66
(S'User-Agent'
p67
S'python-requests/2.7.0 CPython/2.7.10 Darwin/14.5.0'
p68
tp69
ssbsg27
g0
(g7
g2
Ntp70
Rp71
(dp72
g11
I1444069023
sg12
(icookielib
DefaultCookiePolicy
p73
(dp74
g15
I01
sg16
I0
sg17
Nsg18
Nsg19
I00
sg20
I00
sg11
I1444069023
sg21
I00
sg22
I00
sg23
I00
sg24
I00
sg25
(tsg26
I01
sbsg27
(dp75
sbsS'method'
p76
S'GET'
p77
sbsS'elapsed'
p78
cdatetime
timedelta
p79
(I0
I0
I585467
tp80
Rp81
sg47
g0
(g48
g2
Ntp82
Rp83
(dp84
g52
(dp85
S'content-length'
p86
(S'content-length'
p87
S'18581'
p88
tp89
sS'x-xss-protection'
p90
(S'x-xss-protection'
p91
S'1; mode=block'
p92
tp93
sS'x-content-type-options'
p94
(S'x-content-type-options'
p95
S'nosniff'
p96
tp97
sS'content-encoding'
p98
(S'content-encoding'
p99
S'gzip'
p100
tp101
sS'expires'
p102
(S'expires'
p103
S'Thu, 19 Nov 1981 08:52:00 GMT'
p104
tp105
sS'server'
p106
(S'server'
p107
S'Server'
p108
tp109
sS'connection'
p110
(S'connection'
p111
S'keep-alive'
p112
tp113
sS'x-permitted-cross-domain-policies'
p114
(S'x-permitted-cross-domain-policies'
p115
S'master-only'
p116
tp117
sS'pragma'
p118
(S'pragma'
p119
S'no-cache'
p120
tp121
sS'cache-control'
p122
(S'cache-control'
p123
S'no-store, no-cache, must-revalidate, post-check=0, pre-check=0'
p124
tp125
sS'date'
p126
(S'date'
p127
S'Mon, 05 Oct 2015 18:21:39 GMT'
p128
tp129
sS'x-frame-options'
p130
(S'x-frame-options'
p131
S'SAMEORIGIN'
p132
tp133
sS'content-type'
p134
(S'content-type'
p135
S'text/html'
p136
tp137
ssbsS'reason'
p138
S'OK'
p139
sS'history'
p140
(lp141
sb.