ccopy_reg
_reconstructor
p0
(crequests.models
Response
p1
c__builtin__
object
p2
Ntp3
Rp4
(dp5
S'cookies'
p6
g0
(crequests.cookies
RequestsCookieJar
p7
g2
Ntp8
Rp9
(dp10
S'_now'
p11
I1444069025
sS'_policy'
p12
(icookielib
DefaultCookiePolicy
p13
(dp14
S'strict_rfc2965_unverifiable'
p15
I01
sS'strict_ns_domain'
p16
I0
sS'_allowed_domains'
p17
NsS'rfc2109_as_netscape'
p18
NsS'rfc2965'
p19
I00
sS'strict_domain'
p20
I00
sg11
I1444069025
sS'strict_ns_set_path'
p21
I00
sS'strict_ns_unverifiable'
p22
I00
sS'strict_ns_set_initial_dollar'
p23
I00
sS'hide_cookie2'
p24
I00
sS'_blocked_domains'
p25
(tsS'netscape'
p26
I01
sbsS'_cookies'
p27
(dp28
sbsS'_content'
p29
S'<!DOCTYPE html PUBLIC "-//W3C//DTD HTML 4.01 Transitional//EN" "http://www.w3.org/TR/html4/loose.dtd">\n<html lang="en">\n<HEAD>\n<TITLE>2011 Yearly Box Office Results - Box Office Mojo</TITLE>\n<META NAME="keywords" CONTENT="2011, year, yearly, box, office, result, list, movie, movies, listing, listings, top movies, all time, film">\n<META NAME="description" CONTENT="Yearly box office results for 2011.">\n<link rel="stylesheet" href="/css/mojo.css?1" type="text/css" media="screen" title="no title" charset="utf-8">\n<link rel="stylesheet" href="/css/mojo.css?1" type="text/css" media="print" title="no title" charset="utf-8"></head>\n<body>\n\t<iframe id="sis_pixel_sitewide" width="1" height="1" frameborder="0" marginwidth="0" marginheight="0" style="display: none;"></iframe>\n<script>\n    setTimeout(function(){\n        try{\n            //sis3.0 pixel\n            var cacheBust = Math.random() * 10000000000000000,\n                url_sis3 = \'http://s.amazon-adsystem.com/iu3?\',\n                params_sis3 = [\n                    "d=boxofficemojo.com",\n                    "cb=" + cacheBust\n                ];\n\n            (document.getElementById(\'sis_pixel_sitewide\')).src = url_sis3 + params_sis3.join(\'&\');\n        }catch(e){\n            if (window.ueLogError) { \n                window.ueLogError(e);\n            }\n        }\n    }, 5);\n</script>\n\n<div id="container">\n<div>\n<!-- GOOGLE ANALYTICS CODE STARTS -->\n<script type="text/javascript">\n\n  var _gaq = _gaq || [];\n  _gaq.push([\'_setAccount\', \'UA-2831726-1\']);\n  _gaq.push([\'_trackPageview\']);\n\n  (function() {\n    var ga = document.createElement(\'script\'); ga.type = \'text/javascript\'; ga.async = true;\n    ga.src = (\'https:\' == document.location.protocol ? \'https://ssl\' : \'http://www\') + \'.google-analytics.com/ga.js\';\n    (document.getElementsByTagName(\'head\')[0] || document.getElementsByTagName(\'body\')[0]).appendChild(ga);\n  })();\n\n</script>\n<!-- GOOGLE ANALYTICS CODE ENDS -->\n\t<div id="hp_banner">\n\t<div id="top_links">\n\t\t<div style="float: left"><a href="/daily/chart/">Daily Box Office (Sun.)</a> | <a href="/weekend/chart/">Weekend Box Office (Oct. 2&ndash;4)</a> | <a href="/movies/?id=scott2016.htm">#1 Movie: \'The Martian\'</a> | <a href="http://www.imdb.com/showtimes/?ref_=mojo">Showtimes</a></div>\n\t\t<div style="float: right">Updated 10/4/2015 7:11 P.M. Pacific Time</div>\n\t\t<div style="clear:both; height: 0px"></div>\n\t</div>\n</div>\n\t\t\n<div id="header">\n\t<div id="leaderboard"><!-- begin ad tag (tile=1) -->\r\n<script type="text/javascript">\r\n//<![CDATA[\r\nord=1779486859;\r\ndocument.write(\'<iframe src="http://ad.doubleclick.net/N4215/adi/imdb2.bom.other/;p=t;tile=1;sz=728x90;oe=ISO-8859-1;ord=\' + ord + \'?" width="728" height="90" marginwidth="0" marginheight="0" frameborder="0" scrolling="no">\');\r\n\r\nif (navigator.userAgent.indexOf("Gecko")==-1)\r\n{\r\ndocument.write(\'<script type="text/javascript" src="http://ad.doubleclick.net/N4215/adj/imdb2.bom.other/;p=t;tile=1;sz=728x90;abr=!ie;oe=ISO-8859-1;ord=\' + ord + \'?"><\\/script>\');\r\n}\r\ndocument.write(\'<\\/iframe>\');\r\n//]]>\r\n</script>\r\n<noscript><a href="http://ad.doubleclick.net/N4215/jump/imdb2.bom.other/;p=t;tile=1;sz=728x90;oe=ISO-8859-1;ord=1779486859?" target="_blank" ><img src="http://ad.doubleclick.net/N4215/ad/imdb2.bom.other/;p=t;tile=1;sz=728x90;oe=ISO-8859-1;ord=1779486859?" border="0" alt="" ></a></noscript>\r\n<!-- end ad tag --></div>\t<div id="hp_logo"><a href="/"><img src="/img/misc/bom_logo1.png" width="245" height="56" alt="Box Office Mojo"></a></div>\n\t<div style="clear:both; height: 0px"></div>\n</div>\n\n\n</div>\n\n\n<div id="main">\n<!-- COLUMN 1 of 4 -->\n\t<div id="leftnav">\n<!-- google_ad_section_start(weight=ignore) -->\n<!-- <table id="navleft" cellspacing="0" cellpadding="2" border="0"> -->\n<ul id="leftnav">\n<li class="nl_section">Search Site</li>\n<li class="nl_link" style="padding-left:0px">\n\t<form name="searchbox" method="POST" action="/search/q.php">\n\t<input name="q"  type="text" style="font-size: 9 pt; font-weight: bold; width: 90px;"><br>\n\t<input type="submit" value="Search..." ></form> \n</li>\n<li class=\'nl_section\'>Social</li>\n<li class="nl_link"><a href="http://facebook.com/boxofficemojo" style="vertical-align:middle;"><img src="/images/FaceBook_16x16.png" border="0" alt="Facebook Logo">Facebook</a></li>\n<li class="nl_link"><a href="http://twitter.com/boxofficemojo" style="vertical-align:middle;"><img src="/images/Twitter_16x16.png" border="0" alt="Twitter Logo">Twitter</a></li>\n\n<li class=\'nl_section\'>Features</li>\n<li class=\'nl_link\'><a href="/news/">News</a></li>\n<li class=\'nl_link\'><a href="/schedule/">Release Sched.</a></li>\n<li class=\'nl_link\'><a href="http://www.imdb.com/showtimes?ref_=mojo">Showtimes<br/><span style="margin-left:7px;color: #999999; font-size: 9px;">at <img src="/images/mojo_imdb_sm.png"/></span></a></li>\n<li class=\'nl_section\'>Box Office</li>\n<li class=\'nl_link\'><a href="/daily/">Daily</a></li>\n<li class=\'nl_link\'><a href="/weekend/">Weekend</a></li>\n<li class=\'nl_link\'><a href="/weekly/">Weekly</a></li>\n<li class=\'nl_link\'><a href="/monthly/">Monthly</a></li>\n<li class=\'nl_link\'><a href="/quarterly/">Quarterly</a></li>\n<li class=\'nl_link\'><a href="/seasonal/">Seasonal</a></li>\n<li class=\'nl_link_current\'><a href="/yearly/">Yearly</a></li>\n<li class=\'nl_link\'><a href="/alltime/">All Time</a></li>\n<li class=\'nl_link\'><a href="/chartwatch/">Chart Watch</a></li>\n<li class=\'nl_link\'><a href="/intl/">International</a></li>\n<li class=\'nl_section\'>Indices</li>\n<li class=\'nl_link\'><a href="/movies/">Movies A-Z</a></li>\n<li class=\'nl_link\'><a href="/studio/">Studios</a></li>\n<li class=\'nl_link\'><a href="/people/">People</a></li>\n<li class=\'nl_link\'><a href="/genres/">Genres</a></li>\n<li class=\'nl_link\'><a href="/franchises/">Franchises</a></li>\n<li class=\'nl_link\'><a href="/showdowns/">Showdowns</a></li>\n<li class=\'nl_link\'><a href="/oscar/">Oscar</a></li>\n<li class=\'nl_link\'><a href="/counts/">Theater Counts</a></li>\n</ul>\n</div>\n\t<div id="body">\n\t<div id="addthis"><table border="0" cellspacing="0" cellpadding="0">\r\n<tr>\r\n<form method="POST" action="/adjuster.php" name="adjuster">\r\n<input type="hidden" name="returnURL" value="/yearly/chart/?page=2&amp;view=releasedate&amp;view2=domestic&amp;yr=2011&amp;p=.htm">\r\n<td valign="center">\r\n  <font face="Verdana" size="2"><a href="/about/adjuster.htm"><b>Adjuster:</b></a></font>\r\n  <select size="1" name="ticketyr" style="font-family: Verdana; font-size: 10pt">\r\n  <option value="0" selected>Actuals</option>\r\n  <option value="1" >Est. Tckts</option>\r\n<script language="javascript">\r\n  for(i=2015; i>=1933; i--) {\r\n  \tdocument.write(\'<option value="\' + i + \'"\');\r\n\tif(i==\'0\') document.write(\' selected\');\r\n\tdocument.write(\'>\' + i );\r\n\tif(i==\'0\') document.write(\', $\' + \'0.00\');\r\n\tdocument.write(\'</option>\');\r\n  }\r\n</script>\r\n  <option value="1929" >1929</option>\r\n  <option value="1924" >1924</option>\r\n  <option value="1910" >1910</option>\r\n  </select><input type="submit" name="Go" value="Go" style="font-size: 10pt; height: 22">\r\n\r\n</td></form></tr></table>\r\n\r\n</div>\t\n\t<h2><a href="/yearly/">Yearly Box Office</a></h2>\n\n\t<table border="0" cellpadding="0" cellspacing="0" width="100%">\n\t\t<tr><td bgcolor="#8b0000" colspan="2"><img src="/images/space.gif" border="0" width="1" height="5"></td></tr>\n\t</table>\n\t\n<table border="0" width="100%" cellspacing="0" cellpadding="3">\n\t<tr>\n\t\t<td bgcolor="#FFFFFF" align="center"><b><font face="Verdana" size="1"><a href="/yearly/chart/?view=releasedate&view2=domestic&page=2&yr=2011&p=.htm">ALL RELEASES</a></font></b></td>\n\t\t<td bgcolor="#DCDCDC" align="center"><b><font face="Verdana" size="1"><a href="/yearly/chart/?view=widedate&view2=domestic&page=2&yr=2011&p=.htm">WIDE RELEASES</font></b></td>\n\t\t<td bgcolor="#DCDCDC" align="center"><b><font face="Verdana" size="1"><a href="/yearly/chart/?view=limited&view2=domestic&page=2&yr=2011&p=.htm">LIMITED RELEASES</font></b></td>\n\t\t\t\t<td bgcolor="#DCDCDC" align="center"><b><font face="Verdana" size="1"><a href="/yearly/chart/?view=calendargross&view2=domestic&page=2&yr=2011&p=.htm">CALENDAR GROSSES</font></b></td>\n\t\t\t</tr>\n</table>\n<table border="0" cellspacing="0" cellpadding="0" width="100%"><tr><td valign="top" align="center"><br>\n<h1>2011 DOMESTIC GROSSES</h1><p>Total Grosses of all Movies Released in 2011</h1></b></FONT></p>\n\n<center><font face="Verdana" size="4"><b><a href="/yearly/chart/?page=1&view=releasedate&view2=domestic&yr=2011&p=.htm">#1&#150;100</a> - <font face="Verdana" size="5">#101&#150;200</font> - <a href="/yearly/chart/?page=3&view=releasedate&view2=domestic&yr=2011&p=.htm">#201&#150;300</a> - <a href="/yearly/chart/?page=4&view=releasedate&view2=domestic&yr=2011&p=.htm">#301&#150;400</a> - <a href="/yearly/chart/?page=5&view=releasedate&view2=domestic&yr=2011&p=.htm">#401&#150;500</a> - <a href="/yearly/chart/?page=6&view=releasedate&view2=domestic&yr=2011&p=.htm">#501&#150;600</a> - <a href="/yearly/chart/?page=7&view=releasedate&view2=domestic&yr=2011&p=.htm">#601&#150;602</a></b></font></center><table border="0" cellspacing="0" cellpadding="0"><tr><td valign="bottom"><font face="Verdana" size="1"><b><a href="/yearly/chart/?yr=2010&view=releasedate&view2=domestic&sort=gross&order=DESC&&p=.htm">&lt; Previous Year</a></b></font></td><td align="center"><table border="0" cellspacing="0" cellpadding="0">\n\t\t\t\t\t<form method="POST" action="yearly.asof.php" name="asofjump">\n\t\t\t\t\t<tr><td><font face="Verdana" size="1"><br>Data as of:\n\t\t\t\t\t<select size="1" name="asof" style="font-size: 8pt">\n\t\t\t\t\t<option selected value="today">Today</option>\n\t\t\t\t\t<option  value="sametime">Today in 2011</option>\n\t\t\t\t\t<option value="2011-01-31">Jan. 31, 2011</option>\n\t\t\t\t\t<option value="2011-02-28">Feb. 28, 2011</option>\n\t\t\t\t\t<option value="2011-03-31">Mar. 31, 2011</option>\n\t\t\t\t\t<option value="2011-04-30">Apr. 30, 2011</option>\n\t\t\t\t\t<option value="2011-05-31">May 31, 2011</option>\n\t\t\t\t\t<option value="2011-06-30">Jun. 30, 2011</option>\n\t\t\t\t\t<option value="2011-07-31">Jul. 31, 2011</option>\n\t\t\t\t\t<option value="2011-08-31">Aug. 31, 2011</option>\n\t\t\t\t\t<option value="2011-09-30">Sep. 30, 2011</option>\n\t\t\t\t\t<option value="2011-10-31">Oct. 31, 2011</option>\n\t\t\t\t\t<option value="2011-11-30">Nov. 30, 2011</option>\n\t\t\t\t\t<option value="2011-12-31">Dec. 31, 2011</option>\n\t\t\t\t\t<option value="specify">Specify Date</option>\n\t\t\t\t\t<option value="about">About this feature</option>\n\t\t\t\t\t</select> or (<select size="1" name="asof_mo" style="font-size: 8pt">\n\t\t\t\t\t<option selected value="">Month</option>\n\t\t\t\t\t\n\t\t\t\t\t<option value="01">Jan.</option>\n\t\t\t\t\t<option value="02">Feb.</option>\n\t\t\t\t\t<option value="03">Mar.</option>\n\t\t\t\t\t<option value="04">Apr.</option>\n\t\t\t\t\t<option value="05">May</option>\n\t\t\t\t\t<option value="06">Jun.</option>\n\t\t\t\t\t<option value="07">Jul.</option>\n\t\t\t\t\t<option value="08">Aug.</option>\n\t\t\t\t\t<option value="09">Sep.</option>\n\t\t\t\t\t<option value="10">Oct.</option>\n\t\t\t\t\t<option value="11">Nov.</option>\n\t\t\t\t\t<option value="12">Dec.</option>\n\t\t\t\t\t</select> / <select size="1" name="asof_day" style="font-size: 8pt">\n\t\t\t\t\t<option selected value="">Day</option>\n\t\t\t\t\t<option value="01">1</option>\n\t\t\t\t\t<option value="02">2</option>\n\t\t\t\t\t<option value="03">3</option>\n\t\t\t\t\t<option value="04">4</option>\n\t\t\t\t\t<option value="05">5</option>\n\t\t\t\t\t<option value="06">6</option>\n\t\t\t\t\t<option value="07">7</option>\n\t\t\t\t\t<option value="08">8</option>\n\t\t\t\t\t<option value="09">9</option>\n\t\t\t\t\t<option value="10">10</option>\n\t\t\t\t\t<option value="11">11</option>\n\t\t\t\t\t<option value="12">12</option>\n\t\t\t\t\t<option value="13">13</option>\n\t\t\t\t\t<option value="14">14</option>\n\t\t\t\t\t<option value="15">15</option>\n\t\t\t\t\t<option value="16">16</option>\n\t\t\t\t\t<option value="17">17</option>\n\t\t\t\t\t<option value="18">18</option>\n\t\t\t\t\t<option value="19">19</option>\n\t\t\t\t\t<option value="20">20</option>\n\t\t\t\t\t<option value="21">21</option>\n\t\t\t\t\t<option value="22">22</option>\n\t\t\t\t\t<option value="23">23</option>\n\t\t\t\t\t<option value="24">24</option>\n\t\t\t\t\t<option value="25">25</option>\n\t\t\t\t\t<option value="26">26</option>\n\t\t\t\t\t<option value="27">27</option>\n\t\t\t\t\t<option value="28">28</option>\n\t\t\t\t\t<option value="29">29</option>\n\t\t\t\t\t<option value="30">30</option>\n\t\t\t\t\t<option value="31">31</option>\n\t\t\t\t\t</select> / <select size="1" name="asof_yr" style="font-size: 8pt">\n\t\t\t\t\t\t<option selected>2011</option>\n\t\t\t\t\t\t<option>2012</option>\n\t\t\t\t\t\t</select>) <input type="submit" value="Go" name="go" style="font-size: 8pt; height: 16">\n\t\t\t\t\t</font></td></tr>\n\t\t\t\t\t<input type="hidden" name="jumpstuff" value="view=releasedate&view2=domestic&yr=2011&sort=gross&order=DESC&p=.htm">\n\t\t\t\t\t<input type="hidden" name="curasof" value="today">\n\t\t\t\t\t<input type="hidden" name="yr" value="2011">\n\t\t\t\t\t</form>\n\t\t\t\t\t</table>\n\t\t\t\t</font></td><td valign="bottom" align="right"><font face="Verdana" size="1"><b><a href="/yearly/chart/?yr=2012&view=releasedate&view2=domestic&sort=gross&order=DESC&&p=.htm">Next Year &gt;</a></b></font></td></tr><tr><td colspan="3"><table border="0" cellspacing="1" cellpadding="5" bgcolor="#ffffff"><tr bgcolor="#dcdcdc"><td align="center"><font size="2"><a href="/yearly/chart/?view=releasedate&view2=domestic&yr=2011&sort=gross&order=ASC&p=.htm"><b>Rank</b></a></font></td><td align="center"><font size="2"><a href="/yearly/chart/?view=releasedate&view2=domestic&yr=2011&sort=title&order=ASC&p=.htm">Movie Title (click to view)</a></font></td><td align="center"><font size="2"><a href="/yearly/chart/?view=releasedate&view2=domestic&yr=2011&sort=studio&order=ASC&p=.htm">Studio</a><br><script language="javascript">\r\nfunction MojoDrop1() {\r\nvar number = document.MojoDropDown1.mojolinks1.selectedIndex;location.href = document.MojoDropDown1.mojolinks1.options[number].value;}</script>\r\n<table border="0" cellspacing="0" cellpadding="0">\r\n<form name="MojoDropDown1"><tr><td>\r\n<select name="mojolinks1" style="font-family: Verdana; font-size: 8pt" onChange="MojoDrop1(this.form)">\r\n<option selected>Filter</option><option value="/yearly/chart/?view=releasedate&view2=domestic&yr=2011&sort=gross&order=DESC&studio=108pics.htm">108</option>\r\n<option value="/yearly/chart/?view=releasedate&view2=domestic&yr=2011&sort=gross&order=DESC&studio=twelvethirty.htm">1230</option>\r\n<option value="/yearly/chart/?view=releasedate&view2=domestic&yr=2011&sort=gross&order=DESC&studio=fiveandtwo.htm">5&amp;2</option>\r\n<option value="/yearly/chart/?view=releasedate&view2=domestic&yr=2011&sort=gross&order=DESC&studio=area23a.htm">A23</option>\r\n<option value="/yearly/chart/?view=releasedate&view2=domestic&yr=2011&sort=gross&order=DESC&studio=abramorama.htm">Abr.</option>\r\n<option value="/yearly/chart/?view=releasedate&view2=domestic&yr=2011&sort=gross&order=DESC&studio=affrm.htm">AFFRM</option>\r\n<option value="/yearly/chart/?view=releasedate&view2=domestic&yr=2011&sort=gross&order=DESC&studio=alphagalore.htm">AGF</option>\r\n<option value="/yearly/chart/?view=releasedate&view2=domestic&yr=2011&sort=gross&order=DESC&studio=afterlifepictures.htm">ALP</option>\r\n<option value="/yearly/chart/?view=releasedate&view2=domestic&yr=2011&sort=gross&order=DESC&studio=alivemind.htm">AM</option>\r\n<option value="/yearly/chart/?view=releasedate&view2=domestic&yr=2011&sort=gross&order=DESC&studio=anchorbayentertainment.htm">Anch.</option>\r\n<option value="/yearly/chart/?view=releasedate&view2=domestic&yr=2011&sort=gross&order=DESC&studio=arcent.htm">ArcEnt</option>\r\n<option value="/yearly/chart/?view=releasedate&view2=domestic&yr=2011&sort=gross&order=DESC&studio=argotpictures.htm">Argo.</option>\r\n<option value="/yearly/chart/?view=releasedate&view2=domestic&yr=2011&sort=gross&order=DESC&studio=atopictures.htm">ATO</option>\r\n<option value="/yearly/chart/?view=releasedate&view2=domestic&yr=2011&sort=gross&order=DESC&studio=balcony.htm">Bal.</option>\r\n<option value="/yearly/chart/?view=releasedate&view2=domestic&yr=2011&sort=gross&order=DESC&studio=bubbledistribution.htm">BD</option>\r\n<option value="/yearly/chart/?view=releasedate&view2=domestic&yr=2011&sort=gross&order=DESC&studio=bdfox.htm">BDF</option>\r\n<option value="/yearly/chart/?view=releasedate&view2=domestic&yr=2011&sort=gross&order=DESC&studio=bigfootascendant.htm">BFA</option>\r\n<option value="/yearly/chart/?view=releasedate&view2=domestic&yr=2011&sort=gross&order=DESC&studio=breakingglass.htm">BGP</option>\r\n<option value="/yearly/chart/?view=releasedate&view2=domestic&yr=2011&sort=gross&order=DESC&studio=blackrockfilms.htm">BR</option>\r\n<option value="/yearly/chart/?view=releasedate&view2=domestic&yr=2011&sort=gross&order=DESC&studio=buenavista.htm">BV</option>\r\n<option value="/yearly/chart/?view=releasedate&view2=domestic&yr=2011&sort=gross&order=DESC&studio=categoryone.htm">C1</option>\r\n<option value="/yearly/chart/?view=releasedate&view2=domestic&yr=2011&sort=gross&order=DESC&studio=cavu.htm">CAVU</option>\r\n<option value="/yearly/chart/?view=releasedate&view2=domestic&yr=2011&sort=gross&order=DESC&studio=cbsfilms.htm">CBS</option>\r\n<option value="/yearly/chart/?view=releasedate&view2=domestic&yr=2011&sort=gross&order=DESC&studio=cinedigmentertainment.htm">Cdgm.</option>\r\n<option value="/yearly/chart/?view=releasedate&view2=domestic&yr=2011&sort=gross&order=DESC&studio=checkentertainment.htm">CED</option>\r\n<option value="/yearly/chart/?view=releasedate&view2=domestic&yr=2011&sort=gross&order=DESC&studio=cinemaguild.htm">CGld</option>\r\n<option value="/yearly/chart/?view=releasedate&view2=domestic&yr=2011&sort=gross&order=DESC&studio=cjentertainment.htm">CJ</option>\r\n<option value="/yearly/chart/?view=releasedate&view2=domestic&yr=2011&sort=gross&order=DESC&studio=chinalion.htm">CL</option>\r\n<option value="/yearly/chart/?view=releasedate&view2=domestic&yr=2011&sort=gross&order=DESC&studio=codeblackentertainment.htm">Code</option>\r\n<option value="/yearly/chart/?view=releasedate&view2=domestic&yr=2011&sort=gross&order=DESC&studio=cohenmedia.htm">Cohen</option>\r\n<option value="/yearly/chart/?view=releasedate&view2=domestic&yr=2011&sort=gross&order=DESC&studio=cinemapurgatorio.htm">CP</option>\r\n<option value="/yearly/chart/?view=releasedate&view2=domestic&yr=2011&sort=gross&order=DESC&studio=corinthfilmsinc.htm">Crnth</option>\r\n<option value="/yearly/chart/?view=releasedate&view2=domestic&yr=2011&sort=gross&order=DESC&studio=crowdstarter.htm">CS</option>\r\n<option value="/yearly/chart/?view=releasedate&view2=domestic&yr=2011&sort=gross&order=DESC&studio=dada.htm">Da.</option>\r\n<option value="/yearly/chart/?view=releasedate&view2=domestic&yr=2011&sort=gross&order=DESC&studio=docuramafilms.htm">DF</option>\r\n<option value="/yearly/chart/?view=releasedate&view2=domestic&yr=2011&sort=gross&order=DESC&studio=dressed.htm">Dress.</option>\r\n<option value="/yearly/chart/?view=releasedate&view2=domestic&yr=2011&sort=gross&order=DESC&studio=drivingwithoureyesshut.htm">DWOES</option>\r\n<option value="/yearly/chart/?view=releasedate&view2=domestic&yr=2011&sort=gross&order=DESC&studio=extrabutter.htm">EBP</option>\r\n<option value="/yearly/chart/?view=releasedate&view2=domestic&yr=2011&sort=gross&order=DESC&studio=eammonfilms.htm">EF</option>\r\n<option value="/yearly/chart/?view=releasedate&view2=domestic&yr=2011&sort=gross&order=DESC&studio=elevenarts.htm">Elev.</option>\r\n<option value="/yearly/chart/?view=releasedate&view2=domestic&yr=2011&sort=gross&order=DESC&studio=entertainmentone.htm">EOne</option>\r\n<option value="/yearly/chart/?view=releasedate&view2=domestic&yr=2011&sort=gross&order=DESC&studio=eros.htm">Eros</option>\r\n<option value="/yearly/chart/?view=releasedate&view2=domestic&yr=2011&sort=gross&order=DESC&studio=filmdistrict.htm">FD</option>\r\n<option value="/yearly/chart/?view=releasedate&view2=domestic&yr=2011&sort=gross&order=DESC&studio=filmdemic.htm">FDem</option>\r\n<option value="/yearly/chart/?view=releasedate&view2=domestic&yr=2011&sort=gross&order=DESC&studio=thefilmdesk.htm">FDesk</option>\r\n<option value="/yearly/chart/?view=releasedate&view2=domestic&yr=2011&sort=gross&order=DESC&studio=fisherklingenstein.htm">FKF</option>\r\n<option value="/yearly/chart/?view=releasedate&view2=domestic&yr=2011&sort=gross&order=DESC&studio=filmmovement.htm">FM</option>\r\n<option value="/yearly/chart/?view=releasedate&view2=domestic&yr=2011&sort=gross&order=DESC&studio=fullmoonpictures.htm">FMP</option>\r\n<option value="/yearly/chart/?view=releasedate&view2=domestic&yr=2011&sort=gross&order=DESC&studio=focus.htm">Focus</option>\r\n<option value="/yearly/chart/?view=releasedate&view2=domestic&yr=2011&sort=gross&order=DESC&studio=fox.htm">Fox</option>\r\n<option value="/yearly/chart/?view=releasedate&view2=domestic&yr=2011&sort=gross&order=DESC&studio=foxsearchlight.htm">FoxS</option>\r\n<option value="/yearly/chart/?view=releasedate&view2=domestic&yr=2011&sort=gross&order=DESC&studio=freestyle.htm">Free</option>\r\n<option value="/yearly/chart/?view=releasedate&view2=domestic&yr=2011&sort=gross&order=DESC&studio=firstrun.htm">FRun</option>\r\n<option value="/yearly/chart/?view=releasedate&view2=domestic&yr=2011&sort=gross&order=DESC&studio=gkids.htm">GK</option>\r\n<option value="/yearly/chart/?view=releasedate&view2=domestic&yr=2011&sort=gross&order=DESC&studio=samuelgoldwyn.htm">Gold.</option>\r\n<option value="/yearly/chart/?view=releasedate&view2=domestic&yr=2011&sort=gross&order=DESC&studio=hannoverhouse.htm">Hann.</option>\r\n<option value="/yearly/chart/?view=releasedate&view2=domestic&yr=2011&sort=gross&order=DESC&studio=icarus.htm">Icar.</option>\r\n<option value="/yearly/chart/?view=releasedate&view2=domestic&yr=2011&sort=gross&order=DESC&studio=intlfilmcircuit.htm">ICir</option>\r\n<option value="/yearly/chart/?view=releasedate&view2=domestic&yr=2011&sort=gross&order=DESC&studio=ifc.htm">IFC</option>\r\n<option value="/yearly/chart/?view=releasedate&view2=domestic&yr=2011&sort=gross&order=DESC&studio=indomina.htm">IM</option>\r\n<option value="/yearly/chart/?view=releasedate&view2=domestic&yr=2011&sort=gross&order=DESC&studio=imageentertainment.htm">Imag.</option>\r\n<option value="/yearly/chart/?view=releasedate&view2=domestic&yr=2011&sort=gross&order=DESC&studio=indican.htm">Indic.</option>\r\n<option value="/yearly/chart/?view=releasedate&view2=domestic&yr=2011&sort=gross&order=DESC&studio=insurgent.htm">IR</option>\r\n<option value="/yearly/chart/?view=releasedate&view2=domestic&yr=2011&sort=gross&order=DESC&studio=inthefamily.htm">ITF</option>\r\n<option value="/yearly/chart/?view=releasedate&view2=domestic&yr=2011&sort=gross&order=DESC&studio=janusfilms.htm">Jan.</option>\r\n<option value="/yearly/chart/?view=releasedate&view2=domestic&yr=2011&sort=gross&order=DESC&studio=jefflipsky.htm">JL</option>\r\n<option value="/yearly/chart/?view=releasedate&view2=domestic&yr=2011&sort=gross&order=DESC&studio=kinobild.htm">KBR</option>\r\n<option value="/yearly/chart/?view=releasedate&view2=domestic&yr=2011&sort=gross&order=DESC&studio=kinoclassics.htm">KC</option>\r\n<option value="/yearly/chart/?view=releasedate&view2=domestic&yr=2011&sort=gross&order=DESC&studio=kino.htm">Kino</option>\r\n<option value="/yearly/chart/?view=releasedate&view2=domestic&yr=2011&sort=gross&order=DESC&studio=kkm.htm">KKM</option>\r\n<option value="/yearly/chart/?view=releasedate&view2=domestic&yr=2011&sort=gross&order=DESC&studio=kinolorber.htm">KL</option>\r\n<option value="/yearly/chart/?view=releasedate&view2=domestic&yr=2011&sort=gross&order=DESC&studio=kristinmarie.htm">KMP</option>\r\n<option value="/yearly/chart/?view=releasedate&view2=domestic&yr=2011&sort=gross&order=DESC&studio=lionsgate.htm">LGF</option>\r\n<option value="/yearly/chart/?view=releasedate&view2=domestic&yr=2011&sort=gross&order=DESC&studio=cinemalibre.htm">Libre</option>\r\n<option value="/yearly/chart/?view=releasedate&view2=domestic&yr=2011&sort=gross&order=DESC&studio=longshotfactory.htm">Long Shot</option>\r\n<option value="/yearly/chart/?view=releasedate&view2=domestic&yr=2011&sort=gross&order=DESC&studio=lorberfilms.htm">Lorb.</option>\r\n<option value="/yearly/chart/?view=releasedate&view2=domestic&yr=2011&sort=gross&order=DESC&studio=lifesentence.htm">LSF</option>\r\n<option value="/yearly/chart/?view=releasedate&view2=domestic&yr=2011&sort=gross&order=DESC&studio=magnolia.htm">Magn.</option>\r\n<option value="/yearly/chart/?view=releasedate&view2=domestic&yr=2011&sort=gross&order=DESC&studio=mayaentertainment.htm">Maya</option>\r\n<option value="/yearly/chart/?view=releasedate&view2=domestic&yr=2011&sort=gross&order=DESC&studio=musicboxfilms.htm">MBox</option>\r\n<option value="/yearly/chart/?view=releasedate&view2=domestic&yr=2011&sort=gross&order=DESC&studio=motionfilmgroup.htm">MFG</option>\r\n<option value="/yearly/chart/?view=releasedate&view2=domestic&yr=2011&sort=gross&order=DESC&studio=millenniumentertainment.htm">MNE</option>\r\n<option value="/yearly/chart/?view=releasedate&view2=domestic&yr=2011&sort=gross&order=DESC&studio=montereymediainc.htm">Mont.</option>\r\n<option value="/yearly/chart/?view=releasedate&view2=domestic&yr=2011&sort=gross&order=DESC&studio=mpft.htm">MPFT</option>\r\n<option value="/yearly/chart/?view=releasedate&view2=domestic&yr=2011&sort=gross&order=DESC&studio=unknown.htm">N/A</option>\r\n<option value="/yearly/chart/?view=releasedate&view2=domestic&yr=2011&sort=gross&order=DESC&studio=neoclassicsfilms.htm">NeoC</option>\r\n<option value="/yearly/chart/?view=releasedate&view2=domestic&yr=2011&sort=gross&order=DESC&studio=nationalgeographiccinema.htm">NGE</option>\r\n<option value="/yearly/chart/?view=releasedate&view2=domestic&yr=2011&sort=gross&order=DESC&studio=newmarket.htm">NM</option>\r\n<option value="/yearly/chart/?view=releasedate&view2=domestic&yr=2011&sort=gross&order=DESC&studio=nobelityproject.htm">NobP</option>\r\n<option value="/yearly/chart/?view=releasedate&view2=domestic&yr=2011&sort=gross&order=DESC&studio=nocturnalfeatures.htm">Noct.</option>\r\n<option value="/yearly/chart/?view=releasedate&view2=domestic&yr=2011&sort=gross&order=DESC&studio=newyorker.htm">NYer</option>\r\n<option value="/yearly/chart/?view=releasedate&view2=domestic&yr=2011&sort=gross&order=DESC&studio=olivefilms.htm">Olive</option>\r\n<option value="/yearly/chart/?view=releasedate&view2=domestic&yr=2011&sort=gross&order=DESC&studio=omnifreestyle.htm">OMNI/FSR</option>\r\n<option value="/yearly/chart/?view=releasedate&view2=domestic&yr=2011&sort=gross&order=DESC&studio=openroads.htm">ORF</option>\r\n<option value="/yearly/chart/?view=releasedate&view2=domestic&yr=2011&sort=gross&order=DESC&studio=oscilloscopepictures.htm">Osci.</option>\r\n<option value="/yearly/chart/?view=releasedate&view2=domestic&yr=2011&sort=gross&order=DESC&studio=pardw.htm">P/DW</option>\r\n<option value="/yearly/chart/?view=releasedate&view2=domestic&yr=2011&sort=gross&order=DESC&studio=phase4.htm">P4</option>\r\n<option value="/yearly/chart/?view=releasedate&view2=domestic&yr=2011&sort=gross&order=DESC&studio=paladin.htm">Pala.</option>\r\n<option value="/yearly/chart/?view=releasedate&view2=domestic&yr=2011&sort=gross&order=DESC&studio=paramount.htm">Par.</option>\r\n<option value="/yearly/chart/?view=releasedate&view2=domestic&yr=2011&sort=gross&order=DESC&studio=paramountvantage.htm">ParV</option>\r\n<option value="/yearly/chart/?view=releasedate&view2=domestic&yr=2011&sort=gross&order=DESC&studio=pascack.htm">Pas.</option>\r\n<option value="/yearly/chart/?view=releasedate&view2=domestic&yr=2011&sort=gross&order=DESC&studio=pda.htm">PDA</option>\r\n<option value="/yearly/chart/?view=releasedate&view2=domestic&yr=2011&sort=gross&order=DESC&studio=peacefilm.htm">PF</option>\r\n<option value="/yearly/chart/?view=releasedate&view2=domestic&yr=2011&sort=gross&order=DESC&studio=pmkbnc.htm">PMK</option>\r\n<option value="/yearly/chart/?view=releasedate&view2=domestic&yr=2011&sort=gross&order=DESC&studio=pmkbncfilms.htm">PMKBNC</option>\r\n<option value="/yearly/chart/?view=releasedate&view2=domestic&yr=2011&sort=gross&order=DESC&studio=quakermedia.htm">QM</option>\r\n<option value="/yearly/chart/?view=releasedate&view2=domestic&yr=2011&sort=gross&order=DESC&studio=roadsideattractions.htm">RAtt.</option>\r\n<option value="/yearly/chart/?view=releasedate&view2=domestic&yr=2011&sort=gross&order=DESC&studio=relativity.htm">Rela.</option>\r\n<option value="/yearly/chart/?view=releasedate&view2=domestic&yr=2011&sort=gross&order=DESC&studio=reliancebigpictures.htm">Relbig.</option>\r\n<option value="/yearly/chart/?view=releasedate&view2=domestic&yr=2011&sort=gross&order=DESC&studio=redflag.htm">RF</option>\r\n<option value="/yearly/chart/?view=releasedate&view2=domestic&yr=2011&sort=gross&order=DESC&studio=rialto.htm">Rialto</option>\r\n<option value="/yearly/chart/?view=releasedate&view2=domestic&yr=2011&sort=gross&order=DESC&studio=riverrain.htm">RivR</option>\r\n<option value="/yearly/chart/?view=releasedate&view2=domestic&yr=2011&sort=gross&order=DESC&studio=rockymountainpictures.htm">RM</option>\r\n<option value="/yearly/chart/?view=releasedate&view2=domestic&yr=2011&sort=gross&order=DESC&studio=rocketreleasing.htm">Rocket</option>\r\n<option value="/yearly/chart/?view=releasedate&view2=domestic&yr=2011&sort=gross&order=DESC&studio=rumurreleasing.htm">Rum.</option>\r\n<option value="/yearly/chart/?view=releasedate&view2=domestic&yr=2011&sort=gross&order=DESC&studio=screenmedia.htm">Scre.</option>\r\n<option value="/yearly/chart/?view=releasedate&view2=domestic&yr=2011&sort=gross&order=DESC&studio=submarinedeluxe.htm">SD</option>\r\n<option value="/yearly/chart/?view=releasedate&view2=domestic&yr=2011&sort=gross&order=DESC&studio=screengems.htm">SGem</option>\r\n<option value="/yearly/chart/?view=releasedate&view2=domestic&yr=2011&sort=gross&order=DESC&studio=shortsinternational.htm">Shrts.</option>\r\n<option value="/yearly/chart/?view=releasedate&view2=domestic&yr=2011&sort=gross&order=DESC&studio=smodcast.htm">SMod</option>\r\n<option value="/yearly/chart/?view=releasedate&view2=domestic&yr=2011&sort=gross&order=DESC&studio=sony.htm">Sony</option>\r\n<option value="/yearly/chart/?view=releasedate&view2=domestic&yr=2011&sort=gross&order=DESC&studio=sonyclassics.htm">SPC</option>\r\n<option value="/yearly/chart/?view=releasedate&view2=domestic&yr=2011&sort=gross&order=DESC&studio=sphe.htm">SPHE</option>\r\n<option value="/yearly/chart/?view=releasedate&view2=domestic&yr=2011&sort=gross&order=DESC&studio=shotown.htm">STP</option>\r\n<option value="/yearly/chart/?view=releasedate&view2=domestic&yr=2011&sort=gross&order=DESC&studio=strand.htm">Strand</option>\r\n<option value="/yearly/chart/?view=releasedate&view2=domestic&yr=2011&sort=gross&order=DESC&studio=summitentertainment.htm">Sum.</option>\r\n<option value="/yearly/chart/?view=releasedate&view2=domestic&yr=2011&sort=gross&order=DESC&studio=tla.htm">TLA</option>\r\n<option value="/yearly/chart/?view=releasedate&view2=domestic&yr=2011&sort=gross&order=DESC&studio=tostieproductions.htm">Tost.</option>\r\n<option value="/yearly/chart/?view=releasedate&view2=domestic&yr=2011&sort=gross&order=DESC&studio=tribecafilm.htm">Trib.</option>\r\n<option value="/yearly/chart/?view=releasedate&view2=domestic&yr=2011&sort=gross&order=DESC&studio=tristar.htm">TriS</option>\r\n<option value="/yearly/chart/?view=releasedate&view2=domestic&yr=2011&sort=gross&order=DESC&studio=trulyindie.htm">Truly</option>\r\n<option value="/yearly/chart/?view=releasedate&view2=domestic&yr=2011&sort=gross&order=DESC&studio=universal.htm">Uni.</option>\r\n<option value="/yearly/chart/?view=releasedate&view2=domestic&yr=2011&sort=gross&order=DESC&studio=utv.htm">UTV</option>\r\n<option value="/yearly/chart/?view=releasedate&view2=domestic&yr=2011&sort=gross&order=DESC&studio=variancefilms.htm">Vari.</option>\r\n<option value="/yearly/chart/?view=releasedate&view2=domestic&yr=2011&sort=gross&order=DESC&studio=visioentertainment.htm">Visio</option>\r\n<option value="/yearly/chart/?view=releasedate&view2=domestic&yr=2011&sort=gross&order=DESC&studio=vitagraph.htm">Vita.</option>\r\n<option value="/yearly/chart/?view=releasedate&view2=domestic&yr=2011&sort=gross&order=DESC&studio=wdimension.htm">W/Dim.</option>\r\n<option value="/yearly/chart/?view=releasedate&view2=domestic&yr=2011&sort=gross&order=DESC&studio=wavereleasing.htm">Wave</option>\r\n<option value="/yearly/chart/?view=releasedate&view2=domestic&yr=2011&sort=gross&order=DESC&studio=warnerbros.htm">WB</option>\r\n<option value="/yearly/chart/?view=releasedate&view2=domestic&yr=2011&sort=gross&order=DESC&studio=wb-newline.htm">WB (NL)</option>\r\n<option value="/yearly/chart/?view=releasedate&view2=domestic&yr=2011&sort=gross&order=DESC&studio=weinsteincompany.htm">Wein.</option>\r\n<option value="/yearly/chart/?view=releasedate&view2=domestic&yr=2011&sort=gross&order=DESC&studio=wreckinhill.htm">WHE</option>\r\n<option value="/yearly/chart/?view=releasedate&view2=domestic&yr=2011&sort=gross&order=DESC&studio=xenonpictures.htm">Xen.</option>\r\n<option value="/yearly/chart/?view=releasedate&view2=domestic&yr=2011&sort=gross&order=DESC&studio=yashraj.htm">Yash</option>\r\n<option value="/yearly/chart/?view=releasedate&view2=domestic&yr=2011&sort=gross&order=DESC&studio=zeitgeist.htm">Zeit.</option>\r\n<option value="/yearly/chart/?view=releasedate&view2=domestic&yr=2011&sort=gross&order=DESC&studio=zomularmedia.htm">ZMG</option>\r\n<option value="/yearly/chart/?view=releasedate&view2=domestic&yr=2011&sort=gross&order=DESC&p=.htm">ALL</option>\r\n</select></td></tr></form></table><a></a></font></td><td align="center" colspan="2"><font size="2"><a href="/yearly/chart/?view=releasedate&view2=domestic&yr=2011&sort=gross&order=ASC&p=.htm"><b>Total Gross</b></a> / </font><font size="2"><a href="/yearly/chart/?view=releasedate&view2=domestic&yr=2011&sort=theaters&order=DESC&p=.htm">Theaters</a></font></td><td align="center" colspan="2"><font size="2"><a href="/yearly/chart/?view=releasedate&view2=domestic&yr=2011&sort=opengross&order=DESC&p=.htm">Opening</a> / </font><font size="2"><a href="/yearly/chart/?view=releasedate&view2=domestic&yr=2011&sort=opentheaters&order=DESC&p=.htm">Theaters</a></font></td><td align="center"><font size="2"><a href="/yearly/chart/?view=releasedate&view2=domestic&yr=2011&sort=open&order=DESC&p=.htm">Open</a></font></td><td align="center"><font size="2"><a href="/yearly/chart/?view=releasedate&view2=domestic&yr=2011&sort=close&order=DESC&p=.htm">Close</a></font></td></tr><tr bgcolor="#ffffff"><td align="center"><font size="2">101</font></td><td><b><font size="2"><a href="/movies/?id=priest07.htm">Priest</a></font></b></td><td><font size="2"><a href="/studio/chart/?studio=screengems.htm">SGem</a></font></td><td align="right"><font size="2"><b>$29,136,626</b></font></td><td align="right"><font size="2">2,864</font></td><td align="right"><font size="2">$14,953,664</font></td><td align="right"><font size="2">2,864</font></td><td align="right"><font size="2"><a href="/schedule/?view=bydate&release=theatrical&date=2011-05-13&p=.htm">5/13</a></font></td><td align="right"><font size="2">6/23</font></td></tr><tr bgcolor="#f4f4ff"><td align="center"><font size="2">102</font></td><td><b><font size="2"><a href="/movies/?id=mechanic.htm">The Mechanic</a></font></b></td><td><font size="2"><a href="/studio/chart/?studio=cbsfilms.htm">CBS</a></font></td><td align="right"><font size="2"><b>$29,121,498</b></font></td><td align="right"><font size="2">2,704</font></td><td align="right"><font size="2">$11,422,006</font></td><td align="right"><font size="2">2,703</font></td><td align="right"><font size="2"><a href="/schedule/?view=bydate&release=theatrical&date=2011-01-28&p=.htm">1/28</a></font></td><td align="right"><font size="2">4/7</font></td></tr><tr bgcolor="#ffffff"><td align="center"><font size="2">103</font></td><td><b><font size="2"><a href="/movies/?id=abduction11.htm">Abduction</a></font></b></td><td><font size="2"><a href="/studio/chart/?studio=lionsgate.htm">LGF</a></font></td><td align="right"><font size="2"><b>$28,087,155</b></font></td><td align="right"><font size="2">3,118</font></td><td align="right"><font size="2">$10,925,253</font></td><td align="right"><font size="2">3,118</font></td><td align="right"><font size="2"><a href="/schedule/?view=bydate&release=theatrical&date=2011-09-23&p=.htm">9/23</a></font></td><td align="right"><font size="2">12/15</font></td></tr><tr bgcolor="#f4f4ff"><td align="center"><font size="2">104</font></td><td><b><font size="2"><a href="/movies/?id=beastly.htm">Beastly</a></font></b></td><td><font size="2"><a href="/studio/chart/?studio=cbsfilms.htm">CBS</a></font></td><td align="right"><font size="2"><b>$27,865,571</b></font></td><td align="right"><font size="2">1,959</font></td><td align="right"><font size="2">$9,851,102</font></td><td align="right"><font size="2">1,952</font></td><td align="right"><font size="2"><a href="/schedule/?view=bydate&release=theatrical&date=2011-03-04&p=.htm">3/4</a></font></td><td align="right"><font size="2">5/19</font></td></tr><tr bgcolor="#ffffff"><td align="center"><font size="2">105</font></td><td><b><font size="2"><a href="/movies/?id=winniethepooh.htm">Winnie the Pooh</a></font></b></td><td><font size="2"><a href="/studio/chart/?studio=buenavista.htm">BV</a></font></td><td align="right"><font size="2"><b>$26,692,846</b></font></td><td align="right"><font size="2">2,405</font></td><td align="right"><font size="2">$7,857,076</font></td><td align="right"><font size="2">2,405</font></td><td align="right"><font size="2"><a href="/schedule/?view=bydate&release=theatrical&date=2011-07-15&p=.htm">7/15</a></font></td><td align="right"><font size="2">9/22</font></td></tr><tr bgcolor="#f4f4ff"><td align="center"><font size="2">106</font></td><td><b><font size="2"><a href="/movies/?id=killerelite.htm">Killer Elite</a></font></b></td><td><font size="2"><a href="/studio/chart/?studio=openroads.htm">ORF</a></font></td><td align="right"><font size="2"><b>$25,124,966</b></font></td><td align="right"><font size="2">2,986</font></td><td align="right"><font size="2">$9,352,008</font></td><td align="right"><font size="2">2,986</font></td><td align="right"><font size="2"><a href="/schedule/?view=bydate&release=theatrical&date=2011-09-23&p=.htm">9/23</a></font></td><td align="right"><font size="2">11/17</font></td></tr><tr bgcolor="#ffffff"><td align="center"><font size="2">107</font></td><td><b><font size="2"><a href="/movies/?id=seasonofthewitch.htm">Season of the Witch</a></font></b></td><td><font size="2"><a href="/studio/chart/?studio=relativity.htm">Rela.</a></font></td><td align="right"><font size="2"><b>$24,827,228</b></font></td><td align="right"><font size="2">2,827</font></td><td align="right"><font size="2">$10,612,375</font></td><td align="right"><font size="2">2,816</font></td><td align="right"><font size="2"><a href="/schedule/?view=bydate&release=theatrical&date=2011-01-07&p=.htm">1/7</a></font></td><td align="right"><font size="2">3/24</font></td></tr><tr bgcolor="#f4f4ff"><td align="center"><font size="2">108</font></td><td><b><font size="2"><a href="/movies/?id=ouridiotbrother.htm">Our Idiot Brother</a></font></b></td><td><font size="2"><a href="/studio/chart/?studio=weinsteincompany.htm">Wein.</a></font></td><td align="right"><font size="2"><b>$24,816,118</b></font></td><td align="right"><font size="2">2,555</font></td><td align="right"><font size="2">$7,011,631</font></td><td align="right"><font size="2">2,555</font></td><td align="right"><font size="2"><a href="/schedule/?view=bydate&release=theatrical&date=2011-08-26&p=.htm">8/26</a></font></td><td align="right"><font size="2">11/24</font></td></tr><tr bgcolor="#ffffff"><td align="center"><font size="2">109</font></td><td><b><font size="2"><a href="/movies/?id=tinkertailorsoldierspy.htm">Tinker, Tailor, Soldier, Spy</a></font></b></td><td><font size="2"><a href="/studio/chart/?studio=focus.htm">Focus</a></font></td><td align="right"><font size="2"><b>$24,149,393</b></font></td><td align="right"><font size="2">886</font></td><td align="right"><font size="2">$310,562</font></td><td align="right"><font size="2">4</font></td><td align="right"><font size="2"><a href="/schedule/?view=bydate&release=theatrical&date=2011-12-09&p=.htm">12/9</a></font></td><td align="right"><font size="2">3/22</font></td></tr><tr bgcolor="#f4f4ff"><td align="center"><font size="2">110</font></td><td><b><font size="2"><a href="/movies/?id=dontbeafraidofthedark.htm">Don\'t Be Afraid of the Dark</a></font></b></td><td><font size="2"><a href="/studio/chart/?studio=filmdistrict.htm">FD</a></font></td><td align="right"><font size="2"><b>$24,046,682</b></font></td><td align="right"><font size="2">2,780</font></td><td align="right"><font size="2">$8,525,728</font></td><td align="right"><font size="2">2,760</font></td><td align="right"><font size="2"><a href="/schedule/?view=bydate&release=theatrical&date=2011-08-26&p=.htm">8/26</a></font></td><td align="right"><font size="2">11/17</font></td></tr><tr bgcolor="#ffffff"><td align="center"><font size="2">111</font></td><td><b><font size="2"><a href="/movies/?id=borntobewildimax.htm">Born to Be Wild (IMAX)</a></font></b></td><td><font size="2"><a href="/studio/chart/?studio=warnerbros.htm">WB</a></font></td><td align="right"><font size="2"><b>$23,862,402</b></font></td><td align="right"><font size="2">208</font></td><td align="right"><font size="2">$871,478</font></td><td align="right"><font size="2">206</font></td><td align="right"><font size="2"><a href="/schedule/?view=bydate&release=theatrical&date=2011-04-08&p=.htm">4/8</a></font></td><td align="right"><font size="2">-</font></td></tr><tr bgcolor="#f4f4ff"><td align="center"><font size="2">112</font></td><td><b><font size="2"><a href="/movies/?id=sanctum.htm">Sanctum</a></font></b></td><td><font size="2"><a href="/studio/chart/?studio=universal.htm">Uni.</a></font></td><td align="right"><font size="2"><b>$23,209,310</b></font></td><td align="right"><font size="2">2,789</font></td><td align="right"><font size="2">$9,447,930</font></td><td align="right"><font size="2">2,787</font></td><td align="right"><font size="2"><a href="/schedule/?view=bydate&release=theatrical&date=2011-02-04&p=.htm">2/4</a></font></td><td align="right"><font size="2">3/3</font></td></tr><tr bgcolor="#ffffff"><td align="center"><font size="2">113</font></td><td><b><font size="2"><a href="/movies/?id=montecarlo.htm">Monte Carlo</a></font></b></td><td><font size="2"><a href="/studio/chart/?studio=fox.htm">Fox</a></font></td><td align="right"><font size="2"><b>$23,186,769</b></font></td><td align="right"><font size="2">2,473</font></td><td align="right"><font size="2">$7,453,944</font></td><td align="right"><font size="2">2,473</font></td><td align="right"><font size="2"><a href="/schedule/?view=bydate&release=theatrical&date=2011-07-01&p=.htm">7/1</a></font></td><td align="right"><font size="2">9/29</font></td></tr><tr bgcolor="#f4f4ff"><td align="center"><font size="2">114</font></td><td><b><font size="2"><a href="/movies/?id=yourhighness.htm">Your Highness</a></font></b></td><td><font size="2"><a href="/studio/chart/?studio=universal.htm">Uni.</a></font></td><td align="right"><font size="2"><b>$21,596,445</b></font></td><td align="right"><font size="2">2,772</font></td><td align="right"><font size="2">$9,360,020</font></td><td align="right"><font size="2">2,769</font></td><td align="right"><font size="2"><a href="/schedule/?view=bydate&release=theatrical&date=2011-04-08&p=.htm">4/8</a></font></td><td align="right"><font size="2">5/19</font></td></tr><tr bgcolor="#ffffff"><td align="center"><font size="2">115</font></td><td><b><font size="2"><a href="/movies/?id=darkesthour.htm">The Darkest Hour</a></font></b></td><td><font size="2"><a href="/studio/chart/?studio=summitentertainment.htm">Sum.</a></font></td><td align="right"><font size="2"><b>$21,443,494</b></font></td><td align="right"><font size="2">2,327</font></td><td align="right"><font size="2">$2,993,519</font></td><td align="right"><font size="2">2,324</font></td><td align="right"><font size="2"><a href="/schedule/?view=bydate&release=theatrical&date=2011-12-25&p=.htm">12/25</a></font></td><td align="right"><font size="2">3/1</font></td></tr><tr bgcolor="#f4f4ff"><td align="center"><font size="2">116</font></td><td><b><font size="2"><a href="/movies/?id=marsneedsmoms.htm">Mars Needs Moms</a></font></b></td><td><font size="2"><a href="/studio/chart/?studio=buenavista.htm">BV</a></font></td><td align="right"><font size="2"><b>$21,392,758</b></font></td><td align="right"><font size="2">3,117</font></td><td align="right"><font size="2">$6,914,488</font></td><td align="right"><font size="2">3,117</font></td><td align="right"><font size="2"><a href="/schedule/?view=bydate&release=theatrical&date=2011-03-11&p=.htm">3/11</a></font></td><td align="right"><font size="2">6/23</font></td></tr><tr bgcolor="#ffffff"><td align="center"><font size="2">117</font></td><td><b><font size="2"><a href="/movies/?id=dreamhouse.htm">Dream House</a></font></b></td><td><font size="2"><a href="/studio/chart/?studio=universal.htm">Uni.</a></font></td><td align="right"><font size="2"><b>$21,302,340</b></font></td><td align="right"><font size="2">2,664</font></td><td align="right"><font size="2">$8,129,355</font></td><td align="right"><font size="2">2,661</font></td><td align="right"><font size="2"><a href="/schedule/?view=bydate&release=theatrical&date=2011-09-30&p=.htm">9/30</a></font></td><td align="right"><font size="2">11/17</font></td></tr><tr bgcolor="#f4f4ff"><td align="center"><font size="2">118</font></td><td><b><font size="2"><a href="/movies/?id=conan3d.htm">Conan the Barbarian (2011)</a></font></b></td><td><font size="2"><a href="/studio/chart/?studio=lionsgate.htm">LGF</a></font></td><td align="right"><font size="2"><b>$21,295,021</b></font></td><td align="right"><font size="2">3,015</font></td><td align="right"><font size="2">$10,021,215</font></td><td align="right"><font size="2">3,015</font></td><td align="right"><font size="2"><a href="/schedule/?view=bydate&release=theatrical&date=2011-08-19&p=.htm">8/19</a></font></td><td align="right"><font size="2">10/6</font></td></tr><tr bgcolor="#ffffff"><td align="center"><font size="2">119</font></td><td><b><font size="2"><a href="/movies/?id=threemusketeers11.htm">The Three Musketeers (2011)</a></font></b></td><td><font size="2"><a href="/studio/chart/?studio=summitentertainment.htm">Sum.</a></font></td><td align="right"><font size="2"><b>$20,374,484</b></font></td><td align="right"><font size="2">3,017</font></td><td align="right"><font size="2">$8,674,452</font></td><td align="right"><font size="2">3,017</font></td><td align="right"><font size="2"><a href="/schedule/?view=bydate&release=theatrical&date=2011-10-21&p=.htm">10/21</a></font></td><td align="right"><font size="2">12/29</font></td></tr><tr bgcolor="#f4f4ff"><td align="center"><font size="2">120</font></td><td><b><font size="2"><a href="/movies/?id=eagleoftheninth.htm">The Eagle</a></font></b></td><td><font size="2"><a href="/studio/chart/?studio=focus.htm">Focus</a></font></td><td align="right"><font size="2"><b>$19,490,041</b></font></td><td align="right"><font size="2">2,296</font></td><td align="right"><font size="2">$8,684,464</font></td><td align="right"><font size="2">2,296</font></td><td align="right"><font size="2"><a href="/schedule/?view=bydate&release=theatrical&date=2011-02-11&p=.htm">2/11</a></font></td><td align="right"><font size="2">4/7</font></td></tr><tr bgcolor="#ffffff"><td align="center"><font size="2">121</font></td><td><b><font size="2"><a href="/movies/?id=shark3d.htm">Shark Night 3D</a></font></b></td><td><font size="2"><a href="/studio/chart/?studio=relativity.htm">Rela.</a></font></td><td align="right"><font size="2"><b>$18,877,153</b></font></td><td align="right"><font size="2">2,848</font></td><td align="right"><font size="2">$8,404,260</font></td><td align="right"><font size="2">2,806</font></td><td align="right"><font size="2"><a href="/schedule/?view=bydate&release=theatrical&date=2011-09-02&p=.htm">9/2</a></font></td><td align="right"><font size="2">11/24</font></td></tr><tr bgcolor="#f4f4ff"><td align="center"><font size="2">122</font></td><td><b><font size="2"><a href="/movies/?id=frightnight2011.htm">Fright Night (2011)</a></font></b></td><td><font size="2"><a href="/studio/chart/?studio=buenavista.htm">BV</a></font></td><td align="right"><font size="2"><b>$18,302,607</b></font></td><td align="right"><font size="2">3,114</font></td><td align="right"><font size="2">$7,714,388</font></td><td align="right"><font size="2">3,114</font></td><td align="right"><font size="2"><a href="/schedule/?view=bydate&release=theatrical&date=2011-08-19&p=.htm">8/19</a></font></td><td align="right"><font size="2">11/10</font></td></tr><tr bgcolor="#ffffff"><td align="center"><font size="2">123</font></td><td><b><font size="2"><a href="/movies/?id=apollo18.htm">Apollo 18</a></font></b></td><td><font size="2"><a href="/studio/chart/?studio=wdimension.htm">W/Dim.</a></font></td><td align="right"><font size="2"><b>$17,687,709</b></font></td><td align="right"><font size="2">3,330</font></td><td align="right"><font size="2">$8,704,271</font></td><td align="right"><font size="2">3,328</font></td><td align="right"><font size="2"><a href="/schedule/?view=bydate&release=theatrical&date=2011-09-02&p=.htm">9/2</a></font></td><td align="right"><font size="2">11/24</font></td></tr><tr bgcolor="#f4f4ff"><td align="center"><font size="2">124</font></td><td><b><font size="2"><a href="/movies/?id=thing11.htm">The Thing (2011)</a></font></b></td><td><font size="2"><a href="/studio/chart/?studio=universal.htm">Uni.</a></font></td><td align="right"><font size="2"><b>$16,928,670</b></font></td><td align="right"><font size="2">2,996</font></td><td align="right"><font size="2">$8,493,665</font></td><td align="right"><font size="2">2,996</font></td><td align="right"><font size="2"><a href="/schedule/?view=bydate&release=theatrical&date=2011-10-14&p=.htm">10/14</a></font></td><td align="right"><font size="2">11/17</font></td></tr><tr bgcolor="#ffffff"><td align="center"><font size="2">125</font></td><td><b><font size="2"><a href="/movies/?id=youngadult.htm">Young Adult</a></font></b></td><td><font size="2"><a href="/studio/chart/?studio=paramount.htm">Par.</a></font></td><td align="right"><font size="2"><b>$16,311,571</b></font></td><td align="right"><font size="2">987</font></td><td align="right"><font size="2">$310,263</font></td><td align="right"><font size="2">8</font></td><td align="right"><font size="2"><a href="/schedule/?view=bydate&release=theatrical&date=2011-12-09&p=.htm">12/9</a></font></td><td align="right"><font size="2">2/23</font></td></tr><tr bgcolor="#f4f4ff"><td align="center"><font size="2">126</font></td><td><b><font size="2"><a href="/movies/?id=africancats.htm">African Cats</a></font></b></td><td><font size="2"><a href="/studio/chart/?studio=buenavista.htm">BV</a></font></td><td align="right"><font size="2"><b>$15,428,747</b></font></td><td align="right"><font size="2">1,224</font></td><td align="right"><font size="2">$6,003,200</font></td><td align="right"><font size="2">1,220</font></td><td align="right"><font size="2"><a href="/schedule/?view=bydate&release=theatrical&date=2011-04-22&p=.htm">4/22</a></font></td><td align="right"><font size="2">7/14</font></td></tr><tr bgcolor="#ffffff"><td align="center"><font size="2">127</font></td><td><b><font size="2"><a href="/movies/?id=judymoody.htm">Judy Moody and the NOT Bummer Summer</a></font></b></td><td><font size="2"><a href="/studio/chart/?studio=relativity.htm">Rela.</a></font></td><td align="right"><font size="2"><b>$15,013,650</b></font></td><td align="right"><font size="2">2,524</font></td><td align="right"><font size="2">$6,076,859</font></td><td align="right"><font size="2">2,524</font></td><td align="right"><font size="2"><a href="/schedule/?view=bydate&release=theatrical&date=2011-06-10&p=.htm">6/10</a></font></td><td align="right"><font size="2">8/18</font></td></tr><tr bgcolor="#f4f4ff"><td align="center"><font size="2">128</font></td><td><b><font size="2"><a href="/movies/?id=myweekwithmarilyn.htm">My Week with Marilyn</a></font></b></td><td><font size="2"><a href="/studio/chart/?studio=weinsteincompany.htm">Wein.</a></font></td><td align="right"><font size="2"><b>$14,600,347</b></font></td><td align="right"><font size="2">630</font></td><td align="right"><font size="2">$1,750,507</font></td><td align="right"><font size="2">244</font></td><td align="right"><font size="2"><a href="/schedule/?view=bydate&release=theatrical&date=2011-11-23&p=.htm">11/23</a></font></td><td align="right"><font size="2">4/5</font></td></tr><tr bgcolor="#ffffff"><td align="center"><font size="2">129</font></td><td><b><font size="2"><a href="/movies/?id=whatsyournumber.htm">What\'s Your Number?</a></font></b></td><td><font size="2"><a href="/studio/chart/?studio=fox.htm">Fox</a></font></td><td align="right"><font size="2"><b>$14,011,084</b></font></td><td align="right"><font size="2">3,011</font></td><td align="right"><font size="2">$5,421,669</font></td><td align="right"><font size="2">3,002</font></td><td align="right"><font size="2"><a href="/schedule/?view=bydate&release=theatrical&date=2011-09-30&p=.htm">9/30</a></font></td><td align="right"><font size="2">11/24</font></td></tr><tr bgcolor="#f4f4ff"><td align="center"><font size="2">130</font></td><td><b><font size="2"><a href="/movies/?id=oneday.htm">One Day</a></font></b></td><td><font size="2"><a href="/studio/chart/?studio=focus.htm">Focus</a></font></td><td align="right"><font size="2"><b>$13,843,771</b></font></td><td align="right"><font size="2">1,725</font></td><td align="right"><font size="2">$5,079,566</font></td><td align="right"><font size="2">1,719</font></td><td align="right"><font size="2"><a href="/schedule/?view=bydate&release=theatrical&date=2011-08-19&p=.htm">8/19</a></font></td><td align="right"><font size="2">9/22</font></td></tr><tr bgcolor="#ffffff"><td align="center"><font size="2">131</font></td><td><b><font size="2"><a href="/movies/?id=warrior10.htm">Warrior</a></font></b></td><td><font size="2"><a href="/studio/chart/?studio=lionsgate.htm">LGF</a></font></td><td align="right"><font size="2"><b>$13,657,115</b></font></td><td align="right"><font size="2">1,883</font></td><td align="right"><font size="2">$5,242,107</font></td><td align="right"><font size="2">1,869</font></td><td align="right"><font size="2"><a href="/schedule/?view=bydate&release=theatrical&date=2011-09-09&p=.htm">9/9</a></font></td><td align="right"><font size="2">11/3</font></td></tr><tr bgcolor="#f4f4ff"><td align="center"><font size="2">132</font></td><td><b><font size="2"><a href="/movies/?id=treeoflife.htm">The Tree of Life</a></font></b></td><td><font size="2"><a href="/studio/chart/?studio=foxsearchlight.htm">FoxS</a></font></td><td align="right"><font size="2"><b>$13,303,319</b></font></td><td align="right"><font size="2">237</font></td><td align="right"><font size="2">$372,920</font></td><td align="right"><font size="2">4</font></td><td align="right"><font size="2"><a href="/schedule/?view=bydate&release=theatrical&date=2011-05-27&p=.htm">5/27</a></font></td><td align="right"><font size="2">10/27</font></td></tr><tr bgcolor="#ffffff"><td align="center"><font size="2">133</font></td><td><b><font size="2"><a href="/movies/?id=rumdiary.htm">The Rum Diary</a></font></b></td><td><font size="2"><a href="/studio/chart/?studio=filmdistrict.htm">FD</a></font></td><td align="right"><font size="2"><b>$13,109,815</b></font></td><td align="right"><font size="2">2,292</font></td><td align="right"><font size="2">$5,135,369</font></td><td align="right"><font size="2">2,273</font></td><td align="right"><font size="2"><a href="/schedule/?view=bydate&release=theatrical&date=2011-10-28&p=.htm">10/28</a></font></td><td align="right"><font size="2">12/22</font></td></tr><tr bgcolor="#f4f4ff"><td align="center"><font size="2">134</font></td><td><b><font size="2"><a href="/movies/?id=gleelive3d.htm">Glee The 3D Concert Movie</a></font></b></td><td><font size="2"><a href="/studio/chart/?studio=fox.htm">Fox</a></font></td><td align="right"><font size="2"><b>$11,862,398</b></font></td><td align="right"><font size="2">2,040</font></td><td align="right"><font size="2">$5,961,231</font></td><td align="right"><font size="2">2,040</font></td><td align="right"><font size="2"><a href="/schedule/?view=bydate&release=theatrical&date=2011-08-12&p=.htm">8/12</a></font></td><td align="right"><font size="2">9/29</font></td></tr><tr bgcolor="#ffffff"><td align="center"><font size="2">135</font></td><td><b><font size="2"><a href="/movies/?id=conspirator.htm">The Conspirator</a></font></b></td><td><font size="2"><a href="/studio/chart/?studio=roadsideattractions.htm">RAtt.</a></font></td><td align="right"><font size="2"><b>$11,538,204</b></font></td><td align="right"><font size="2">849</font></td><td align="right"><font size="2">$3,506,602</font></td><td align="right"><font size="2">707</font></td><td align="right"><font size="2"><a href="/schedule/?view=bydate&release=theatrical&date=2011-04-15&p=.htm">4/15</a></font></td><td align="right"><font size="2">9/15</font></td></tr><tr bgcolor="#f4f4ff"><td align="center"><font size="2">136</font></td><td><b><font size="2"><a href="/movies/?id=janeeyre2011.htm">Jane Eyre</a></font></b></td><td><font size="2"><a href="/studio/chart/?studio=focus.htm">Focus</a></font></td><td align="right"><font size="2"><b>$11,242,660</b></font></td><td align="right"><font size="2">319</font></td><td align="right"><font size="2">$182,885</font></td><td align="right"><font size="2">4</font></td><td align="right"><font size="2"><a href="/schedule/?view=bydate&release=theatrical&date=2011-03-11&p=.htm">3/11</a></font></td><td align="right"><font size="2">7/14</font></td></tr><tr bgcolor="#ffffff"><td align="center"><font size="2">137</font></td><td><b><font size="2"><a href="/movies/?id=driveangry.htm">Drive Angry</a></font></b></td><td><font size="2"><a href="/studio/chart/?studio=summitentertainment.htm">Sum.</a></font></td><td align="right"><font size="2"><b>$10,721,033</b></font></td><td align="right"><font size="2">2,290</font></td><td align="right"><font size="2">$5,187,625</font></td><td align="right"><font size="2">2,290</font></td><td align="right"><font size="2"><a href="/schedule/?view=bydate&release=theatrical&date=2011-02-25&p=.htm">2/25</a></font></td><td align="right"><font size="2">4/21</font></td></tr><tr bgcolor="#f4f4ff"><td align="center"><font size="2">138</font></td><td><b><font size="2"><a href="/movies/?id=strawdogs10.htm">Straw Dogs (2011)</a></font></b></td><td><font size="2"><a href="/studio/chart/?studio=screengems.htm">SGem</a></font></td><td align="right"><font size="2"><b>$10,324,441</b></font></td><td align="right"><font size="2">2,408</font></td><td align="right"><font size="2">$5,123,760</font></td><td align="right"><font size="2">2,408</font></td><td align="right"><font size="2"><a href="/schedule/?view=bydate&release=theatrical&date=2011-09-16&p=.htm">9/16</a></font></td><td align="right"><font size="2">10/13</font></td></tr><tr bgcolor="#ffffff"><td align="center"><font size="2">139</font></td><td><b><font size="2"><a href="/movies/?id=winwin.htm">Win Win</a></font></b></td><td><font size="2"><a href="/studio/chart/?studio=foxsearchlight.htm">FoxS</a></font></td><td align="right"><font size="2"><b>$10,179,275</b></font></td><td align="right"><font size="2">388</font></td><td align="right"><font size="2">$150,362</font></td><td align="right"><font size="2">5</font></td><td align="right"><font size="2"><a href="/schedule/?view=bydate&release=theatrical&date=2011-03-18&p=.htm">3/18</a></font></td><td align="right"><font size="2">7/17</font></td></tr><tr bgcolor="#f4f4ff"><td align="center"><font size="2">140</font></td><td><b><font size="2"><a href="/movies/?id=hoodwinked2.htm">Hoodwinked Too! Hood vs. Evil</a></font></b></td><td><font size="2"><a href="/studio/chart/?studio=weinsteincompany.htm">Wein.</a></font></td><td align="right"><font size="2"><b>$10,143,779</b></font></td><td align="right"><font size="2">2,505</font></td><td align="right"><font size="2">$4,108,630</font></td><td align="right"><font size="2">2,505</font></td><td align="right"><font size="2"><a href="/schedule/?view=bydate&release=theatrical&date=2011-04-29&p=.htm">4/29</a></font></td><td align="right"><font size="2">7/21</font></td></tr><tr bgcolor="#ffffff"><td align="center"><font size="2">141</font></td><td><b><font size="2"><a href="/movies/?id=prom.htm">Prom</a></font></b></td><td><font size="2"><a href="/studio/chart/?studio=buenavista.htm">BV</a></font></td><td align="right"><font size="2"><b>$10,130,219</b></font></td><td align="right"><font size="2">2,730</font></td><td align="right"><font size="2">$4,712,638</font></td><td align="right"><font size="2">2,730</font></td><td align="right"><font size="2"><a href="/schedule/?view=bydate&release=theatrical&date=2011-04-29&p=.htm">4/29</a></font></td><td align="right"><font size="2">6/23</font></td></tr><tr bgcolor="#f4f4ff"><td align="center"><font size="2">142</font></td><td><b><font size="2"><a href="/movies/?id=idontknowhowshedoesit.htm">I Don\'t Know How She Does It</a></font></b></td><td><font size="2"><a href="/studio/chart/?studio=weinsteincompany.htm">Wein.</a></font></td><td align="right"><font size="2"><b>$9,662,284</b></font></td><td align="right"><font size="2">2,490</font></td><td align="right"><font size="2">$4,402,201</font></td><td align="right"><font size="2">2,476</font></td><td align="right"><font size="2"><a href="/schedule/?view=bydate&release=theatrical&date=2011-09-16&p=.htm">9/16</a></font></td><td align="right"><font size="2">11/24</font></td></tr><tr bgcolor="#ffffff"><td align="center"><font size="2">143</font></td><td><b><font size="2"><a href="/movies/?id=johnnyenglish2.htm">Johnny English Reborn</a></font></b></td><td><font size="2"><a href="/studio/chart/?studio=universal.htm">Uni.</a></font></td><td align="right"><font size="2"><b>$8,305,970</b></font></td><td align="right"><font size="2">1,554</font></td><td align="right"><font size="2">$3,833,300</font></td><td align="right"><font size="2">1,552</font></td><td align="right"><font size="2"><a href="/schedule/?view=bydate&release=theatrical&date=2011-10-21&p=.htm">10/21</a></font></td><td align="right"><font size="2">11/24</font></td></tr><tr bgcolor="#f4f4ff"><td align="center"><font size="2">144</font></td><td><b><font size="2"><a href="/movies/?id=laughatmypain.htm">Kevin Hart: Laugh at My Pain</a></font></b></td><td><font size="2"><a href="/studio/chart/?studio=codeblackentertainment.htm">Code</a></font></td><td align="right"><font size="2"><b>$7,706,436</b></font></td><td align="right"><font size="2">287</font></td><td align="right"><font size="2">$1,908,420</font></td><td align="right"><font size="2">98</font></td><td align="right"><font size="2"><a href="/schedule/?view=bydate&release=theatrical&date=2011-09-09&p=.htm">9/9</a></font></td><td align="right"><font size="2">12/15</font></td></tr><tr bgcolor="#ffffff"><td align="center"><font size="2">145</font></td><td><b><font size="2"><a href="/movies/?id=sarahskey.htm">Sarah\'s Key</a></font></b></td><td><font size="2"><a href="/studio/chart/?studio=weinsteincompany.htm">Wein.</a></font></td><td align="right"><font size="2"><b>$7,693,187</b></font></td><td align="right"><font size="2">319</font></td><td align="right"><font size="2">$115,708</font></td><td align="right"><font size="2">5</font></td><td align="right"><font size="2"><a href="/schedule/?view=bydate&release=theatrical&date=2011-07-22&p=.htm">7/22</a></font></td><td align="right"><font size="2">12/8</font></td></tr><tr bgcolor="#f4f4ff"><td align="center"><font size="2">146</font></td><td><b><font size="2"><a href="/movies/?id=bigyear.htm">The Big Year</a></font></b></td><td><font size="2"><a href="/studio/chart/?studio=fox.htm">Fox</a></font></td><td align="right"><font size="2"><b>$7,204,138</b></font></td><td align="right"><font size="2">2,150</font></td><td align="right"><font size="2">$3,251,884</font></td><td align="right"><font size="2">2,150</font></td><td align="right"><font size="2"><a href="/schedule/?view=bydate&release=theatrical&date=2011-10-14&p=.htm">10/14</a></font></td><td align="right"><font size="2">12/1</font></td></tr><tr bgcolor="#ffffff"><td align="center"><font size="2">147</font></td><td><b><font size="2"><a href="/movies/?id=aseperation.htm">A Separation</a></font></b></td><td><font size="2"><a href="/studio/chart/?studio=sonyclassics.htm">SPC</a></font></td><td align="right"><font size="2"><b>$7,099,055</b></font></td><td align="right"><font size="2">282</font></td><td align="right"><font size="2">$59,481</font></td><td align="right"><font size="2">3</font></td><td align="right"><font size="2"><a href="/schedule/?view=bydate&release=theatrical&date=2011-12-30&p=.htm">12/30</a></font></td><td align="right"><font size="2">6/21</font></td></tr><tr bgcolor="#f4f4ff"><td align="center"><font size="2">148</font></td><td><b><font size="2"><a href="/movies/?id=kidsinamerica2011.htm">Take Me Home Tonight</a></font></b></td><td><font size="2"><a href="/studio/chart/?studio=relativity.htm">Rela.</a></font></td><td align="right"><font size="2"><b>$6,928,068</b></font></td><td align="right"><font size="2">2,003</font></td><td align="right"><font size="2">$3,464,679</font></td><td align="right"><font size="2">2,003</font></td><td align="right"><font size="2"><a href="/schedule/?view=bydate&release=theatrical&date=2011-03-04&p=.htm">3/4</a></font></td><td align="right"><font size="2">4/21</font></td></tr><tr bgcolor="#ffffff"><td align="center"><font size="2">149</font></td><td><b><font size="2"><a href="/movies/?id=cedarrapids.htm">Cedar Rapids</a></font></b></td><td><font size="2"><a href="/studio/chart/?studio=foxsearchlight.htm">FoxS</a></font></td><td align="right"><font size="2"><b>$6,861,102</b></font></td><td align="right"><font size="2">462</font></td><td align="right"><font size="2">$302,968</font></td><td align="right"><font size="2">15</font></td><td align="right"><font size="2"><a href="/schedule/?view=bydate&release=theatrical&date=2011-02-11&p=.htm">2/11</a></font></td><td align="right"><font size="2">5/26</font></td></tr><tr bgcolor="#f4f4ff"><td align="center"><font size="2">150</font></td><td><b><font size="2"><a href="/movies/?id=beginners.htm">Beginners</a></font></b></td><td><font size="2"><a href="/studio/chart/?studio=focus.htm">Focus</a></font></td><td align="right"><font size="2"><b>$5,790,894</b></font></td><td align="right"><font size="2">170</font></td><td align="right"><font size="2">$141,340</font></td><td align="right"><font size="2">5</font></td><td align="right"><font size="2"><a href="/schedule/?view=bydate&release=theatrical&date=2011-06-03&p=.htm">6/3</a></font></td><td align="right"><font size="2">9/8</font></td></tr><tr bgcolor="#ffffff"><td align="center"><font size="2">151</font></td><td><b><font size="2"><a href="/movies/?id=flyingmonsters.htm">Flying Monsters</a></font></b></td><td><font size="2"><a href="/studio/chart/?studio=nationalgeographiccinema.htm">NGE</a></font></td><td align="right"><font size="2"><b>$5,705,874</b></font></td><td align="right"><font size="2">27</font></td><td align="right"><font size="2">N/A</font></td><td align="right"><font size="2">6</font></td><td align="right"><font size="2"><a href="/schedule/?view=bydate&release=theatrical&date=2011-10-07&p=.htm">10/7</a></font></td><td align="right"><font size="2">-</font></td></tr><tr bgcolor="#f4f4ff"><td align="center"><font size="2">152</font></td><td><b><font size="2"><a href="/movies/?id=dangerousmethod.htm">A Dangerous Method</a></font></b></td><td><font size="2"><a href="/studio/chart/?studio=sonyclassics.htm">SPC</a></font></td><td align="right"><font size="2"><b>$5,704,709</b></font></td><td align="right"><font size="2">365</font></td><td align="right"><font size="2">$167,953</font></td><td align="right"><font size="2">4</font></td><td align="right"><font size="2"><a href="/schedule/?view=bydate&release=theatrical&date=2011-11-23&p=.htm">11/23</a></font></td><td align="right"><font size="2">5/3</font></td></tr><tr bgcolor="#ffffff"><td align="center"><font size="2">153</font></td><td><b><font size="2"><a href="/movies/?id=guard.htm">The Guard</a></font></b></td><td><font size="2"><a href="/studio/chart/?studio=sonyclassics.htm">SPC</a></font></td><td align="right"><font size="2"><b>$5,360,274</b></font></td><td align="right"><font size="2">203</font></td><td align="right"><font size="2">$76,834</font></td><td align="right"><font size="2">4</font></td><td align="right"><font size="2"><a href="/schedule/?view=bydate&release=theatrical&date=2011-07-29&p=.htm">7/29</a></font></td><td align="right"><font size="2">2/9</font></td></tr><tr bgcolor="#f4f4ff"><td align="center"><font size="2">154</font></td><td><b><font size="2"><a href="/movies/?id=margincall.htm">Margin Call</a></font></b></td><td><font size="2"><a href="/studio/chart/?studio=roadsideattractions.htm">RAtt.</a></font></td><td align="right"><font size="2"><b>$5,354,039</b></font></td><td align="right"><font size="2">199</font></td><td align="right"><font size="2">$561,906</font></td><td align="right"><font size="2">56</font></td><td align="right"><font size="2"><a href="/schedule/?view=bydate&release=theatrical&date=2011-10-21&p=.htm">10/21</a></font></td><td align="right"><font size="2">2/16</font></td></tr><tr bgcolor="#ffffff"><td align="center"><font size="2">155</font></td><td><b><font size="2"><a href="/movies/?id=caveofforgottendreams.htm">Cave of Forgotten Dreams</a></font></b></td><td><font size="2"><a href="/studio/chart/?studio=ifc.htm">IFC</a></font></td><td align="right"><font size="2"><b>$5,304,920</b></font></td><td align="right"><font size="2">123</font></td><td align="right"><font size="2">$139,101</font></td><td align="right"><font size="2">5</font></td><td align="right"><font size="2"><a href="/schedule/?view=bydate&release=theatrical&date=2011-04-29&p=.htm">4/29</a></font></td><td align="right"><font size="2">8/25</font></td></tr><tr bgcolor="#f4f4ff"><td align="center"><font size="2">156</font></td><td><b><font size="2"><a href="/movies/?id=biutiful.htm">Biutiful</a></font></b></td><td><font size="2"><a href="/studio/chart/?studio=roadsideattractions.htm">RAtt.</a></font></td><td align="right"><font size="2"><b>$5,101,237</b></font></td><td align="right"><font size="2">191</font></td><td align="right"><font size="2">$457,206</font></td><td align="right"><font size="2">59</font></td><td align="right"><font size="2"><a href="/schedule/?view=bydate&release=theatrical&date=2011-01-28&p=.htm">1/28</a></font></td><td align="right"><font size="2">6/9</font></td></tr><tr bgcolor="#ffffff"><td align="center"><font size="2">157</font></td><td><b><font size="2"><a href="/movies/?id=atlasshrugged.htm">Atlas Shrugged: Part I</a></font></b></td><td><font size="2"><a href="/studio/chart/?studio=rockymountainpictures.htm">RM</a></font></td><td align="right"><font size="2"><b>$4,627,375</b></font></td><td align="right"><font size="2">465</font></td><td align="right"><font size="2">$1,686,347</font></td><td align="right"><font size="2">299</font></td><td align="right"><font size="2"><a href="/schedule/?view=bydate&release=theatrical&date=2011-04-15&p=.htm">4/15</a></font></td><td align="right"><font size="2">5/19</font></td></tr><tr bgcolor="#f4f4ff"><td align="center"><font size="2">158</font></td><td><b><font size="2"><a href="/movies/?id=anonymous.htm">Anonymous</a></font></b></td><td><font size="2"><a href="/studio/chart/?studio=sony.htm">Sony</a></font></td><td align="right"><font size="2"><b>$4,463,292</b></font></td><td align="right"><font size="2">513</font></td><td align="right"><font size="2">$1,021,768</font></td><td align="right"><font size="2">265</font></td><td align="right"><font size="2"><a href="/schedule/?view=bydate&release=theatrical&date=2011-10-28&p=.htm">10/28</a></font></td><td align="right"><font size="2">12/15</font></td></tr><tr bgcolor="#ffffff"><td align="center"><font size="2">159</font></td><td><b><font size="2"><a href="/movies/?id=companymen.htm">The Company Men</a></font></b></td><td><font size="2"><a href="/studio/chart/?studio=weinsteincompany.htm">Wein.</a></font></td><td align="right"><font size="2"><b>$4,441,272</b></font></td><td align="right"><font size="2">277</font></td><td align="right"><font size="2">$647,797</font></td><td align="right"><font size="2">106</font></td><td align="right"><font size="2"><a href="/schedule/?view=bydate&release=theatrical&date=2011-01-21&p=.htm">1/21</a></font></td><td align="right"><font size="2">5/19</font></td></tr><tr bgcolor="#f4f4ff"><td align="center"><font size="2">160</font></td><td><b><font size="2"><a href="/movies/?id=barneysversion.htm">Barney\'s Version (U.S. only)</a></font></b></td><td><font size="2"><a href="/studio/chart/?studio=sonyclassics.htm">SPC</a></font></td><td align="right"><font size="2"><b>$4,439,201</b></font></td><td align="right"><font size="2">281</font></td><td align="right"><font size="2">$65,241</font></td><td align="right"><font size="2">4</font></td><td align="right"><font size="2"><a href="/schedule/?view=bydate&release=theatrical&date=2011-01-14&p=.htm">1/14</a></font></td><td align="right"><font size="2">6/23</font></td></tr><tr bgcolor="#ffffff"><td align="center"><font size="2">161</font></td><td><b><font size="2"><a href="/movies/?id=way2011.htm">The Way</a></font></b></td><td><font size="2"><a href="/studio/chart/?studio=pda.htm">PDA</a></font></td><td align="right"><font size="2"><b>$4,430,765</b></font></td><td align="right"><font size="2">283</font></td><td align="right"><font size="2">$110,418</font></td><td align="right"><font size="2">33</font></td><td align="right"><font size="2"><a href="/schedule/?view=bydate&release=theatrical&date=2011-10-07&p=.htm">10/7</a></font></td><td align="right"><font size="2">3/15</font></td></tr><tr bgcolor="#f4f4ff"><td align="center"><font size="2">162</font></td><td><b><font size="2"><a href="/movies/?id=sevendaysinutopia.htm">Seven Days in Utopia</a></font></b></td><td><font size="2"><a href="/studio/chart/?studio=visioentertainment.htm">Visio</a></font></td><td align="right"><font size="2"><b>$4,373,074</b></font></td><td align="right"><font size="2">561</font></td><td align="right"><font size="2">$1,316,910</font></td><td align="right"><font size="2">561</font></td><td align="right"><font size="2"><a href="/schedule/?view=bydate&release=theatrical&date=2011-09-02&p=.htm">9/2</a></font></td><td align="right"><font size="2">11/3</font></td></tr><tr bgcolor="#ffffff"><td align="center"><font size="2">163</font></td><td><b><font size="2"><a href="/movies/?id=buck.htm">Buck</a></font></b></td><td><font size="2"><a href="/studio/chart/?studio=ifc.htm">IFC</a></font></td><td align="right"><font size="2"><b>$4,038,912</b></font></td><td align="right"><font size="2">152</font></td><td align="right"><font size="2">$67,548</font></td><td align="right"><font size="2">4</font></td><td align="right"><font size="2"><a href="/schedule/?view=bydate&release=theatrical&date=2011-06-17&p=.htm">6/17</a></font></td><td align="right"><font size="2">9/25</font></td></tr><tr bgcolor="#f4f4ff"><td align="center"><font size="2">164</font></td><td><b><font size="2"><a href="/movies/?id=ofgodsandmen.htm">Of Gods and Men</a></font></b></td><td><font size="2"><a href="/studio/chart/?studio=sonyclassics.htm">SPC</a></font></td><td align="right"><font size="2"><b>$3,954,651</b></font></td><td align="right"><font size="2">120</font></td><td align="right"><font size="2">$308,895</font></td><td align="right"><font size="2">33</font></td><td align="right"><font size="2"><a href="/schedule/?view=bydate&release=theatrical&date=2011-02-25&p=.htm">2/25</a></font></td><td align="right"><font size="2">7/7</font></td></tr><tr bgcolor="#ffffff"><td align="center"><font size="2">165</font></td><td><b><font size="2"><a href="/movies/?id=shame.htm">Shame</a></font></b></td><td><font size="2"><a href="/studio/chart/?studio=foxsearchlight.htm">FoxS</a></font></td><td align="right"><font size="2"><b>$3,909,002</b></font></td><td align="right"><font size="2">95</font></td><td align="right"><font size="2">$349,519</font></td><td align="right"><font size="2">10</font></td><td align="right"><font size="2"><a href="/schedule/?view=bydate&release=theatrical&date=2011-12-02&p=.htm">12/2</a></font></td><td align="right"><font size="2">3/15</font></td></tr><tr bgcolor="#f4f4ff"><td align="center"><font size="2">166</font></td><td><b><font size="2"><a href="/movies/?id=don2.htm">Don 2</a></font></b></td><td><font size="2"><a href="/studio/chart/?studio=reliancebigpictures.htm">Relbig.</a></font></td><td align="right"><font size="2"><b>$3,680,306</b></font></td><td align="right"><font size="2">167</font></td><td align="right"><font size="2">$1,673,921</font></td><td align="right"><font size="2">157</font></td><td align="right"><font size="2"><a href="/schedule/?view=bydate&release=theatrical&date=2011-12-22&p=.htm">12/22</a></font></td><td align="right"><font size="2">2/2</font></td></tr><tr bgcolor="#ffffff"><td align="center"><font size="2">167</font></td><td><b><font size="2"><a href="/movies/?id=pina.htm">Pina</a></font></b></td><td><font size="2"><a href="/studio/chart/?studio=ifc.htm">IFC</a></font></td><td align="right"><font size="2"><b>$3,524,826</b></font></td><td align="right"><font size="2">84</font></td><td align="right"><font size="2">$68,012</font></td><td align="right"><font size="2">3</font></td><td align="right"><font size="2"><a href="/schedule/?view=bydate&release=theatrical&date=2011-12-23&p=.htm">12/23</a></font></td><td align="right"><font size="2">5/10</font></td></tr><tr bgcolor="#f4f4ff"><td align="center"><font size="2">168</font></td><td><b><font size="2"><a href="/movies/?id=likecrazy.htm">Like Crazy</a></font></b></td><td><font size="2"><a href="/studio/chart/?studio=paramountvantage.htm">ParV</a></font></td><td align="right"><font size="2"><b>$3,395,391</b></font></td><td align="right"><font size="2">162</font></td><td align="right"><font size="2">$123,140</font></td><td align="right"><font size="2">4</font></td><td align="right"><font size="2"><a href="/schedule/?view=bydate&release=theatrical&date=2011-10-28&p=.htm">10/28</a></font></td><td align="right"><font size="2">1/12</font></td></tr><tr bgcolor="#ffffff"><td align="center"><font size="2">169</font></td><td><b><font size="2"><a href="/movies/?id=kingsspeechpg13.htm">The King\'s Speech (PG-13)</a></font></b></td><td><font size="2"><a href="/studio/chart/?studio=weinsteincompany.htm">Wein.</a></font></td><td align="right"><font size="2"><b>$3,344,306</b></font></td><td align="right"><font size="2">1,011</font></td><td align="right"><font size="2">$1,133,162</font></td><td align="right"><font size="2">1,011</font></td><td align="right"><font size="2"><a href="/schedule/?view=bydate&release=theatrical&date=2011-04-01&p=.htm">4/1</a></font></td><td align="right"><font size="2">6/16</font></td></tr><tr bgcolor="#f4f4ff"><td align="center"><font size="2">170</font></td><td><b><font size="2"><a href="/movies/?id=skinilivein.htm">The Skin I Live In</a></font></b></td><td><font size="2"><a href="/studio/chart/?studio=sonyclassics.htm">SPC</a></font></td><td align="right"><font size="2"><b>$3,185,812</b></font></td><td align="right"><font size="2">116</font></td><td align="right"><font size="2">$223,119</font></td><td align="right"><font size="2">6</font></td><td align="right"><font size="2"><a href="/schedule/?view=bydate&release=theatrical&date=2011-10-14&p=.htm">10/14</a></font></td><td align="right"><font size="2">3/29</font></td></tr><tr bgcolor="#ffffff"><td align="center"><font size="2">171</font></td><td><b><font size="2"><a href="/movies/?id=zindagi.htm">Zindagi Na Milegi Dobara</a></font></b></td><td><font size="2"><a href="/studio/chart/?studio=eros.htm">Eros</a></font></td><td align="right"><font size="2"><b>$3,108,485</b></font></td><td align="right"><font size="2">100</font></td><td align="right"><font size="2">$960,548</font></td><td align="right"><font size="2">100</font></td><td align="right"><font size="2"><a href="/schedule/?view=bydate&release=theatrical&date=2011-07-15&p=.htm">7/15</a></font></td><td align="right"><font size="2">9/22</font></td></tr><tr bgcolor="#f4f4ff"><td align="center"><font size="2">172</font></td><td><b><font size="2"><a href="/movies/?id=frompradatonada.htm">From Prada to Nada</a></font></b></td><td><font size="2"><a href="/studio/chart/?studio=lionsgate.htm">LGF</a></font></td><td align="right"><font size="2"><b>$3,033,623</b></font></td><td align="right"><font size="2">261</font></td><td align="right"><font size="2">$1,115,638</font></td><td align="right"><font size="2">256</font></td><td align="right"><font size="2"><a href="/schedule/?view=bydate&release=theatrical&date=2011-01-28&p=.htm">1/28</a></font></td><td align="right"><font size="2">3/31</font></td></tr><tr bgcolor="#ffffff"><td align="center"><font size="2">173</font></td><td><b><font size="2"><a href="/movies/?id=melancholia.htm">Melancholia</a></font></b></td><td><font size="2"><a href="/studio/chart/?studio=magnolia.htm">Magn.</a></font></td><td align="right"><font size="2"><b>$3,030,848</b></font></td><td align="right"><font size="2">145</font></td><td align="right"><font size="2">$257,174</font></td><td align="right"><font size="2">19</font></td><td align="right"><font size="2"><a href="/schedule/?view=bydate&release=theatrical&date=2011-11-11&p=.htm">11/11</a></font></td><td align="right"><font size="2">3/1</font></td></tr><tr bgcolor="#f4f4ff"><td align="center"><font size="2">174</font></td><td><b><font size="2"><a href="/movies/?id=marthamarcymaymarlene.htm">Martha Marcy May Marlene</a></font></b></td><td><font size="2"><a href="/studio/chart/?studio=foxsearchlight.htm">FoxS</a></font></td><td align="right"><font size="2"><b>$2,990,625</b></font></td><td align="right"><font size="2">183</font></td><td align="right"><font size="2">$137,651</font></td><td align="right"><font size="2">4</font></td><td align="right"><font size="2"><a href="/schedule/?view=bydate&release=theatrical&date=2011-10-21&p=.htm">10/21</a></font></td><td align="right"><font size="2">12/29</font></td></tr><tr bgcolor="#ffffff"><td align="center"><font size="2">175</font></td><td><b><font size="2"><a href="/movies/?id=everythingmustgo.htm">Everything Must Go</a></font></b></td><td><font size="2"><a href="/studio/chart/?studio=roadsideattractions.htm">RAtt.</a></font></td><td align="right"><font size="2"><b>$2,711,643</b></font></td><td align="right"><font size="2">245</font></td><td align="right"><font size="2">$791,676</font></td><td align="right"><font size="2">218</font></td><td align="right"><font size="2"><a href="/schedule/?view=bydate&release=theatrical&date=2011-05-13&p=.htm">5/13</a></font></td><td align="right"><font size="2">9/15</font></td></tr><tr bgcolor="#f4f4ff"><td align="center"><font size="2">176</font></td><td><b><font size="2"><a href="/movies/?id=wayback.htm">The Way Back</a></font></b></td><td><font size="2"><a href="/studio/chart/?studio=newmarket.htm">NM</a></font></td><td align="right"><font size="2"><b>$2,701,859</b></font></td><td align="right"><font size="2">678</font></td><td align="right"><font size="2">$1,218,868</font></td><td align="right"><font size="2">678</font></td><td align="right"><font size="2"><a href="/schedule/?view=bydate&release=theatrical&date=2011-01-21&p=.htm">1/21</a></font></td><td align="right"><font size="2">3/3</font></td></tr><tr bgcolor="#ffffff"><td align="center"><font size="2">177</font></td><td><b><font size="2"><a href="/movies/?id=carnage2011.htm">Carnage (2011)</a></font></b></td><td><font size="2"><a href="/studio/chart/?studio=sonyclassics.htm">SPC</a></font></td><td align="right"><font size="2"><b>$2,547,047</b></font></td><td align="right"><font size="2">494</font></td><td align="right"><font size="2">$79,795</font></td><td align="right"><font size="2">5</font></td><td align="right"><font size="2"><a href="/schedule/?view=bydate&release=theatrical&date=2011-12-16&p=.htm">12/16</a></font></td><td align="right"><font size="2">5/3</font></td></tr><tr bgcolor="#f4f4ff"><td align="center"><font size="2">178</font></td><td><b><font size="2"><a href="/movies/?id=borntobeastar.htm">Bucky Larson: Born to Be a Star</a></font></b></td><td><font size="2"><a href="/studio/chart/?studio=sony.htm">Sony</a></font></td><td align="right"><font size="2"><b>$2,529,395</b></font></td><td align="right"><font size="2">1,500</font></td><td align="right"><font size="2">$1,415,023</font></td><td align="right"><font size="2">1,500</font></td><td align="right"><font size="2"><a href="/schedule/?view=bydate&release=theatrical&date=2011-09-09&p=.htm">9/9</a></font></td><td align="right"><font size="2">9/22</font></td></tr><tr bgcolor="#ffffff"><td align="center"><font size="2">179</font></td><td><b><font size="2"><a href="/movies/?id=raone.htm">RA One</a></font></b></td><td><font size="2"><a href="/studio/chart/?studio=eros.htm">Eros</a></font></td><td align="right"><font size="2"><b>$2,511,689</b></font></td><td align="right"><font size="2">189</font></td><td align="right"><font size="2">N/A</font></td><td align="right"><font size="2">189</font></td><td align="right"><font size="2"><a href="/schedule/?view=bydate&release=theatrical&date=2011-10-26&p=.htm">10/26</a></font></td><td align="right"><font size="2">12/1</font></td></tr><tr bgcolor="#f4f4ff"><td align="center"><font size="2">180</font></td><td><b><font size="2"><a href="/movies/?id=gracecard.htm">The Grace Card</a></font></b></td><td><font size="2"><a href="/studio/chart/?studio=samuelgoldwyn.htm">Gold.</a></font></td><td align="right"><font size="2"><b>$2,430,735</b></font></td><td align="right"><font size="2">352</font></td><td align="right"><font size="2">$1,010,299</font></td><td align="right"><font size="2">352</font></td><td align="right"><font size="2"><a href="/schedule/?view=bydate&release=theatrical&date=2011-02-25&p=.htm">2/25</a></font></td><td align="right"><font size="2">4/21</font></td></tr><tr bgcolor="#ffffff"><td align="center"><font size="2">181</font></td><td><b><font size="2"><a href="/movies/?id=incendies.htm">Incendies (U.S. only)</a></font></b></td><td><font size="2"><a href="/studio/chart/?studio=sonyclassics.htm">SPC</a></font></td><td align="right"><font size="2"><b>$2,071,334</b></font></td><td align="right"><font size="2">90</font></td><td align="right"><font size="2">$50,679</font></td><td align="right"><font size="2">3</font></td><td align="right"><font size="2"><a href="/schedule/?view=bydate&release=theatrical&date=2011-04-22&p=.htm">4/22</a></font></td><td align="right"><font size="2">9/29</font></td></tr><tr bgcolor="#f4f4ff"><td align="center"><font size="2">182</font></td><td><b><font size="2"><a href="/movies/?id=trip2011.htm">The Trip (2011)</a></font></b></td><td><font size="2"><a href="/studio/chart/?studio=ifc.htm">IFC</a></font></td><td align="right"><font size="2"><b>$2,030,962</b></font></td><td align="right"><font size="2">62</font></td><td align="right"><font size="2">$77,904</font></td><td align="right"><font size="2">6</font></td><td align="right"><font size="2"><a href="/schedule/?view=bydate&release=theatrical&date=2011-06-10&p=.htm">6/10</a></font></td><td align="right"><font size="2">10/10</font></td></tr><tr bgcolor="#ffffff"><td align="center"><font size="2">183</font></td><td><b><font size="2"><a href="/movies/?id=mightymacs.htm">The Mighty Macs</a></font></b></td><td><font size="2"><a href="/studio/chart/?studio=quakermedia.htm">QM</a></font></td><td align="right"><font size="2"><b>$1,891,936</b></font></td><td align="right"><font size="2">975</font></td><td align="right"><font size="2">$963,221</font></td><td align="right"><font size="2">975</font></td><td align="right"><font size="2"><a href="/schedule/?view=bydate&release=theatrical&date=2011-10-21&p=.htm">10/21</a></font></td><td align="right"><font size="2">12/1</font></td></tr><tr bgcolor="#f4f4ff"><td align="center"><font size="2">184</font></td><td><b><font size="2"><a href="/movies/?id=bodyguard2011.htm">Bodyguard</a></font></b></td><td><font size="2"><a href="/studio/chart/?studio=reliancebigpictures.htm">Relbig.</a></font></td><td align="right"><font size="2"><b>$1,834,384</b></font></td><td align="right"><font size="2">88</font></td><td align="right"><font size="2">$863,751</font></td><td align="right"><font size="2">88</font></td><td align="right"><font size="2"><a href="/schedule/?view=bydate&release=theatrical&date=2011-08-31&p=.htm">8/31</a></font></td><td align="right"><font size="2">9/29</font></td></tr><tr bgcolor="#ffffff"><td align="center"><font size="2">185</font></td><td><b><font size="2"><a href="/movies/?id=abetterlife.htm">A Better Life</a></font></b></td><td><font size="2"><a href="/studio/chart/?studio=summitentertainment.htm">Sum.</a></font></td><td align="right"><font size="2"><b>$1,759,252</b></font></td><td align="right"><font size="2">216</font></td><td align="right"><font size="2">$62,087</font></td><td align="right"><font size="2">4</font></td><td align="right"><font size="2"><a href="/schedule/?view=bydate&release=theatrical&date=2011-06-24&p=.htm">6/24</a></font></td><td align="right"><font size="2">9/1</font></td></tr><tr bgcolor="#f4f4ff"><td align="center"><font size="2">186</font></td><td><b><font size="2"><a href="/movies/?id=weneedtotalkaboutkevin.htm">We Need to Talk About Kevin</a></font></b></td><td><font size="2"><a href="/studio/chart/?studio=oscilloscopepictures.htm">Osci.</a></font></td><td align="right"><font size="2"><b>$1,738,692</b></font></td><td align="right"><font size="2">80</font></td><td align="right"><font size="2">$24,587</font></td><td align="right"><font size="2">1</font></td><td align="right"><font size="2"><a href="/schedule/?view=bydate&release=theatrical&date=2011-12-09&p=.htm">12/9</a></font></td><td align="right"><font size="2">5/20</font></td></tr><tr bgcolor="#ffffff"><td align="center"><font size="2">187</font></td><td><b><font size="2"><a href="/movies/?id=takeshelter.htm">Take Shelter</a></font></b></td><td><font size="2"><a href="/studio/chart/?studio=sonyclassics.htm">SPC</a></font></td><td align="right"><font size="2"><b>$1,730,296</b></font></td><td align="right"><font size="2">91</font></td><td align="right"><font size="2">$52,041</font></td><td align="right"><font size="2">3</font></td><td align="right"><font size="2"><a href="/schedule/?view=bydate&release=theatrical&date=2011-09-30&p=.htm">9/30</a></font></td><td align="right"><font size="2">3/22</font></td></tr><tr bgcolor="#f4f4ff"><td align="center"><font size="2">188</font></td><td><b><font size="2"><a href="/movies/?id=potiche.htm">Potiche</a></font></b></td><td><font size="2"><a href="/studio/chart/?studio=musicboxfilms.htm">MBox</a></font></td><td align="right"><font size="2"><b>$1,618,844</b></font></td><td align="right"><font size="2">74</font></td><td align="right"><font size="2">$86,017</font></td><td align="right"><font size="2">7</font></td><td align="right"><font size="2"><a href="/schedule/?view=bydate&release=theatrical&date=2011-03-25&p=.htm">3/25</a></font></td><td align="right"><font size="2">8/4</font></td></tr><tr bgcolor="#ffffff"><td align="center"><font size="2">189</font></td><td><b><font size="2"><a href="/movies/?id=senna.htm">Senna</a></font></b></td><td><font size="2"><a href="/studio/chart/?studio=pda.htm">PDA</a></font></td><td align="right"><font size="2"><b>$1,612,430</b></font></td><td align="right"><font size="2">47</font></td><td align="right"><font size="2">$73,497</font></td><td align="right"><font size="2">2</font></td><td align="right"><font size="2"><a href="/schedule/?view=bydate&release=theatrical&date=2011-08-12&p=.htm">8/12</a></font></td><td align="right"><font size="2">12/1</font></td></tr><tr bgcolor="#f4f4ff"><td align="center"><font size="2">190</font></td><td><b><font size="2"><a href="/movies/?id=iam.htm">I Am</a></font></b></td><td><font size="2"><a href="/studio/chart/?studio=paladin.htm">Pala.</a></font></td><td align="right"><font size="2"><b>$1,591,034</b></font></td><td align="right"><font size="2">74</font></td><td align="right"><font size="2">$10,092</font></td><td align="right"><font size="2">1</font></td><td align="right"><font size="2"><a href="/schedule/?view=bydate&release=theatrical&date=2011-02-18&p=.htm">2/18</a></font></td><td align="right"><font size="2">8/4</font></td></tr><tr bgcolor="#ffffff"><td align="center"><font size="2">191</font></td><td><b><font size="2"><a href="/movies/?id=delhibelly.htm">Delhi Belly</a></font></b></td><td><font size="2"><a href="/studio/chart/?studio=utv.htm">UTV</a></font></td><td align="right"><font size="2"><b>$1,532,594</b></font></td><td align="right"><font size="2">90</font></td><td align="right"><font size="2">$581,943</font></td><td align="right"><font size="2">89</font></td><td align="right"><font size="2"><a href="/schedule/?view=bydate&release=theatrical&date=2011-07-01&p=.htm">7/1</a></font></td><td align="right"><font size="2">8/11</font></td></tr><tr bgcolor="#f4f4ff"><td align="center"><font size="2">192</font></td><td><b><font size="2"><a href="/movies/?id=doublehour.htm">The Double Hour</a></font></b></td><td><font size="2"><a href="/studio/chart/?studio=samuelgoldwyn.htm">Gold.</a></font></td><td align="right"><font size="2"><b>$1,514,942</b></font></td><td align="right"><font size="2">68</font></td><td align="right"><font size="2">$30,246</font></td><td align="right"><font size="2">2</font></td><td align="right"><font size="2"><a href="/schedule/?view=bydate&release=theatrical&date=2011-04-15&p=.htm">4/15</a></font></td><td align="right"><font size="2">8/25</font></td></tr><tr bgcolor="#ffffff"><td align="center"><font size="2">193</font></td><td><b><font size="2"><a href="/movies/?id=billcunninghamnewyork.htm">Bill Cunningham New York</a></font></b></td><td><font size="2"><a href="/studio/chart/?studio=zeitgeist.htm">Zeit.</a></font></td><td align="right"><font size="2"><b>$1,510,026</b></font></td><td align="right"><font size="2">34</font></td><td align="right"><font size="2">$33,677</font></td><td align="right"><font size="2">1</font></td><td align="right"><font size="2"><a href="/schedule/?view=bydate&release=theatrical&date=2011-03-16&p=.htm">3/16</a></font></td><td align="right"><font size="2">12/1</font></td></tr><tr bgcolor="#f4f4ff"><td align="center"><font size="2">194</font></td><td><b><font size="2"><a href="/movies/?id=homework2011.htm">The Art of Getting By</a></font></b></td><td><font size="2"><a href="/studio/chart/?studio=foxsearchlight.htm">FoxS</a></font></td><td align="right"><font size="2"><b>$1,430,241</b></font></td><td align="right"><font size="2">610</font></td><td align="right"><font size="2">$679,160</font></td><td align="right"><font size="2">610</font></td><td align="right"><font size="2"><a href="/schedule/?view=bydate&release=theatrical&date=2011-06-17&p=.htm">6/17</a></font></td><td align="right"><font size="2">7/14</font></td></tr><tr bgcolor="#ffffff"><td align="center"><font size="2">195</font></td><td><b><font size="2"><a href="/movies/?id=savingprivateperez.htm">Saving Private Perez</a></font></b></td><td><font size="2"><a href="/studio/chart/?studio=lionsgate.htm">LGF</a></font></td><td align="right"><font size="2"><b>$1,400,726</b></font></td><td align="right"><font size="2">165</font></td><td align="right"><font size="2">$664,517</font></td><td align="right"><font size="2">161</font></td><td align="right"><font size="2"><a href="/schedule/?view=bydate&release=theatrical&date=2011-09-02&p=.htm">9/2</a></font></td><td align="right"><font size="2">9/29</font></td></tr><tr bgcolor="#f4f4ff"><td align="center"><font size="2">196</font></td><td><b><font size="2"><a href="/movies/?id=certifiedcopy.htm">Certified Copy</a></font></b></td><td><font size="2"><a href="/studio/chart/?studio=ifc.htm">IFC</a></font></td><td align="right"><font size="2"><b>$1,373,975</b></font></td><td align="right"><font size="2">57</font></td><td align="right"><font size="2">$77,937</font></td><td align="right"><font size="2">5</font></td><td align="right"><font size="2"><a href="/schedule/?view=bydate&release=theatrical&date=2011-03-11&p=.htm">3/11</a></font></td><td align="right"><font size="2">6/16</font></td></tr><tr bgcolor="#ffffff"><td align="center"><font size="2">197</font></td><td><b><font size="2"><a href="/movies/?id=devilsdouble.htm">The Devil\'s Double</a></font></b></td><td><font size="2"><a href="/studio/chart/?studio=lionsgate.htm">LGF</a></font></td><td align="right"><font size="2"><b>$1,361,512</b></font></td><td align="right"><font size="2">89</font></td><td align="right"><font size="2">$96,414</font></td><td align="right"><font size="2">5</font></td><td align="right"><font size="2"><a href="/schedule/?view=bydate&release=theatrical&date=2011-07-29&p=.htm">7/29</a></font></td><td align="right"><font size="2">9/29</font></td></tr><tr bgcolor="#f4f4ff"><td align="center"><font size="2">198</font></td><td><b><font size="2"><a href="/movies/?id=2011oscarshorts.htm">2011 Oscar Shorts</a></font></b></td><td><font size="2"><a href="/studio/chart/?studio=shortsinternational.htm">Shrts.</a></font></td><td align="right"><font size="2"><b>$1,352,152</b></font></td><td align="right"><font size="2">117</font></td><td align="right"><font size="2">$300,706</font></td><td align="right"><font size="2">95</font></td><td align="right"><font size="2"><a href="/schedule/?view=bydate&release=theatrical&date=2011-02-11&p=.htm">2/11</a></font></td><td align="right"><font size="2">4/14</font></td></tr><tr bgcolor="#ffffff"><td align="center"><font size="2">199</font></td><td><b><font size="2"><a href="/movies/?id=snowflower.htm">Snow Flower and the Secret Fan</a></font></b></td><td><font size="2"><a href="/studio/chart/?studio=foxsearchlight.htm">FoxS</a></font></td><td align="right"><font size="2"><b>$1,348,205</b></font></td><td align="right"><font size="2">116</font></td><td align="right"><font size="2">$134,005</font></td><td align="right"><font size="2">24</font></td><td align="right"><font size="2"><a href="/schedule/?view=bydate&release=theatrical&date=2011-07-15&p=.htm">7/15</a></font></td><td align="right"><font size="2">9/29</font></td></tr><tr bgcolor="#f4f4ff"><td align="center"><font size="2">200</font></td><td><b><font size="2"><a href="/movies/?id=noerestu.htm">No Eres Tu, Soy Yo</a></font></b></td><td><font size="2"><a href="/studio/chart/?studio=lionsgate.htm">LGF</a></font></td><td align="right"><font size="2"><b>$1,339,911</b></font></td><td align="right"><font size="2">226</font></td><td align="right"><font size="2">$588,938</font></td><td align="right"><font size="2">226</font></td><td align="right"><font size="2"><a href="/schedule/?view=bydate&release=theatrical&date=2011-04-08&p=.htm">4/8</a></font></td><td align="right"><font size="2">5/19</font></td></tr><tr bgcolor="#dcdcdc"><td colspan="9" align="center"><font size="2"><b>Summary of 602 Movies on Chart:</b></font></td></tr><tr bgcolor="#f4f4ff"><td align="right" colspan="3"><font size="2"><b>Totals:</b></td><td align="right"><font size="2">$10,112,044,194</font></td><td align="center"><font size="2">-</font></td><td align="center"><font size="2">-</font></td><td align="center"><font size="2">-</font></td><td align="center"><font size="2">-</font></td><td align="center"><font size="2">-</font></td></tr><tr bgcolor="#ffffff"><td align="right" colspan="3"><font size="2"><b>Averages:</b></td><td align="right"><font size="2">$16,797,416</font></td><td align="right"><font size="2">-</font></td><td align="right"><font size="2">-</font></td><td align="right"><font size="2">-</font></td><td align="center"><font size="2">-</font></td><td align="center"><font size="2">-</font></td></tr><tr bgcolor="#dcdcdc"><td colspan="9"><img src="/images/space.gif" width="1" height="1"></td></tr></table></td></tr><tr><td valign="bottom"><font face="Verdana" size="1"><b><a href="/yearly/chart/?yr=2010&view=releasedate&view2=domestic&sort=gross&order=DESC&&p=.htm">&lt; Previous Year</a></b></font></td><td align="center"><table border="0" cellspacing="0" cellpadding="0">\n\t\t\t\t\t<form method="POST" action="yearly.asof.php" name="asofjump">\n\t\t\t\t\t<tr><td><font face="Verdana" size="1"><br>Data as of:\n\t\t\t\t\t<select size="1" name="asof" style="font-size: 8pt">\n\t\t\t\t\t<option selected value="today">Today</option>\n\t\t\t\t\t<option  value="sametime">Today in 2011</option>\n\t\t\t\t\t<option value="2011-01-31">Jan. 31, 2011</option>\n\t\t\t\t\t<option value="2011-02-28">Feb. 28, 2011</option>\n\t\t\t\t\t<option value="2011-03-31">Mar. 31, 2011</option>\n\t\t\t\t\t<option value="2011-04-30">Apr. 30, 2011</option>\n\t\t\t\t\t<option value="2011-05-31">May 31, 2011</option>\n\t\t\t\t\t<option value="2011-06-30">Jun. 30, 2011</option>\n\t\t\t\t\t<option value="2011-07-31">Jul. 31, 2011</option>\n\t\t\t\t\t<option value="2011-08-31">Aug. 31, 2011</option>\n\t\t\t\t\t<option value="2011-09-30">Sep. 30, 2011</option>\n\t\t\t\t\t<option value="2011-10-31">Oct. 31, 2011</option>\n\t\t\t\t\t<option value="2011-11-30">Nov. 30, 2011</option>\n\t\t\t\t\t<option value="2011-12-31">Dec. 31, 2011</option>\n\t\t\t\t\t<option value="specify">Specify Date</option>\n\t\t\t\t\t<option value="about">About this feature</option>\n\t\t\t\t\t</select> or (<select size="1" name="asof_mo" style="font-size: 8pt">\n\t\t\t\t\t<option selected value="">Month</option>\n\t\t\t\t\t\n\t\t\t\t\t<option value="01">Jan.</option>\n\t\t\t\t\t<option value="02">Feb.</option>\n\t\t\t\t\t<option value="03">Mar.</option>\n\t\t\t\t\t<option value="04">Apr.</option>\n\t\t\t\t\t<option value="05">May</option>\n\t\t\t\t\t<option value="06">Jun.</option>\n\t\t\t\t\t<option value="07">Jul.</option>\n\t\t\t\t\t<option value="08">Aug.</option>\n\t\t\t\t\t<option value="09">Sep.</option>\n\t\t\t\t\t<option value="10">Oct.</option>\n\t\t\t\t\t<option value="11">Nov.</option>\n\t\t\t\t\t<option value="12">Dec.</option>\n\t\t\t\t\t</select> / <select size="1" name="asof_day" style="font-size: 8pt">\n\t\t\t\t\t<option selected value="">Day</option>\n\t\t\t\t\t<option value="01">1</option>\n\t\t\t\t\t<option value="02">2</option>\n\t\t\t\t\t<option value="03">3</option>\n\t\t\t\t\t<option value="04">4</option>\n\t\t\t\t\t<option value="05">5</option>\n\t\t\t\t\t<option value="06">6</option>\n\t\t\t\t\t<option value="07">7</option>\n\t\t\t\t\t<option value="08">8</option>\n\t\t\t\t\t<option value="09">9</option>\n\t\t\t\t\t<option value="10">10</option>\n\t\t\t\t\t<option value="11">11</option>\n\t\t\t\t\t<option value="12">12</option>\n\t\t\t\t\t<option value="13">13</option>\n\t\t\t\t\t<option value="14">14</option>\n\t\t\t\t\t<option value="15">15</option>\n\t\t\t\t\t<option value="16">16</option>\n\t\t\t\t\t<option value="17">17</option>\n\t\t\t\t\t<option value="18">18</option>\n\t\t\t\t\t<option value="19">19</option>\n\t\t\t\t\t<option value="20">20</option>\n\t\t\t\t\t<option value="21">21</option>\n\t\t\t\t\t<option value="22">22</option>\n\t\t\t\t\t<option value="23">23</option>\n\t\t\t\t\t<option value="24">24</option>\n\t\t\t\t\t<option value="25">25</option>\n\t\t\t\t\t<option value="26">26</option>\n\t\t\t\t\t<option value="27">27</option>\n\t\t\t\t\t<option value="28">28</option>\n\t\t\t\t\t<option value="29">29</option>\n\t\t\t\t\t<option value="30">30</option>\n\t\t\t\t\t<option value="31">31</option>\n\t\t\t\t\t</select> / <select size="1" name="asof_yr" style="font-size: 8pt">\n\t\t\t\t\t\t<option selected>2011</option>\n\t\t\t\t\t\t<option>2012</option>\n\t\t\t\t\t\t</select>) <input type="submit" value="Go" name="go" style="font-size: 8pt; height: 16">\n\t\t\t\t\t</font></td></tr>\n\t\t\t\t\t<input type="hidden" name="jumpstuff" value="view=releasedate&view2=domestic&yr=2011&sort=gross&order=DESC&p=.htm">\n\t\t\t\t\t<input type="hidden" name="curasof" value="today">\n\t\t\t\t\t<input type="hidden" name="yr" value="2011">\n\t\t\t\t\t</form>\n\t\t\t\t\t</table>\n\t\t\t\t</font></td><td valign="bottom" align="right"><font face="Verdana" size="1"><b><a href="/yearly/chart/?yr=2012&view=releasedate&view2=domestic&sort=gross&order=DESC&&p=.htm">Next Year &gt;</a></b></font></td></tr></table><center><font face="Verdana" size="4"><b><a href="/yearly/chart/?page=1&view=releasedate&view2=domestic&yr=2011&p=.htm">#1&#150;100</a> - <font face="Verdana" size="5">#101&#150;200</font> - <a href="/yearly/chart/?page=3&view=releasedate&view2=domestic&yr=2011&p=.htm">#201&#150;300</a> - <a href="/yearly/chart/?page=4&view=releasedate&view2=domestic&yr=2011&p=.htm">#301&#150;400</a> - <a href="/yearly/chart/?page=5&view=releasedate&view2=domestic&yr=2011&p=.htm">#401&#150;500</a> - <a href="/yearly/chart/?page=6&view=releasedate&view2=domestic&yr=2011&p=.htm">#501&#150;600</a> - <a href="/yearly/chart/?page=7&view=releasedate&view2=domestic&yr=2011&p=.htm">#601&#150;602</a></b></font></center><br><font face="Verdana" size="2">Note: <b>RELEASE DATE</b> shows all movies that opened in a given time period and their total grosses. <b>WIDE RELEASES</b> shows only movies released in 600 or more theaters and their total grosses, grouped by wide release date. <b>LIMITED RELEASES</b> shows only movies released in less than 600 theaters and their total grosses, grouped by release date. <b>CALENDAR GROSSES</b> shows all movies playing during the indicated time period, both new and holdover, and their grosses (or estimated grosses) during that time period. Movies released outside the indicated time period are shown in italics. <b><a href="/about/boxoffice.htm">Click here for a full explanation of the various box office sections</a></b></font><br><br>\n<P ALIGN="CENTER"><A HREF="/yearly/"><FONT FACE="Verdana" SIZE=2><b>back to<br>Yearly Index Page</b></FONT></A></P>\n<br>\n</td><td valign="top" align="center" width="160"><br><br><br><br><br><br><!-- begin ad tag (tile=2) -->\r\n<script type="text/javascript">\r\n//<![CDATA[\r\nord=1779486859;\r\ndocument.write(\'<iframe src="http://ad.doubleclick.net/N4215/adi/imdb2.bom.other/;p=rh;tile=2;sz=160x600,120x600,115x600;oe=ISO-8859-1;ord=\' + ord + \'?" width="160" height="600" marginwidth="0" marginheight="0" frameborder="0" scrolling="no">\');\r\n\r\nif (navigator.userAgent.indexOf("Gecko")==-1)\r\n{\r\ndocument.write(\'<script type="text/javascript" src="http://ad.doubleclick.net/N4215/adj/imdb2.bom.other/;p=rh;tile=2;sz=160x600,115x600;abr=!ie;oe=ISO-8859-1;ord=\' + ord + \'?"><\\/script>\');\r\n}\r\ndocument.write(\'</iframe>\');\r\n//]]>\r\n</script>\r\n<noscript><a href="http://ad.doubleclick.net/N4215/jump/imdb2.bom.other/;p=rh;tile=2;sz=160x600;oe=ISO-8859-1;ord=1779486859?" target="_blank" ><img src="http://ad.doubleclick.net/N4215/ad/imdb2.bom.other/;p=rh;tile=2;sz=160x600,115x600;oe=ISO-8859-1;ord=1779486859?" border="0" alt="" /></a></noscript>\r\n<!-- end ad tag --></td></tr></table><table border="0" width="100%" cellspacing="0" cellpadding="3">\n\t<tr>\n\t\t<td bgcolor="#FFFFFF" align="center"><b><font face="Verdana" size="1"><a href="/yearly/chart/?view=releasedate&view2=domestic&page=2&yr=2011&p=.htm">ALL RELEASES</a></font></b></td>\n\t\t<td bgcolor="#DCDCDC" align="center"><b><font face="Verdana" size="1"><a href="/yearly/chart/?view=widedate&view2=domestic&page=2&yr=2011&p=.htm">WIDE RELEASES</font></b></td>\n\t\t<td bgcolor="#DCDCDC" align="center"><b><font face="Verdana" size="1"><a href="/yearly/chart/?view=limited&view2=domestic&page=2&yr=2011&p=.htm">LIMITED RELEASES</font></b></td>\n\t\t\t\t<td bgcolor="#DCDCDC" align="center"><b><font face="Verdana" size="1"><a href="/yearly/chart/?view=calendargross&view2=domestic&page=2&yr=2011&p=.htm">CALENDAR GROSSES</font></b></td>\n\t\t\t</tr>\n</table>\n<table border="0" cellspacing="0" cellpadding="0" width="100%">\n  <tr><td bgcolor="#8b0000" height="1" colspan="2"><img src="/images/space.gif" border="0" width="1" height="5"></td></tr>\n</table>\n\n</td></tr></table>\n\n\t</div>\n\t</div>\n\t<div id="hp_footer">\n\t\t<div style="padding-bottom: 20px;">\n\n\t\t\t<div style="margin: 0px 121px; vertical-align: top;">\n\t\t\t\t<div id="footer_links">\n\t\t\t\t\t<ul class="footer_link_list">\n\t\t\t\t\t\t<li><strong>Latest Updates</strong></li>\n\t\t\t\t\t\t<li><a href="/news/?ref=ft">Movie News</a>\n\t\t\t\t\t\t<li><a href="/daily/chart/?ref=ft">Daily Chart</a></li>\n\t\t\t\t\t\t<li><a href="/weekend/chart/?ref=ft">Weekend Chart</a></li>\n\t\t\t\t\t\t<li><a href="/alltime/?ref=ft">All Time Charts</a></li>\n\t\t\t\t\t\t<li><a href="/intl/?ref=ft">International Charts</a></li>\n\t\t\t\t\t</ul>\n\t\t\t\t\t<!--\n\t\t\t\t\t<ul class="footer_link_list">\n\t\t\t\t\t\t<li><strong>Popular Movies</strong></li>\n\t\t\t\t\t\t\t\t\t\t\t</ul>\n\t\t\t\t\t-->\n\t\t\t\t\t<ul class="footer_link_list">\n\t\t\t\t\t\t<li><strong>Indices</strong></li>\n\t\t\t\t\t\t<li><a href="/movies/?ref=ft">Movies A-Z</a></li>\n\t\t\t\t\t\t<li><a href="/people/?ref=ft">People</a></li>\n\t\t\t\t\t\t<li><a href="/genres/?ref=ft">Genres</a></li>\n\t\t\t\t\t\t<li><a href="/franchises/?ref=ft">Franchises</a></li>\n\t\t\t\t\t\t<li><a href="/showdowns/?ref=ft">Showdowns</a></li>\n\t\t\t\t\t</ul>\n\t\t\t\t\t<ul class="footer_link_list">\n\t\t\t\t\t\t<li><strong>Other</strong></li>\n\t\t\t\t\t\t<li><a href="/about/?ref=ft">About This Site</a></li>\n\t\t\t\t\t\t<li><a href="/about/advertise.htm?ref=ft">Advertising</a></li>\n\t\t\t\t\t\t<li><a href="/users/?ref=ft">My Account</a></li>\n\t\t\t\t\t\t<li><a href="/about/rss.htm?ref=ft">RSS Feeds</a></li>\n\t\t\t\t\t</ul>\n\t\t\t\t</div>\n\t\t\t\t<div id="copyright">\n\t\t\t\t\t<a href="/?ref=ft"><img src="/img/misc/bom_logo1.png" width="245" height="56" alt="Box Office Mojo"></a><br>\n\t\t\t\t\t<p>An <a href="http://imdb.com/"><img src="/img/misc/IMDbSm.png" width="34" height="16" alt="IMDb" valign="middle"></a> company<br><br></p>\n\t\t\t\t\t<p>&copy; <a href="http://imdb.com/">IMDb.com</a>, Inc. or its affiliates. All rights reserved. Box Office Mojo and IMDb are trademarks or registered trademarks of IMDb.com, Inc. or its affiliates. <a href="/about/termsofuse.htm">Terms of Use</a> and <a href="/about/privacy.htm">Privacy Policy</a> under which this service is provided to you.</p>\n\t\t\t\t\t</div>\t\t\t\n\t\t\t\t</div>\n\t\t\t\t<div style="clear:both;">\n\t\t\t\t<div>\n\t\t\t\t <!-- begin ad tag (tile=6) -->\r\n<script type="text/javascript">\r\n//<![CDATA[\r\nord=1779486859;\r\ndocument.write(\'<iframe src="http://ad.doubleclick.net/N4215/adi/imdb2.bom.other/;p=b;tile=3;sz=728x90;oe=ISO-8859-1;ord=\' + ord + \'?" width="728" height="90" marginwidth="0" marginheight="0" frameborder="0" scrolling="no">\');\r\n\r\nif (navigator.userAgent.indexOf("Gecko")==-1)\r\n{\r\ndocument.write(\'<script type="text/javascript" src="http://ad.doubleclick.net/N4215/adj/imdb2.bom.other/;p=b;tile=3;sz=728x90;abr=!ie;oe=ISO-8859-1;ord=\' + ord + \'?"><\\/script>\');\r\n}\r\ndocument.write(\'<\\/iframe>\');\r\n//]]>\r\n</script>\r\n<noscript><a href="http://ad.doubleclick.net/N4215/jump/imdb2.bom.other/;p=b;tile=3;sz=728x90;oe=ISO-8859-1;ord=1779486859?" target="_blank" ><img src="http://ad.doubleclick.net/N4215/ad/imdb2.bom.other/;p=b;tile=3;sz=728x90;oe=ISO-8859-1;ord=1779486859?" border="0" alt="" ></a></noscript>\r\n<!-- end ad tag --></div>\n\n\t\t\t\t</div>\n\t</div>\n</div>\n\n\n\n\n\n<!-- Page generated in 0.10 seconds | . -->\n<script>\n  var _comscore = _comscore || [];\n  _comscore.push({ c1: "2", c2: "6034961" });\n  (function() {\n    var s = document.createElement("script"), el = document.getElementsByTagName("script")[0]; s.async = true;\n    s.src = (document.location.protocol == "https:" ? "https://sb" : "http://b") + ".scorecardresearch.com/beacon.js";\n  el.parentNode.insertBefore(s, el);\n  })();\n</script>\n<noscript>\n    <img src="http://b.scorecardresearch.com/p?c1=2&c2=6034961&cv=2.0&cj=1" />\n</noscript>\n\n</body>\n</html>\n'
p30
sS'encoding'
p31
S'ISO-8859-1'
p32
sS'url'
p33
Vhttp://www.boxofficemojo.com/yearly/chart/?page=2&view=releasedate&view2=domestic&yr=2011&p=.htm
p34
sS'status_code'
p35
I200
sS'request'
p36
g0
(crequests.models
PreparedRequest
p37
g2
Ntp38
Rp39
(dp40
S'body'
p41
Nsg33
S'http://www.boxofficemojo.com/yearly/chart/?page=2&view=releasedate&view2=domestic&yr=2011&p=.htm'
p42
sS'hooks'
p43
(dp44
S'response'
p45
(lp46
ssS'headers'
p47
g0
(crequests.structures
CaseInsensitiveDict
p48
g2
Ntp49
Rp50
(dp51
S'_store'
p52
(dp53
S'connection'
p54
(S'Connection'
p55
S'keep-alive'
p56
tp57
sS'accept-encoding'
p58
(S'Accept-Encoding'
p59
S'gzip, deflate'
p60
tp61
sS'accept'
p62
(S'Accept'
p63
S'*/*'
p64
tp65
sS'user-agent'
p66
(S'User-Agent'
p67
S'python-requests/2.7.0 CPython/2.7.10 Darwin/14.5.0'
p68
tp69
ssbsg27
g0
(g7
g2
Ntp70
Rp71
(dp72
g11
I1444069025
sg12
(icookielib
DefaultCookiePolicy
p73
(dp74
g15
I01
sg16
I0
sg17
Nsg18
Nsg19
I00
sg20
I00
sg11
I1444069025
sg21
I00
sg22
I00
sg23
I00
sg24
I00
sg25
(tsg26
I01
sbsg27
(dp75
sbsS'method'
p76
S'GET'
p77
sbsS'elapsed'
p78
cdatetime
timedelta
p79
(I0
I0
I137811
tp80
Rp81
sg47
g0
(g48
g2
Ntp82
Rp83
(dp84
g52
(dp85
S'content-length'
p86
(S'content-length'
p87
S'18332'
p88
tp89
sS'x-xss-protection'
p90
(S'x-xss-protection'
p91
S'1; mode=block'
p92
tp93
sS'x-content-type-options'
p94
(S'x-content-type-options'
p95
S'nosniff'
p96
tp97
sS'content-encoding'
p98
(S'content-encoding'
p99
S'gzip'
p100
tp101
sS'expires'
p102
(S'expires'
p103
S'Thu, 19 Nov 1981 08:52:00 GMT'
p104
tp105
sS'server'
p106
(S'server'
p107
S'Server'
p108
tp109
sS'connection'
p110
(S'connection'
p111
S'keep-alive'
p112
tp113
sS'x-permitted-cross-domain-policies'
p114
(S'x-permitted-cross-domain-policies'
p115
S'master-only'
p116
tp117
sS'pragma'
p118
(S'pragma'
p119
S'no-cache'
p120
tp121
sS'cache-control'
p122
(S'cache-control'
p123
S'no-store, no-cache, must-revalidate, post-check=0, pre-check=0'
p124
tp125
sS'date'
p126
(S'date'
p127
S'Mon, 05 Oct 2015 18:16:05 GMT'
p128
tp129
sS'x-frame-options'
p130
(S'x-frame-options'
p131
S'SAMEORIGIN'
p132
tp133
sS'content-type'
p134
(S'content-type'
p135
S'text/html'
p136
tp137
ssbsS'reason'
p138
S'OK'
p139
sS'history'
p140
(lp141
sb.