ccopy_reg
_reconstructor
p0
(crequests.models
Response
p1
c__builtin__
object
p2
Ntp3
Rp4
(dp5
S'cookies'
p6
g0
(crequests.cookies
RequestsCookieJar
p7
g2
Ntp8
Rp9
(dp10
S'_now'
p11
I1444069024
sS'_policy'
p12
(icookielib
DefaultCookiePolicy
p13
(dp14
S'strict_rfc2965_unverifiable'
p15
I01
sS'strict_ns_domain'
p16
I0
sS'_allowed_domains'
p17
NsS'rfc2109_as_netscape'
p18
NsS'rfc2965'
p19
I00
sS'strict_domain'
p20
I00
sg11
I1444069024
sS'strict_ns_set_path'
p21
I00
sS'strict_ns_unverifiable'
p22
I00
sS'strict_ns_set_initial_dollar'
p23
I00
sS'hide_cookie2'
p24
I00
sS'_blocked_domains'
p25
(tsS'netscape'
p26
I01
sbsS'_cookies'
p27
(dp28
sbsS'_content'
p29
S'<!DOCTYPE html PUBLIC "-//W3C//DTD HTML 4.01 Transitional//EN" "http://www.w3.org/TR/html4/loose.dtd">\n<html lang="en">\n<HEAD>\n<TITLE>2012 Yearly Box Office Results - Box Office Mojo</TITLE>\n<META NAME="keywords" CONTENT="2012, year, yearly, box, office, result, list, movie, movies, listing, listings, top movies, all time, film">\n<META NAME="description" CONTENT="Yearly box office results for 2012.">\n<link rel="stylesheet" href="/css/mojo.css?1" type="text/css" media="screen" title="no title" charset="utf-8">\n<link rel="stylesheet" href="/css/mojo.css?1" type="text/css" media="print" title="no title" charset="utf-8"></head>\n<body>\n\t<iframe id="sis_pixel_sitewide" width="1" height="1" frameborder="0" marginwidth="0" marginheight="0" style="display: none;"></iframe>\n<script>\n    setTimeout(function(){\n        try{\n            //sis3.0 pixel\n            var cacheBust = Math.random() * 10000000000000000,\n                url_sis3 = \'http://s.amazon-adsystem.com/iu3?\',\n                params_sis3 = [\n                    "d=boxofficemojo.com",\n                    "cb=" + cacheBust\n                ];\n\n            (document.getElementById(\'sis_pixel_sitewide\')).src = url_sis3 + params_sis3.join(\'&\');\n        }catch(e){\n            if (window.ueLogError) { \n                window.ueLogError(e);\n            }\n        }\n    }, 5);\n</script>\n\n<div id="container">\n<div>\n<!-- GOOGLE ANALYTICS CODE STARTS -->\n<script type="text/javascript">\n\n  var _gaq = _gaq || [];\n  _gaq.push([\'_setAccount\', \'UA-2831726-1\']);\n  _gaq.push([\'_trackPageview\']);\n\n  (function() {\n    var ga = document.createElement(\'script\'); ga.type = \'text/javascript\'; ga.async = true;\n    ga.src = (\'https:\' == document.location.protocol ? \'https://ssl\' : \'http://www\') + \'.google-analytics.com/ga.js\';\n    (document.getElementsByTagName(\'head\')[0] || document.getElementsByTagName(\'body\')[0]).appendChild(ga);\n  })();\n\n</script>\n<!-- GOOGLE ANALYTICS CODE ENDS -->\n\t<div id="hp_banner">\n\t<div id="top_links">\n\t\t<div style="float: left"><a href="/daily/chart/">Daily Box Office (Sun.)</a> | <a href="/weekend/chart/">Weekend Box Office (Oct. 2&ndash;4)</a> | <a href="/movies/?id=scott2016.htm">#1 Movie: \'The Martian\'</a> | <a href="http://www.imdb.com/showtimes/?ref_=mojo">Showtimes</a></div>\n\t\t<div style="float: right">Updated 10/4/2015 7:11 P.M. Pacific Time</div>\n\t\t<div style="clear:both; height: 0px"></div>\n\t</div>\n</div>\n\t\t\n<div id="header">\n\t<div id="leaderboard"><!-- begin ad tag (tile=1) -->\r\n<script type="text/javascript">\r\n//<![CDATA[\r\nord=95442181;\r\ndocument.write(\'<iframe src="http://ad.doubleclick.net/N4215/adi/imdb2.bom.other/;p=t;tile=1;sz=728x90;oe=ISO-8859-1;ord=\' + ord + \'?" width="728" height="90" marginwidth="0" marginheight="0" frameborder="0" scrolling="no">\');\r\n\r\nif (navigator.userAgent.indexOf("Gecko")==-1)\r\n{\r\ndocument.write(\'<script type="text/javascript" src="http://ad.doubleclick.net/N4215/adj/imdb2.bom.other/;p=t;tile=1;sz=728x90;abr=!ie;oe=ISO-8859-1;ord=\' + ord + \'?"><\\/script>\');\r\n}\r\ndocument.write(\'<\\/iframe>\');\r\n//]]>\r\n</script>\r\n<noscript><a href="http://ad.doubleclick.net/N4215/jump/imdb2.bom.other/;p=t;tile=1;sz=728x90;oe=ISO-8859-1;ord=95442181?" target="_blank" ><img src="http://ad.doubleclick.net/N4215/ad/imdb2.bom.other/;p=t;tile=1;sz=728x90;oe=ISO-8859-1;ord=95442181?" border="0" alt="" ></a></noscript>\r\n<!-- end ad tag --></div>\t<div id="hp_logo"><a href="/"><img src="/img/misc/bom_logo1.png" width="245" height="56" alt="Box Office Mojo"></a></div>\n\t<div style="clear:both; height: 0px"></div>\n</div>\n\n\n</div>\n\n\n<div id="main">\n<!-- COLUMN 1 of 4 -->\n\t<div id="leftnav">\n<!-- google_ad_section_start(weight=ignore) -->\n<!-- <table id="navleft" cellspacing="0" cellpadding="2" border="0"> -->\n<ul id="leftnav">\n<li class="nl_section">Search Site</li>\n<li class="nl_link" style="padding-left:0px">\n\t<form name="searchbox" method="POST" action="/search/q.php">\n\t<input name="q"  type="text" style="font-size: 9 pt; font-weight: bold; width: 90px;"><br>\n\t<input type="submit" value="Search..." ></form> \n</li>\n<li class=\'nl_section\'>Social</li>\n<li class="nl_link"><a href="http://facebook.com/boxofficemojo" style="vertical-align:middle;"><img src="/images/FaceBook_16x16.png" border="0" alt="Facebook Logo">Facebook</a></li>\n<li class="nl_link"><a href="http://twitter.com/boxofficemojo" style="vertical-align:middle;"><img src="/images/Twitter_16x16.png" border="0" alt="Twitter Logo">Twitter</a></li>\n\n<li class=\'nl_section\'>Features</li>\n<li class=\'nl_link\'><a href="/news/">News</a></li>\n<li class=\'nl_link\'><a href="/schedule/">Release Sched.</a></li>\n<li class=\'nl_link\'><a href="http://www.imdb.com/showtimes?ref_=mojo">Showtimes<br/><span style="margin-left:7px;color: #999999; font-size: 9px;">at <img src="/images/mojo_imdb_sm.png"/></span></a></li>\n<li class=\'nl_section\'>Box Office</li>\n<li class=\'nl_link\'><a href="/daily/">Daily</a></li>\n<li class=\'nl_link\'><a href="/weekend/">Weekend</a></li>\n<li class=\'nl_link\'><a href="/weekly/">Weekly</a></li>\n<li class=\'nl_link\'><a href="/monthly/">Monthly</a></li>\n<li class=\'nl_link\'><a href="/quarterly/">Quarterly</a></li>\n<li class=\'nl_link\'><a href="/seasonal/">Seasonal</a></li>\n<li class=\'nl_link_current\'><a href="/yearly/">Yearly</a></li>\n<li class=\'nl_link\'><a href="/alltime/">All Time</a></li>\n<li class=\'nl_link\'><a href="/chartwatch/">Chart Watch</a></li>\n<li class=\'nl_link\'><a href="/intl/">International</a></li>\n<li class=\'nl_section\'>Indices</li>\n<li class=\'nl_link\'><a href="/movies/">Movies A-Z</a></li>\n<li class=\'nl_link\'><a href="/studio/">Studios</a></li>\n<li class=\'nl_link\'><a href="/people/">People</a></li>\n<li class=\'nl_link\'><a href="/genres/">Genres</a></li>\n<li class=\'nl_link\'><a href="/franchises/">Franchises</a></li>\n<li class=\'nl_link\'><a href="/showdowns/">Showdowns</a></li>\n<li class=\'nl_link\'><a href="/oscar/">Oscar</a></li>\n<li class=\'nl_link\'><a href="/counts/">Theater Counts</a></li>\n</ul>\n</div>\n\t<div id="body">\n\t<div id="addthis"><table border="0" cellspacing="0" cellpadding="0">\r\n<tr>\r\n<form method="POST" action="/adjuster.php" name="adjuster">\r\n<input type="hidden" name="returnURL" value="/yearly/chart/?yr=2012&amp;view=releasedate&amp;view2=domestic&amp;sort=gross&amp;order=DESC&amp;&amp;p=.htm">\r\n<td valign="center">\r\n  <font face="Verdana" size="2"><a href="/about/adjuster.htm"><b>Adjuster:</b></a></font>\r\n  <select size="1" name="ticketyr" style="font-family: Verdana; font-size: 10pt">\r\n  <option value="0" selected>Actuals</option>\r\n  <option value="1" >Est. Tckts</option>\r\n<script language="javascript">\r\n  for(i=2015; i>=1933; i--) {\r\n  \tdocument.write(\'<option value="\' + i + \'"\');\r\n\tif(i==\'0\') document.write(\' selected\');\r\n\tdocument.write(\'>\' + i );\r\n\tif(i==\'0\') document.write(\', $\' + \'0.00\');\r\n\tdocument.write(\'</option>\');\r\n  }\r\n</script>\r\n  <option value="1929" >1929</option>\r\n  <option value="1924" >1924</option>\r\n  <option value="1910" >1910</option>\r\n  </select><input type="submit" name="Go" value="Go" style="font-size: 10pt; height: 22">\r\n\r\n</td></form></tr></table>\r\n\r\n</div>\t\n\t<h2><a href="/yearly/">Yearly Box Office</a></h2>\n\n\t<table border="0" cellpadding="0" cellspacing="0" width="100%">\n\t\t<tr><td bgcolor="#8b0000" colspan="2"><img src="/images/space.gif" border="0" width="1" height="5"></td></tr>\n\t</table>\n\t\n<table border="0" width="100%" cellspacing="0" cellpadding="3">\n\t<tr>\n\t\t<td bgcolor="#FFFFFF" align="center"><b><font face="Verdana" size="1"><a href="/yearly/chart/?view=releasedate&view2=domestic&yr=2012&p=.htm">ALL RELEASES</a></font></b></td>\n\t\t<td bgcolor="#DCDCDC" align="center"><b><font face="Verdana" size="1"><a href="/yearly/chart/?view=widedate&view2=domestic&yr=2012&p=.htm">WIDE RELEASES</font></b></td>\n\t\t<td bgcolor="#DCDCDC" align="center"><b><font face="Verdana" size="1"><a href="/yearly/chart/?view=limited&view2=domestic&yr=2012&p=.htm">LIMITED RELEASES</font></b></td>\n\t\t\t\t<td bgcolor="#DCDCDC" align="center"><b><font face="Verdana" size="1"><a href="/yearly/chart/?view=calendargross&view2=domestic&yr=2012&p=.htm">CALENDAR GROSSES</font></b></td>\n\t\t\t</tr>\n</table>\n<table border="0" cellspacing="0" cellpadding="0" width="100%"><tr><td valign="top" align="center"><br>\n<h1>2012 DOMESTIC GROSSES</h1><p>Total Grosses of all Movies Released in 2012</h1></b></FONT></p>\n\n<center><font face="Verdana" size="4"><b><font face="Verdana" size="5">#1&#150;100</font> - <a href="/yearly/chart/?page=2&view=releasedate&view2=domestic&yr=2012&p=.htm">#101&#150;200</a> - <a href="/yearly/chart/?page=3&view=releasedate&view2=domestic&yr=2012&p=.htm">#201&#150;300</a> - <a href="/yearly/chart/?page=4&view=releasedate&view2=domestic&yr=2012&p=.htm">#301&#150;400</a> - <a href="/yearly/chart/?page=5&view=releasedate&view2=domestic&yr=2012&p=.htm">#401&#150;500</a> - <a href="/yearly/chart/?page=6&view=releasedate&view2=domestic&yr=2012&p=.htm">#501&#150;600</a> - <a href="/yearly/chart/?page=7&view=releasedate&view2=domestic&yr=2012&p=.htm">#601&#150;665</a></b></font></center><table border="0" cellspacing="0" cellpadding="0"><tr><td valign="bottom"><font face="Verdana" size="1"><b><a href="/yearly/chart/?yr=2011&view=releasedate&view2=domestic&sort=gross&order=DESC&&p=.htm">&lt; Previous Year</a></b></font></td><td align="center"><table border="0" cellspacing="0" cellpadding="0">\n\t\t\t\t\t<form method="POST" action="yearly.asof.php" name="asofjump">\n\t\t\t\t\t<tr><td><font face="Verdana" size="1"><br>Data as of:\n\t\t\t\t\t<select size="1" name="asof" style="font-size: 8pt">\n\t\t\t\t\t<option selected value="today">Today</option>\n\t\t\t\t\t<option  value="sametime">Today in 2012</option>\n\t\t\t\t\t<option value="2012-01-31">Jan. 31, 2012</option>\n\t\t\t\t\t<option value="2012-02-29">Feb. 29, 2012</option>\n\t\t\t\t\t<option value="2012-03-31">Mar. 31, 2012</option>\n\t\t\t\t\t<option value="2012-04-30">Apr. 30, 2012</option>\n\t\t\t\t\t<option value="2012-05-31">May 31, 2012</option>\n\t\t\t\t\t<option value="2012-06-30">Jun. 30, 2012</option>\n\t\t\t\t\t<option value="2012-07-31">Jul. 31, 2012</option>\n\t\t\t\t\t<option value="2012-08-31">Aug. 31, 2012</option>\n\t\t\t\t\t<option value="2012-09-30">Sep. 30, 2012</option>\n\t\t\t\t\t<option value="2012-10-31">Oct. 31, 2012</option>\n\t\t\t\t\t<option value="2012-11-30">Nov. 30, 2012</option>\n\t\t\t\t\t<option value="2012-12-31">Dec. 31, 2012</option>\n\t\t\t\t\t<option value="specify">Specify Date</option>\n\t\t\t\t\t<option value="about">About this feature</option>\n\t\t\t\t\t</select> or (<select size="1" name="asof_mo" style="font-size: 8pt">\n\t\t\t\t\t<option selected value="">Month</option>\n\t\t\t\t\t\n\t\t\t\t\t<option value="01">Jan.</option>\n\t\t\t\t\t<option value="02">Feb.</option>\n\t\t\t\t\t<option value="03">Mar.</option>\n\t\t\t\t\t<option value="04">Apr.</option>\n\t\t\t\t\t<option value="05">May</option>\n\t\t\t\t\t<option value="06">Jun.</option>\n\t\t\t\t\t<option value="07">Jul.</option>\n\t\t\t\t\t<option value="08">Aug.</option>\n\t\t\t\t\t<option value="09">Sep.</option>\n\t\t\t\t\t<option value="10">Oct.</option>\n\t\t\t\t\t<option value="11">Nov.</option>\n\t\t\t\t\t<option value="12">Dec.</option>\n\t\t\t\t\t</select> / <select size="1" name="asof_day" style="font-size: 8pt">\n\t\t\t\t\t<option selected value="">Day</option>\n\t\t\t\t\t<option value="01">1</option>\n\t\t\t\t\t<option value="02">2</option>\n\t\t\t\t\t<option value="03">3</option>\n\t\t\t\t\t<option value="04">4</option>\n\t\t\t\t\t<option value="05">5</option>\n\t\t\t\t\t<option value="06">6</option>\n\t\t\t\t\t<option value="07">7</option>\n\t\t\t\t\t<option value="08">8</option>\n\t\t\t\t\t<option value="09">9</option>\n\t\t\t\t\t<option value="10">10</option>\n\t\t\t\t\t<option value="11">11</option>\n\t\t\t\t\t<option value="12">12</option>\n\t\t\t\t\t<option value="13">13</option>\n\t\t\t\t\t<option value="14">14</option>\n\t\t\t\t\t<option value="15">15</option>\n\t\t\t\t\t<option value="16">16</option>\n\t\t\t\t\t<option value="17">17</option>\n\t\t\t\t\t<option value="18">18</option>\n\t\t\t\t\t<option value="19">19</option>\n\t\t\t\t\t<option value="20">20</option>\n\t\t\t\t\t<option value="21">21</option>\n\t\t\t\t\t<option value="22">22</option>\n\t\t\t\t\t<option value="23">23</option>\n\t\t\t\t\t<option value="24">24</option>\n\t\t\t\t\t<option value="25">25</option>\n\t\t\t\t\t<option value="26">26</option>\n\t\t\t\t\t<option value="27">27</option>\n\t\t\t\t\t<option value="28">28</option>\n\t\t\t\t\t<option value="29">29</option>\n\t\t\t\t\t<option value="30">30</option>\n\t\t\t\t\t<option value="31">31</option>\n\t\t\t\t\t</select> / <select size="1" name="asof_yr" style="font-size: 8pt">\n\t\t\t\t\t\t<option selected>2012</option>\n\t\t\t\t\t\t<option>2013</option>\n\t\t\t\t\t\t</select>) <input type="submit" value="Go" name="go" style="font-size: 8pt; height: 16">\n\t\t\t\t\t</font></td></tr>\n\t\t\t\t\t<input type="hidden" name="jumpstuff" value="view=releasedate&view2=domestic&yr=2012&sort=gross&order=DESC&p=.htm">\n\t\t\t\t\t<input type="hidden" name="curasof" value="today">\n\t\t\t\t\t<input type="hidden" name="yr" value="2012">\n\t\t\t\t\t</form>\n\t\t\t\t\t</table>\n\t\t\t\t</font></td><td valign="bottom" align="right"><font face="Verdana" size="1"><b><a href="/yearly/chart/?yr=2013&view=releasedate&view2=domestic&sort=gross&order=DESC&&p=.htm">Next Year &gt;</a></b></font></td></tr><tr><td colspan="3"><table border="0" cellspacing="1" cellpadding="5" bgcolor="#ffffff"><tr bgcolor="#dcdcdc"><td align="center"><font size="2"><a href="/yearly/chart/?view=releasedate&view2=domestic&yr=2012&sort=gross&order=ASC&p=.htm"><b>Rank</b></a></font></td><td align="center"><font size="2"><a href="/yearly/chart/?view=releasedate&view2=domestic&yr=2012&sort=title&order=ASC&p=.htm">Movie Title (click to view)</a></font></td><td align="center"><font size="2"><a href="/yearly/chart/?view=releasedate&view2=domestic&yr=2012&sort=studio&order=ASC&p=.htm">Studio</a><br><script language="javascript">\r\nfunction MojoDrop1() {\r\nvar number = document.MojoDropDown1.mojolinks1.selectedIndex;location.href = document.MojoDropDown1.mojolinks1.options[number].value;}</script>\r\n<table border="0" cellspacing="0" cellpadding="0">\r\n<form name="MojoDropDown1"><tr><td>\r\n<select name="mojolinks1" style="font-family: Verdana; font-size: 8pt" onChange="MojoDrop1(this.form)">\r\n<option selected>Filter</option><option value="/yearly/chart/?view=releasedate&view2=domestic&yr=2012&sort=gross&order=DESC&studio=3dentertainment.htm">3D</option>\r\n<option value="/yearly/chart/?view=releasedate&view2=domestic&yr=2012&sort=gross&order=DESC&studio=7aproductions.htm">7A</option>\r\n<option value="/yearly/chart/?view=releasedate&view2=domestic&yr=2012&sort=gross&order=DESC&studio=area23a.htm">A23</option>\r\n<option value="/yearly/chart/?view=releasedate&view2=domestic&yr=2012&sort=gross&order=DESC&studio=artaffects.htm">AAE</option>\r\n<option value="/yearly/chart/?view=releasedate&view2=domestic&yr=2012&sort=gross&order=DESC&studio=abramorama.htm">Abr.</option>\r\n<option value="/yearly/chart/?view=releasedate&view2=domestic&yr=2012&sort=gross&order=DESC&studio=atlas.htm">ADC</option>\r\n<option value="/yearly/chart/?view=releasedate&view2=domestic&yr=2012&sort=gross&order=DESC&studio=adoptfilms.htm">AF</option>\r\n<option value="/yearly/chart/?view=releasedate&view2=domestic&yr=2012&sort=gross&order=DESC&studio=affrm.htm">AFFRM</option>\r\n<option value="/yearly/chart/?view=releasedate&view2=domestic&yr=2012&sort=gross&order=DESC&studio=afterlifepictures.htm">ALP</option>\r\n<option value="/yearly/chart/?view=releasedate&view2=domestic&yr=2012&sort=gross&order=DESC&studio=alivemind.htm">AM</option>\r\n<option value="/yearly/chart/?view=releasedate&view2=domestic&yr=2012&sort=gross&order=DESC&studio=anchorbayentertainment.htm">Anch.</option>\r\n<option value="/yearly/chart/?view=releasedate&view2=domestic&yr=2012&sort=gross&order=DESC&studio=apdcinema.htm">APD/C</option>\r\n<option value="/yearly/chart/?view=releasedate&view2=domestic&yr=2012&sort=gross&order=DESC&studio=appliedart.htm">AppArt</option>\r\n<option value="/yearly/chart/?view=releasedate&view2=domestic&yr=2012&sort=gross&order=DESC&studio=arcent.htm">ArcEnt</option>\r\n<option value="/yearly/chart/?view=releasedate&view2=domestic&yr=2012&sort=gross&order=DESC&studio=argotpictures.htm">Argo.</option>\r\n<option value="/yearly/chart/?view=releasedate&view2=domestic&yr=2012&sort=gross&order=DESC&studio=atopictures.htm">ATO</option>\r\n<option value="/yearly/chart/?view=releasedate&view2=domestic&yr=2012&sort=gross&order=DESC&studio=breakingglass.htm">BGP</option>\r\n<option value="/yearly/chart/?view=releasedate&view2=domestic&yr=2012&sort=gross&order=DESC&studio=brainstormanddoublehope.htm">BM&amp;DH</option>\r\n<option value="/yearly/chart/?view=releasedate&view2=domestic&yr=2012&sort=gross&order=DESC&studio=brandedpeck.htm">BPE</option>\r\n<option value="/yearly/chart/?view=releasedate&view2=domestic&yr=2012&sort=gross&order=DESC&studio=brainstormmedia.htm">BSM</option>\r\n<option value="/yearly/chart/?view=releasedate&view2=domestic&yr=2012&sort=gross&order=DESC&studio=betterthansomething.htm">BTS</option>\r\n<option value="/yearly/chart/?view=releasedate&view2=domestic&yr=2012&sort=gross&order=DESC&studio=buenavista.htm">BV</option>\r\n<option value="/yearly/chart/?view=releasedate&view2=domestic&yr=2012&sort=gross&order=DESC&studio=corinth360.htm">C/360</option>\r\n<option value="/yearly/chart/?view=releasedate&view2=domestic&yr=2012&sort=gross&order=DESC&studio=callbox.htm">CB</option>\r\n<option value="/yearly/chart/?view=releasedate&view2=domestic&yr=2012&sort=gross&order=DESC&studio=cbsfilms.htm">CBS</option>\r\n<option value="/yearly/chart/?view=releasedate&view2=domestic&yr=2012&sort=gross&order=DESC&studio=cinedigmentertainment.htm">Cdgm.</option>\r\n<option value="/yearly/chart/?view=releasedate&view2=domestic&yr=2012&sort=gross&order=DESC&studio=cinedigmbrianbarrett.htm">CEB&amp;B</option>\r\n<option value="/yearly/chart/?view=releasedate&view2=domestic&yr=2012&sort=gross&order=DESC&studio=cinemaguild.htm">CGld</option>\r\n<option value="/yearly/chart/?view=releasedate&view2=domestic&yr=2012&sort=gross&order=DESC&studio=cjentertainment.htm">CJ</option>\r\n<option value="/yearly/chart/?view=releasedate&view2=domestic&yr=2012&sort=gross&order=DESC&studio=chinalion.htm">CL</option>\r\n<option value="/yearly/chart/?view=releasedate&view2=domestic&yr=2012&sort=gross&order=DESC&studio=codeblackentertainment.htm">Code</option>\r\n<option value="/yearly/chart/?view=releasedate&view2=domestic&yr=2012&sort=gross&order=DESC&studio=cohenmedia.htm">Cohen</option>\r\n<option value="/yearly/chart/?view=releasedate&view2=domestic&yr=2012&sort=gross&order=DESC&studio=cortelyou.htm">Cort.</option>\r\n<option value="/yearly/chart/?view=releasedate&view2=domestic&yr=2012&sort=gross&order=DESC&studio=dada.htm">Da.</option>\r\n<option value="/yearly/chart/?view=releasedate&view2=domestic&yr=2012&sort=gross&order=DESC&studio=dutchmen.htm">DM</option>\r\n<option value="/yearly/chart/?view=releasedate&view2=domestic&yr=2012&sort=gross&order=DESC&studio=drafthousefilms.htm">Drft.</option>\r\n<option value="/yearly/chart/?view=releasedate&view2=domestic&yr=2012&sort=gross&order=DESC&studio=datariturner.htm">DTP</option>\r\n<option value="/yearly/chart/?view=releasedate&view2=domestic&yr=2012&sort=gross&order=DESC&studio=elevenarts.htm">Elev.</option>\r\n<option value="/yearly/chart/?view=releasedate&view2=domestic&yr=2012&sort=gross&order=DESC&studio=eagleone.htm">EOM</option>\r\n<option value="/yearly/chart/?view=releasedate&view2=domestic&yr=2012&sort=gross&order=DESC&studio=entertainmentone.htm">EOne</option>\r\n<option value="/yearly/chart/?view=releasedate&view2=domestic&yr=2012&sort=gross&order=DESC&studio=epicpics.htm">EpicPics</option>\r\n<option value="/yearly/chart/?view=releasedate&view2=domestic&yr=2012&sort=gross&order=DESC&studio=eros.htm">Eros</option>\r\n<option value="/yearly/chart/?view=releasedate&view2=domestic&yr=2012&sort=gross&order=DESC&studio=flickeralley.htm">FA</option>\r\n<option value="/yearly/chart/?view=releasedate&view2=domestic&yr=2012&sort=gross&order=DESC&studio=filmdistrict.htm">FD</option>\r\n<option value="/yearly/chart/?view=releasedate&view2=domestic&yr=2012&sort=gross&order=DESC&studio=thefilmdesk.htm">FDesk</option>\r\n<option value="/yearly/chart/?view=releasedate&view2=domestic&yr=2012&sort=gross&order=DESC&studio=fip.htm">FIP</option>\r\n<option value="/yearly/chart/?view=releasedate&view2=domestic&yr=2012&sort=gross&order=DESC&studio=fisherklingenstein.htm">FKF</option>\r\n<option value="/yearly/chart/?view=releasedate&view2=domestic&yr=2012&sort=gross&order=DESC&studio=filmmovement.htm">FM</option>\r\n<option value="/yearly/chart/?view=releasedate&view2=domestic&yr=2012&sort=gross&order=DESC&studio=focus.htm">Focus</option>\r\n<option value="/yearly/chart/?view=releasedate&view2=domestic&yr=2012&sort=gross&order=DESC&studio=fox.htm">Fox</option>\r\n<option value="/yearly/chart/?view=releasedate&view2=domestic&yr=2012&sort=gross&order=DESC&studio=foxsearchlight.htm">FoxS</option>\r\n<option value="/yearly/chart/?view=releasedate&view2=domestic&yr=2012&sort=gross&order=DESC&studio=firstpond.htm">FPE</option>\r\n<option value="/yearly/chart/?view=releasedate&view2=domestic&yr=2012&sort=gross&order=DESC&studio=featurepresentations.htm">FPR</option>\r\n<option value="/yearly/chart/?view=releasedate&view2=domestic&yr=2012&sort=gross&order=DESC&studio=freestyle.htm">Free</option>\r\n<option value="/yearly/chart/?view=releasedate&view2=domestic&yr=2012&sort=gross&order=DESC&studio=firstrun.htm">FRun</option>\r\n<option value="/yearly/chart/?view=releasedate&view2=domestic&yr=2012&sort=gross&order=DESC&studio=gravityarch.htm">GA</option>\r\n<option value="/yearly/chart/?view=releasedate&view2=domestic&yr=2012&sort=gross&order=DESC&studio=godigital.htm">GD</option>\r\n<option value="/yearly/chart/?view=releasedate&view2=domestic&yr=2012&sort=gross&order=DESC&studio=gkids.htm">GK</option>\r\n<option value="/yearly/chart/?view=releasedate&view2=domestic&yr=2012&sort=gross&order=DESC&studio=samuelgoldwyn.htm">Gold.</option>\r\n<option value="/yearly/chart/?view=releasedate&view2=domestic&yr=2012&sort=gross&order=DESC&studio=gigapix.htm">GPR</option>\r\n<option value="/yearly/chart/?view=releasedate&view2=domestic&yr=2012&sort=gross&order=DESC&studio=hannoverhouse.htm">Hann.</option>\r\n<option value="/yearly/chart/?view=releasedate&view2=domestic&yr=2012&sort=gross&order=DESC&studio=houselightsmedia.htm">HLM</option>\r\n<option value="/yearly/chart/?view=releasedate&view2=domestic&yr=2012&sort=gross&order=DESC&studio=humblemagi.htm">HM</option>\r\n<option value="/yearly/chart/?view=releasedate&view2=domestic&yr=2012&sort=gross&order=DESC&studio=icarus.htm">Icar.</option>\r\n<option value="/yearly/chart/?view=releasedate&view2=domestic&yr=2012&sort=gross&order=DESC&studio=intlfilmcircuit.htm">ICir</option>\r\n<option value="/yearly/chart/?view=releasedate&view2=domestic&yr=2012&sort=gross&order=DESC&studio=ifc.htm">IFC</option>\r\n<option value="/yearly/chart/?view=releasedate&view2=domestic&yr=2012&sort=gross&order=DESC&studio=indomina.htm">IM</option>\r\n<option value="/yearly/chart/?view=releasedate&view2=domestic&yr=2012&sort=gross&order=DESC&studio=imageentertainment.htm">Imag.</option>\r\n<option value="/yearly/chart/?view=releasedate&view2=domestic&yr=2012&sort=gross&order=DESC&studio=indican.htm">Indic.</option>\r\n<option value="/yearly/chart/?view=releasedate&view2=domestic&yr=2012&sort=gross&order=DESC&studio=janusfilms.htm">Jan.</option>\r\n<option value="/yearly/chart/?view=releasedate&view2=domestic&yr=2012&sort=gross&order=DESC&studio=joulesfilms.htm">JLF</option>\r\n<option value="/yearly/chart/?view=releasedate&view2=domestic&yr=2012&sort=gross&order=DESC&studio=kinolorber.htm">KL</option>\r\n<option value="/yearly/chart/?view=releasedate&view2=domestic&yr=2012&sort=gross&order=DESC&studio=kimstimzeitgeist.htm">KS/Zeit</option>\r\n<option value="/yearly/chart/?view=releasedate&view2=domestic&yr=2012&sort=gross&order=DESC&studio=kennviselman.htm">KVP</option>\r\n<option value="/yearly/chart/?view=releasedate&view2=domestic&yr=2012&sort=gross&order=DESC&studio=lddistribution.htm">LD</option>\r\n<option value="/yearly/chart/?view=releasedate&view2=domestic&yr=2012&sort=gross&order=DESC&studio=lokifilms.htm">LF</option>\r\n<option value="/yearly/chart/?view=releasedate&view2=domestic&yr=2012&sort=gross&order=DESC&studio=lionsgatesummit.htm">LG/S</option>\r\n<option value="/yearly/chart/?view=releasedate&view2=domestic&yr=2012&sort=gross&order=DESC&studio=lionsgate.htm">LGF</option>\r\n<option value="/yearly/chart/?view=releasedate&view2=domestic&yr=2012&sort=gross&order=DESC&studio=cinemalibre.htm">Libre</option>\r\n<option value="/yearly/chart/?view=releasedate&view2=domestic&yr=2012&sort=gross&order=DESC&studio=longshotfactory.htm">Long Shot</option>\r\n<option value="/yearly/chart/?view=releasedate&view2=domestic&yr=2012&sort=gross&order=DESC&studio=magnolia.htm">Magn.</option>\r\n<option value="/yearly/chart/?view=releasedate&view2=domestic&yr=2012&sort=gross&order=DESC&studio=musicboxfilms.htm">MBox</option>\r\n<option value="/yearly/chart/?view=releasedate&view2=domestic&yr=2012&sort=gross&order=DESC&studio=millenniumentertainment.htm">MNE</option>\r\n<option value="/yearly/chart/?view=releasedate&view2=domestic&yr=2012&sort=gross&order=DESC&studio=montereymediainc.htm">Mont.</option>\r\n<option value="/yearly/chart/?view=releasedate&view2=domestic&yr=2012&sort=gross&order=DESC&studio=mpimediagroup.htm">MPI</option>\r\n<option value="/yearly/chart/?view=releasedate&view2=domestic&yr=2012&sort=gross&order=DESC&studio=myriadpictures.htm">Myr.</option>\r\n<option value="/yearly/chart/?view=releasedate&view2=domestic&yr=2012&sort=gross&order=DESC&studio=unknown.htm">N/A</option>\r\n<option value="/yearly/chart/?view=releasedate&view2=domestic&yr=2012&sort=gross&order=DESC&studio=neoclassicsfilms.htm">NeoC</option>\r\n<option value="/yearly/chart/?view=releasedate&view2=domestic&yr=2012&sort=gross&order=DESC&studio=nationalgeographiccinema.htm">NGE</option>\r\n<option value="/yearly/chart/?view=releasedate&view2=domestic&yr=2012&sort=gross&order=DESC&studio=nocturnalfeatures.htm">Noct.</option>\r\n<option value="/yearly/chart/?view=releasedate&view2=domestic&yr=2012&sort=gross&order=DESC&studio=newyorker.htm">NYer</option>\r\n<option value="/yearly/chart/?view=releasedate&view2=domestic&yr=2012&sort=gross&order=DESC&studio=onyx.htm">Onyx</option>\r\n<option value="/yearly/chart/?view=releasedate&view2=domestic&yr=2012&sort=gross&order=DESC&studio=openroads.htm">ORF</option>\r\n<option value="/yearly/chart/?view=releasedate&view2=domestic&yr=2012&sort=gross&order=DESC&studio=oscilloscopepictures.htm">Osci.</option>\r\n<option value="/yearly/chart/?view=releasedate&view2=domestic&yr=2012&sort=gross&order=DESC&studio=outsiderfilms.htm">OutF</option>\r\n<option value="/yearly/chart/?view=releasedate&view2=domestic&yr=2012&sort=gross&order=DESC&studio=outsiderpictures.htm">Outs</option>\r\n<option value="/yearly/chart/?view=releasedate&view2=domestic&yr=2012&sort=gross&order=DESC&studio=omniverse.htm">OV</option>\r\n<option value="/yearly/chart/?view=releasedate&view2=domestic&yr=2012&sort=gross&order=DESC&studio=pardw.htm">P/DW</option>\r\n<option value="/yearly/chart/?view=releasedate&view2=domestic&yr=2012&sort=gross&order=DESC&studio=page124.htm">P124</option>\r\n<option value="/yearly/chart/?view=releasedate&view2=domestic&yr=2012&sort=gross&order=DESC&studio=paladin.htm">Pala.</option>\r\n<option value="/yearly/chart/?view=releasedate&view2=domestic&yr=2012&sort=gross&order=DESC&studio=palisadestartan.htm">PalT</option>\r\n<option value="/yearly/chart/?view=releasedate&view2=domestic&yr=2012&sort=gross&order=DESC&studio=paladinunison.htm">PalUni</option>\r\n<option value="/yearly/chart/?view=releasedate&view2=domestic&yr=2012&sort=gross&order=DESC&studio=paramount.htm">Par.</option>\r\n<option value="/yearly/chart/?view=releasedate&view2=domestic&yr=2012&sort=gross&order=DESC&studio=paramountvantage.htm">ParV</option>\r\n<option value="/yearly/chart/?view=releasedate&view2=domestic&yr=2012&sort=gross&order=DESC&studio=pasidg.htm">Pasi.</option>\r\n<option value="/yearly/chart/?view=releasedate&view2=domestic&yr=2012&sort=gross&order=DESC&studio=pda.htm">PDA</option>\r\n<option value="/yearly/chart/?view=releasedate&view2=domestic&yr=2012&sort=gross&order=DESC&studio=pelicanhouse.htm">PHP</option>\r\n<option value="/yearly/chart/?view=releasedate&view2=domestic&yr=2012&sort=gross&order=DESC&studio=pmkbncfilms.htm">PMKBNC</option>\r\n<option value="/yearly/chart/?view=releasedate&view2=domestic&yr=2012&sort=gross&order=DESC&studio=promotionpictures.htm">PMP</option>\r\n<option value="/yearly/chart/?view=releasedate&view2=domestic&yr=2012&sort=gross&order=DESC&studio=roadsideattractions.htm">RAtt.</option>\r\n<option value="/yearly/chart/?view=releasedate&view2=domestic&yr=2012&sort=gross&order=DESC&studio=redbull.htm">RBMH</option>\r\n<option value="/yearly/chart/?view=releasedate&view2=domestic&yr=2012&sort=gross&order=DESC&studio=relativity.htm">Rela.</option>\r\n<option value="/yearly/chart/?view=releasedate&view2=domestic&yr=2012&sort=gross&order=DESC&studio=reliancebigpictures.htm">Relbig.</option>\r\n<option value="/yearly/chart/?view=releasedate&view2=domestic&yr=2012&sort=gross&order=DESC&studio=redflag.htm">RF</option>\r\n<option value="/yearly/chart/?view=releasedate&view2=domestic&yr=2012&sort=gross&order=DESC&studio=rialto.htm">Rialto</option>\r\n<option value="/yearly/chart/?view=releasedate&view2=domestic&yr=2012&sort=gross&order=DESC&studio=rockymountainpictures.htm">RM</option>\r\n<option value="/yearly/chart/?view=releasedate&view2=domestic&yr=2012&sort=gross&order=DESC&studio=roamfilms.htm">Roam</option>\r\n<option value="/yearly/chart/?view=releasedate&view2=domestic&yr=2012&sort=gross&order=DESC&studio=radiustwc.htm">RTWC</option>\r\n<option value="/yearly/chart/?view=releasedate&view2=domestic&yr=2012&sort=gross&order=DESC&studio=s2bnfilms.htm">S2BN</option>\r\n<option value="/yearly/chart/?view=releasedate&view2=domestic&yr=2012&sort=gross&order=DESC&studio=slaterbros.htm">SBE</option>\r\n<option value="/yearly/chart/?view=releasedate&view2=domestic&yr=2012&sort=gross&order=DESC&studio=screenmedia.htm">Scre.</option>\r\n<option value="/yearly/chart/?view=releasedate&view2=domestic&yr=2012&sort=gross&order=DESC&studio=submarinedeluxe.htm">SD</option>\r\n<option value="/yearly/chart/?view=releasedate&view2=domestic&yr=2012&sort=gross&order=DESC&studio=sycamore.htm">SEG</option>\r\n<option value="/yearly/chart/?view=releasedate&view2=domestic&yr=2012&sort=gross&order=DESC&studio=snagfilms.htm">SF</option>\r\n<option value="/yearly/chart/?view=releasedate&view2=domestic&yr=2012&sort=gross&order=DESC&studio=screengems.htm">SGem</option>\r\n<option value="/yearly/chart/?view=releasedate&view2=domestic&yr=2012&sort=gross&order=DESC&studio=shortsinternational.htm">Shrts.</option>\r\n<option value="/yearly/chart/?view=releasedate&view2=domestic&yr=2012&sort=gross&order=DESC&studio=secretidentity.htm">SIP</option>\r\n<option value="/yearly/chart/?view=releasedate&view2=domestic&yr=2012&sort=gross&order=DESC&studio=sony.htm">Sony</option>\r\n<option value="/yearly/chart/?view=releasedate&view2=domestic&yr=2012&sort=gross&order=DESC&studio=sonyclassics.htm">SPC</option>\r\n<option value="/yearly/chart/?view=releasedate&view2=domestic&yr=2012&sort=gross&order=DESC&studio=strand.htm">Strand</option>\r\n<option value="/yearly/chart/?view=releasedate&view2=domestic&yr=2012&sort=gross&order=DESC&studio=transcendence.htm">TF</option>\r\n<option value="/yearly/chart/?view=releasedate&view2=domestic&yr=2012&sort=gross&order=DESC&studio=filmarcade.htm">TFA</option>\r\n<option value="/yearly/chart/?view=releasedate&view2=domestic&yr=2012&sort=gross&order=DESC&studio=filmcollaborative.htm">TFC</option>\r\n<option value="/yearly/chart/?view=releasedate&view2=domestic&yr=2012&sort=gross&order=DESC&studio=transparentouter.htm">TFO</option>\r\n<option value="/yearly/chart/?view=releasedate&view2=domestic&yr=2012&sort=gross&order=DESC&studio=tyscotmanhaddon.htm">TMF&amp;RE</option>\r\n<option value="/yearly/chart/?view=releasedate&view2=domestic&yr=2012&sort=gross&order=DESC&studio=todpix.htm">TOD</option>\r\n<option value="/yearly/chart/?view=releasedate&view2=domestic&yr=2012&sort=gross&order=DESC&studio=tribecafilm.htm">Trib.</option>\r\n<option value="/yearly/chart/?view=releasedate&view2=domestic&yr=2012&sort=gross&order=DESC&studio=tristar.htm">TriS</option>\r\n<option value="/yearly/chart/?view=releasedate&view2=domestic&yr=2012&sort=gross&order=DESC&studio=trulyindie.htm">Truly</option>\r\n<option value="/yearly/chart/?view=releasedate&view2=domestic&yr=2012&sort=gross&order=DESC&studio=universal.htm">Uni.</option>\r\n<option value="/yearly/chart/?view=releasedate&view2=domestic&yr=2012&sort=gross&order=DESC&studio=utv.htm">UTV</option>\r\n<option value="/yearly/chart/?view=releasedate&view2=domestic&yr=2012&sort=gross&order=DESC&studio=variancefilms.htm">Vari.</option>\r\n<option value="/yearly/chart/?view=releasedate&view2=domestic&yr=2012&sort=gross&order=DESC&studio=veracity.htm">VMP</option>\r\n<option value="/yearly/chart/?view=releasedate&view2=domestic&yr=2012&sort=gross&order=DESC&studio=wdimension.htm">W/Dim.</option>\r\n<option value="/yearly/chart/?view=releasedate&view2=domestic&yr=2012&sort=gross&order=DESC&studio=warnerbros.htm">WB</option>\r\n<option value="/yearly/chart/?view=releasedate&view2=domestic&yr=2012&sort=gross&order=DESC&studio=wb-newline.htm">WB (NL)</option>\r\n<option value="/yearly/chart/?view=releasedate&view2=domestic&yr=2012&sort=gross&order=DESC&studio=weinsteincompany.htm">Wein.</option>\r\n<option value="/yearly/chart/?view=releasedate&view2=domestic&yr=2012&sort=gross&order=DESC&studio=wellgo.htm">WGUSA</option>\r\n<option value="/yearly/chart/?view=releasedate&view2=domestic&yr=2012&sort=gross&order=DESC&studio=wreckinhill.htm">WHE</option>\r\n<option value="/yearly/chart/?view=releasedate&view2=domestic&yr=2012&sort=gross&order=DESC&studio=worldwidedistributors.htm">WWD</option>\r\n<option value="/yearly/chart/?view=releasedate&view2=domestic&yr=2012&sort=gross&order=DESC&studio=xlratormedia.htm">XL</option>\r\n<option value="/yearly/chart/?view=releasedate&view2=domestic&yr=2012&sort=gross&order=DESC&studio=yashraj.htm">Yash</option>\r\n<option value="/yearly/chart/?view=releasedate&view2=domestic&yr=2012&sort=gross&order=DESC&studio=zeitgeist.htm">Zeit.</option>\r\n<option value="/yearly/chart/?view=releasedate&view2=domestic&yr=2012&sort=gross&order=DESC&studio=zipporahfilms.htm">Zipp.</option>\r\n<option value="/yearly/chart/?view=releasedate&view2=domestic&yr=2012&sort=gross&order=DESC&studio=zomularmedia.htm">ZMG</option>\r\n<option value="/yearly/chart/?view=releasedate&view2=domestic&yr=2012&sort=gross&order=DESC&p=.htm">ALL</option>\r\n</select></td></tr></form></table><a></a></font></td><td align="center" colspan="2"><font size="2"><a href="/yearly/chart/?view=releasedate&view2=domestic&yr=2012&sort=gross&order=ASC&p=.htm"><b>Total Gross</b></a> / </font><font size="2"><a href="/yearly/chart/?view=releasedate&view2=domestic&yr=2012&sort=theaters&order=DESC&p=.htm">Theaters</a></font></td><td align="center" colspan="2"><font size="2"><a href="/yearly/chart/?view=releasedate&view2=domestic&yr=2012&sort=opengross&order=DESC&p=.htm">Opening</a> / </font><font size="2"><a href="/yearly/chart/?view=releasedate&view2=domestic&yr=2012&sort=opentheaters&order=DESC&p=.htm">Theaters</a></font></td><td align="center"><font size="2"><a href="/yearly/chart/?view=releasedate&view2=domestic&yr=2012&sort=open&order=DESC&p=.htm">Open</a></font></td><td align="center"><font size="2"><a href="/yearly/chart/?view=releasedate&view2=domestic&yr=2012&sort=close&order=DESC&p=.htm">Close</a></font></td></tr><tr bgcolor="#ffffff"><td align="center"><font size="2">1</font></td><td><b><font size="2"><a href="/movies/?id=avengers11.htm">Marvel\'s The Avengers</a></font></b></td><td><font size="2">BV</font></td><td align="right"><font size="2"><b>$623,357,910</b></font></td><td align="right"><font size="2">4,349</font></td><td align="right"><font size="2">$207,438,708</font></td><td align="right"><font size="2">4,349</font></td><td align="right"><font size="2"><a href="/schedule/?view=bydate&release=theatrical&date=2012-05-04&p=.htm">5/4</a></font></td><td align="right"><font size="2">10/4</font></td></tr><tr bgcolor="#f4f4ff"><td align="center"><font size="2">2</font></td><td><b><font size="2"><a href="/movies/?id=batman3.htm">The Dark Knight Rises</a></font></b></td><td><font size="2">WB</font></td><td align="right"><font size="2"><b>$448,139,099</b></font></td><td align="right"><font size="2">4,404</font></td><td align="right"><font size="2">$160,887,295</font></td><td align="right"><font size="2">4,404</font></td><td align="right"><font size="2"><a href="/schedule/?view=bydate&release=theatrical&date=2012-07-20&p=.htm">7/20</a></font></td><td align="right"><font size="2">12/13</font></td></tr><tr bgcolor="#ffffff"><td align="center"><font size="2">3</font></td><td><b><font size="2"><a href="/movies/?id=hungergames.htm">The Hunger Games</a></font></b></td><td><font size="2">LGF</font></td><td align="right"><font size="2"><b>$408,010,692</b></font></td><td align="right"><font size="2">4,137</font></td><td align="right"><font size="2">$152,535,747</font></td><td align="right"><font size="2">4,137</font></td><td align="right"><font size="2"><a href="/schedule/?view=bydate&release=theatrical&date=2012-03-23&p=.htm">3/23</a></font></td><td align="right"><font size="2">9/6</font></td></tr><tr bgcolor="#f4f4ff"><td align="center"><font size="2">4</font></td><td><b><font size="2"><a href="/movies/?id=bond23.htm">Skyfall</a></font></b></td><td><font size="2">Sony</font></td><td align="right"><font size="2"><b>$304,360,277</b></font></td><td align="right"><font size="2">3,526</font></td><td align="right"><font size="2">$88,364,714</font></td><td align="right"><font size="2">3,505</font></td><td align="right"><font size="2"><a href="/schedule/?view=bydate&release=theatrical&date=2012-11-09&p=.htm">11/9</a></font></td><td align="right"><font size="2">3/10</font></td></tr><tr bgcolor="#ffffff"><td align="center"><font size="2">5</font></td><td><b><font size="2"><a href="/movies/?id=hobbit.htm">The Hobbit: An Unexpected Journey</a></font></b></td><td><font size="2">WB</font></td><td align="right"><font size="2"><b>$303,003,568</b></font></td><td align="right"><font size="2">4,100</font></td><td align="right"><font size="2">$84,617,303</font></td><td align="right"><font size="2">4,045</font></td><td align="right"><font size="2"><a href="/schedule/?view=bydate&release=theatrical&date=2012-12-14&p=.htm">12/14</a></font></td><td align="right"><font size="2">4/25</font></td></tr><tr bgcolor="#f4f4ff"><td align="center"><font size="2">6</font></td><td><b><font size="2"><a href="/movies/?id=breakingdawn2.htm">The Twilight Saga: Breaking Dawn Part 2</a></font></b></td><td><font size="2">LG/S</font></td><td align="right"><font size="2"><b>$292,324,737</b></font></td><td align="right"><font size="2">4,070</font></td><td align="right"><font size="2">$141,067,634</font></td><td align="right"><font size="2">4,070</font></td><td align="right"><font size="2"><a href="/schedule/?view=bydate&release=theatrical&date=2012-11-16&p=.htm">11/16</a></font></td><td align="right"><font size="2">3/7</font></td></tr><tr bgcolor="#ffffff"><td align="center"><font size="2">7</font></td><td><b><font size="2"><a href="/movies/?id=spiderman4.htm">The Amazing Spider-Man</a></font></b></td><td><font size="2">Sony</font></td><td align="right"><font size="2"><b>$262,030,663</b></font></td><td align="right"><font size="2">4,318</font></td><td align="right"><font size="2">$62,004,688</font></td><td align="right"><font size="2">4,318</font></td><td align="right"><font size="2"><a href="/schedule/?view=bydate&release=theatrical&date=2012-07-03&p=.htm">7/3</a></font></td><td align="right"><font size="2">10/14</font></td></tr><tr bgcolor="#f4f4ff"><td align="center"><font size="2">8</font></td><td><b><font size="2"><a href="/movies/?id=bearandthebow.htm">Brave</a></font></b></td><td><font size="2">BV</font></td><td align="right"><font size="2"><b>$237,283,207</b></font></td><td align="right"><font size="2">4,164</font></td><td align="right"><font size="2">$66,323,594</font></td><td align="right"><font size="2">4,164</font></td><td align="right"><font size="2"><a href="/schedule/?view=bydate&release=theatrical&date=2012-06-22&p=.htm">6/22</a></font></td><td align="right"><font size="2">1/17</font></td></tr><tr bgcolor="#ffffff"><td align="center"><font size="2">9</font></td><td><b><font size="2"><a href="/movies/?id=ted.htm">Ted</a></font></b></td><td><font size="2">Uni.</font></td><td align="right"><font size="2"><b>$218,815,487</b></font></td><td align="right"><font size="2">3,303</font></td><td align="right"><font size="2">$54,415,205</font></td><td align="right"><font size="2">3,239</font></td><td align="right"><font size="2"><a href="/schedule/?view=bydate&release=theatrical&date=2012-06-29&p=.htm">6/29</a></font></td><td align="right"><font size="2">10/25</font></td></tr><tr bgcolor="#f4f4ff"><td align="center"><font size="2">10</font></td><td><b><font size="2"><a href="/movies/?id=madagascar3.htm">Madagascar 3: Europe\'s Most Wanted</a></font></b></td><td><font size="2">P/DW</font></td><td align="right"><font size="2"><b>$216,391,482</b></font></td><td align="right"><font size="2">4,263</font></td><td align="right"><font size="2">$60,316,738</font></td><td align="right"><font size="2">4,258</font></td><td align="right"><font size="2"><a href="/schedule/?view=bydate&release=theatrical&date=2012-06-08&p=.htm">6/8</a></font></td><td align="right"><font size="2">10/18</font></td></tr><tr bgcolor="#ffffff"><td align="center"><font size="2">11</font></td><td><b><font size="2"><a href="/movies/?id=lorax.htm">Dr. Seuss\' The Lorax</a></font></b></td><td><font size="2">Uni.</font></td><td align="right"><font size="2"><b>$214,030,500</b></font></td><td align="right"><font size="2">3,769</font></td><td align="right"><font size="2">$70,217,070</font></td><td align="right"><font size="2">3,729</font></td><td align="right"><font size="2"><a href="/schedule/?view=bydate&release=theatrical&date=2012-03-02&p=.htm">3/2</a></font></td><td align="right"><font size="2">7/26</font></td></tr><tr bgcolor="#f4f4ff"><td align="center"><font size="2">12</font></td><td><b><font size="2"><a href="/movies/?id=rebootralph.htm">Wreck-It Ralph</a></font></b></td><td><font size="2">BV</font></td><td align="right"><font size="2"><b>$189,422,889</b></font></td><td align="right"><font size="2">3,752</font></td><td align="right"><font size="2">$49,038,712</font></td><td align="right"><font size="2">3,752</font></td><td align="right"><font size="2"><a href="/schedule/?view=bydate&release=theatrical&date=2012-11-02&p=.htm">11/2</a></font></td><td align="right"><font size="2">5/2</font></td></tr><tr bgcolor="#ffffff"><td align="center"><font size="2">13</font></td><td><b><font size="2"><a href="/movies/?id=lincoln.htm">Lincoln</a></font></b></td><td><font size="2">BV</font></td><td align="right"><font size="2"><b>$182,207,973</b></font></td><td align="right"><font size="2">2,293</font></td><td align="right"><font size="2">$944,308</font></td><td align="right"><font size="2">11</font></td><td align="right"><font size="2"><a href="/schedule/?view=bydate&release=theatrical&date=2012-11-09&p=.htm">11/9</a></font></td><td align="right"><font size="2">4/25</font></td></tr><tr bgcolor="#f4f4ff"><td align="center"><font size="2">14</font></td><td><b><font size="2"><a href="/movies/?id=mib3.htm">MIB 3</a></font></b></td><td><font size="2">Sony</font></td><td align="right"><font size="2"><b>$179,020,854</b></font></td><td align="right"><font size="2">4,248</font></td><td align="right"><font size="2">$54,592,779</font></td><td align="right"><font size="2">4,248</font></td><td align="right"><font size="2"><a href="/schedule/?view=bydate&release=theatrical&date=2012-05-25&p=.htm">5/25</a></font></td><td align="right"><font size="2">9/9</font></td></tr><tr bgcolor="#ffffff"><td align="center"><font size="2">15</font></td><td><b><font size="2"><a href="/movies/?id=djangounchained.htm">Django Unchained</a></font></b></td><td><font size="2">Wein.</font></td><td align="right"><font size="2"><b>$162,805,434</b></font></td><td align="right"><font size="2">3,012</font></td><td align="right"><font size="2">$30,122,888</font></td><td align="right"><font size="2">3,010</font></td><td align="right"><font size="2"><a href="/schedule/?view=bydate&release=theatrical&date=2012-12-25&p=.htm">12/25</a></font></td><td align="right"><font size="2">5/16</font></td></tr><tr bgcolor="#f4f4ff"><td align="center"><font size="2">16</font></td><td><b><font size="2"><a href="/movies/?id=iceage4.htm">Ice Age: Continental Drift</a></font></b></td><td><font size="2">Fox</font></td><td align="right"><font size="2"><b>$161,321,843</b></font></td><td align="right"><font size="2">3,886</font></td><td align="right"><font size="2">$46,629,259</font></td><td align="right"><font size="2">3,881</font></td><td align="right"><font size="2"><a href="/schedule/?view=bydate&release=theatrical&date=2012-07-13&p=.htm">7/13</a></font></td><td align="right"><font size="2">2/7</font></td></tr><tr bgcolor="#ffffff"><td align="center"><font size="2">17</font></td><td><b><font size="2"><a href="/movies/?id=snowwhiteandthehuntsman.htm">Snow White and the Huntsman</a></font></b></td><td><font size="2">Uni.</font></td><td align="right"><font size="2"><b>$155,332,381</b></font></td><td align="right"><font size="2">3,777</font></td><td align="right"><font size="2">$56,217,700</font></td><td align="right"><font size="2">3,773</font></td><td align="right"><font size="2"><a href="/schedule/?view=bydate&release=theatrical&date=2012-06-01&p=.htm">6/1</a></font></td><td align="right"><font size="2">9/6</font></td></tr><tr bgcolor="#f4f4ff"><td align="center"><font size="2">18</font></td><td><b><font size="2"><a href="/movies/?id=lesmiserables2012.htm">Les Miserables (2012)</a></font></b></td><td><font size="2">Uni.</font></td><td align="right"><font size="2"><b>$148,809,770</b></font></td><td align="right"><font size="2">2,927</font></td><td align="right"><font size="2">$27,281,735</font></td><td align="right"><font size="2">2,814</font></td><td align="right"><font size="2"><a href="/schedule/?view=bydate&release=theatrical&date=2012-12-25&p=.htm">12/25</a></font></td><td align="right"><font size="2">4/4</font></td></tr><tr bgcolor="#ffffff"><td align="center"><font size="2">19</font></td><td><b><font size="2"><a href="/movies/?id=hoteltransylvania.htm">Hotel Transylvania</a></font></b></td><td><font size="2">Sony</font></td><td align="right"><font size="2"><b>$148,313,048</b></font></td><td align="right"><font size="2">3,375</font></td><td align="right"><font size="2">$42,522,194</font></td><td align="right"><font size="2">3,349</font></td><td align="right"><font size="2"><a href="/schedule/?view=bydate&release=theatrical&date=2012-09-28&p=.htm">9/28</a></font></td><td align="right"><font size="2">2/28</font></td></tr><tr bgcolor="#f4f4ff"><td align="center"><font size="2">20</font></td><td><b><font size="2"><a href="/movies/?id=taken2.htm">Taken 2</a></font></b></td><td><font size="2">Fox</font></td><td align="right"><font size="2"><b>$139,854,287</b></font></td><td align="right"><font size="2">3,706</font></td><td align="right"><font size="2">$49,514,769</font></td><td align="right"><font size="2">3,661</font></td><td align="right"><font size="2"><a href="/schedule/?view=bydate&release=theatrical&date=2012-10-05&p=.htm">10/5</a></font></td><td align="right"><font size="2">2/21</font></td></tr><tr bgcolor="#ffffff"><td align="center"><font size="2">21</font></td><td><b><font size="2"><a href="/movies/?id=21jumpstreet.htm">21 Jump Street</a></font></b></td><td><font size="2">Sony</font></td><td align="right"><font size="2"><b>$138,447,667</b></font></td><td align="right"><font size="2">3,148</font></td><td align="right"><font size="2">$36,302,612</font></td><td align="right"><font size="2">3,121</font></td><td align="right"><font size="2"><a href="/schedule/?view=bydate&release=theatrical&date=2012-03-16&p=.htm">3/16</a></font></td><td align="right"><font size="2">7/1</font></td></tr><tr bgcolor="#f4f4ff"><td align="center"><font size="2">22</font></td><td><b><font size="2"><a href="/movies/?id=argo.htm">Argo</a></font></b></td><td><font size="2">WB</font></td><td align="right"><font size="2"><b>$136,025,503</b></font></td><td align="right"><font size="2">3,247</font></td><td align="right"><font size="2">$19,458,109</font></td><td align="right"><font size="2">3,232</font></td><td align="right"><font size="2"><a href="/schedule/?view=bydate&release=theatrical&date=2012-10-12&p=.htm">10/12</a></font></td><td align="right"><font size="2">4/24</font></td></tr><tr bgcolor="#ffffff"><td align="center"><font size="2">23</font></td><td><b><font size="2"><a href="/movies/?id=silverliningsplaybook.htm">Silver Linings Playbook</a></font></b></td><td><font size="2">Wein.</font></td><td align="right"><font size="2"><b>$132,092,958</b></font></td><td align="right"><font size="2">2,809</font></td><td align="right"><font size="2">$443,003</font></td><td align="right"><font size="2">16</font></td><td align="right"><font size="2"><a href="/schedule/?view=bydate&release=theatrical&date=2012-11-16&p=.htm">11/16</a></font></td><td align="right"><font size="2">6/6</font></td></tr><tr bgcolor="#f4f4ff"><td align="center"><font size="2">24</font></td><td><b><font size="2"><a href="/movies/?id=prometheus.htm">Prometheus</a></font></b></td><td><font size="2">Fox</font></td><td align="right"><font size="2"><b>$126,477,084</b></font></td><td align="right"><font size="2">3,442</font></td><td align="right"><font size="2">$51,050,101</font></td><td align="right"><font size="2">3,396</font></td><td align="right"><font size="2"><a href="/schedule/?view=bydate&release=theatrical&date=2012-06-08&p=.htm">6/8</a></font></td><td align="right"><font size="2">9/20</font></td></tr><tr bgcolor="#ffffff"><td align="center"><font size="2">25</font></td><td><b><font size="2"><a href="/movies/?id=safehouse.htm">Safe House</a></font></b></td><td><font size="2">Uni.</font></td><td align="right"><font size="2"><b>$126,373,434</b></font></td><td align="right"><font size="2">3,121</font></td><td align="right"><font size="2">$40,172,720</font></td><td align="right"><font size="2">3,119</font></td><td align="right"><font size="2"><a href="/schedule/?view=bydate&release=theatrical&date=2012-02-10&p=.htm">2/10</a></font></td><td align="right"><font size="2">5/17</font></td></tr><tr bgcolor="#f4f4ff"><td align="center"><font size="2">26</font></td><td><b><font size="2"><a href="/movies/?id=vow.htm">The Vow</a></font></b></td><td><font size="2">SGem</font></td><td align="right"><font size="2"><b>$125,014,030</b></font></td><td align="right"><font size="2">3,038</font></td><td align="right"><font size="2">$41,202,458</font></td><td align="right"><font size="2">2,958</font></td><td align="right"><font size="2"><a href="/schedule/?view=bydate&release=theatrical&date=2012-02-10&p=.htm">2/10</a></font></td><td align="right"><font size="2">5/17</font></td></tr><tr bgcolor="#ffffff"><td align="center"><font size="2">27</font></td><td><b><font size="2"><a href="/movies/?id=lifeofpi.htm">Life of Pi</a></font></b></td><td><font size="2">Fox</font></td><td align="right"><font size="2"><b>$124,987,023</b></font></td><td align="right"><font size="2">2,946</font></td><td align="right"><font size="2">$22,451,514</font></td><td align="right"><font size="2">2,927</font></td><td align="right"><font size="2"><a href="/schedule/?view=bydate&release=theatrical&date=2012-11-21&p=.htm">11/21</a></font></td><td align="right"><font size="2">7/25</font></td></tr><tr bgcolor="#f4f4ff"><td align="center"><font size="2">28</font></td><td><b><font size="2"><a href="/movies/?id=magicmike.htm">Magic Mike</a></font></b></td><td><font size="2">WB</font></td><td align="right"><font size="2"><b>$113,721,571</b></font></td><td align="right"><font size="2">3,120</font></td><td align="right"><font size="2">$39,127,170</font></td><td align="right"><font size="2">2,930</font></td><td align="right"><font size="2"><a href="/schedule/?view=bydate&release=theatrical&date=2012-06-29&p=.htm">6/29</a></font></td><td align="right"><font size="2">9/27</font></td></tr><tr bgcolor="#ffffff"><td align="center"><font size="2">29</font></td><td><b><font size="2"><a href="/movies/?id=bourne4.htm">The Bourne Legacy</a></font></b></td><td><font size="2">Uni.</font></td><td align="right"><font size="2"><b>$113,203,870</b></font></td><td align="right"><font size="2">3,753</font></td><td align="right"><font size="2">$38,142,825</font></td><td align="right"><font size="2">3,745</font></td><td align="right"><font size="2"><a href="/schedule/?view=bydate&release=theatrical&date=2012-08-10&p=.htm">8/10</a></font></td><td align="right"><font size="2">11/8</font></td></tr><tr bgcolor="#f4f4ff"><td align="center"><font size="2">30</font></td><td><b><font size="2"><a href="/movies/?id=journey2.htm">Journey 2: The Mysterious Island</a></font></b></td><td><font size="2">WB</font></td><td align="right"><font size="2"><b>$103,860,290</b></font></td><td align="right"><font size="2">3,500</font></td><td align="right"><font size="2">$27,335,363</font></td><td align="right"><font size="2">3,470</font></td><td align="right"><font size="2"><a href="/schedule/?view=bydate&release=theatrical&date=2012-02-10&p=.htm">2/10</a></font></td><td align="right"><font size="2">6/28</font></td></tr><tr bgcolor="#ffffff"><td align="center"><font size="2">31</font></td><td><b><font size="2"><a href="/movies/?id=guardians.htm">Rise of the Guardians</a></font></b></td><td><font size="2">P/DW</font></td><td align="right"><font size="2"><b>$103,412,758</b></font></td><td align="right"><font size="2">3,672</font></td><td align="right"><font size="2">$23,773,465</font></td><td align="right"><font size="2">3,653</font></td><td align="right"><font size="2"><a href="/schedule/?view=bydate&release=theatrical&date=2012-11-21&p=.htm">11/21</a></font></td><td align="right"><font size="2">4/11</font></td></tr><tr bgcolor="#f4f4ff"><td align="center"><font size="2">32</font></td><td><b><font size="2"><a href="/movies/?id=binladen.htm">Zero Dark Thirty</a></font></b></td><td><font size="2">Sony</font></td><td align="right"><font size="2"><b>$95,720,716</b></font></td><td align="right"><font size="2">2,946</font></td><td align="right"><font size="2">$417,150</font></td><td align="right"><font size="2">5</font></td><td align="right"><font size="2"><a href="/schedule/?view=bydate&release=theatrical&date=2012-12-19&p=.htm">12/19</a></font></td><td align="right"><font size="2">3/31</font></td></tr><tr bgcolor="#ffffff"><td align="center"><font size="2">33</font></td><td><b><font size="2"><a href="/movies/?id=flight.htm">Flight</a></font></b></td><td><font size="2">Par.</font></td><td align="right"><font size="2"><b>$93,772,375</b></font></td><td align="right"><font size="2">2,638</font></td><td align="right"><font size="2">$24,900,566</font></td><td align="right"><font size="2">1,884</font></td><td align="right"><font size="2"><a href="/schedule/?view=bydate&release=theatrical&date=2012-11-02&p=.htm">11/2</a></font></td><td align="right"><font size="2">2/14</font></td></tr><tr bgcolor="#f4f4ff"><td align="center"><font size="2">34</font></td><td><b><font size="2"><a href="/movies/?id=thinklikeaman.htm">Think Like a Man</a></font></b></td><td><font size="2">SGem</font></td><td align="right"><font size="2"><b>$91,547,205</b></font></td><td align="right"><font size="2">2,052</font></td><td align="right"><font size="2">$33,636,303</font></td><td align="right"><font size="2">2,015</font></td><td align="right"><font size="2"><a href="/schedule/?view=bydate&release=theatrical&date=2012-04-20&p=.htm">4/20</a></font></td><td align="right"><font size="2">7/8</font></td></tr><tr bgcolor="#ffffff"><td align="center"><font size="2">35</font></td><td><b><font size="2"><a href="/movies/?id=rivals.htm">The Campaign</a></font></b></td><td><font size="2">WB</font></td><td align="right"><font size="2"><b>$86,907,746</b></font></td><td align="right"><font size="2">3,302</font></td><td align="right"><font size="2">$26,588,460</font></td><td align="right"><font size="2">3,205</font></td><td align="right"><font size="2"><a href="/schedule/?view=bydate&release=theatrical&date=2012-08-10&p=.htm">8/10</a></font></td><td align="right"><font size="2">11/22</font></td></tr><tr bgcolor="#f4f4ff"><td align="center"><font size="2">36</font></td><td><b><font size="2"><a href="/movies/?id=expendables2.htm">The Expendables 2</a></font></b></td><td><font size="2">LGF</font></td><td align="right"><font size="2"><b>$85,028,192</b></font></td><td align="right"><font size="2">3,355</font></td><td align="right"><font size="2">$28,591,370</font></td><td align="right"><font size="2">3,316</font></td><td align="right"><font size="2"><a href="/schedule/?view=bydate&release=theatrical&date=2012-08-17&p=.htm">8/17</a></font></td><td align="right"><font size="2">11/22</font></td></tr><tr bgcolor="#ffffff"><td align="center"><font size="2">37</font></td><td><b><font size="2"><a href="/movies/?id=clashofthetitans2.htm">Wrath of the Titans</a></font></b></td><td><font size="2">WB</font></td><td align="right"><font size="2"><b>$83,670,083</b></font></td><td align="right"><font size="2">3,545</font></td><td align="right"><font size="2">$33,457,188</font></td><td align="right"><font size="2">3,545</font></td><td align="right"><font size="2"><a href="/schedule/?view=bydate&release=theatrical&date=2012-03-30&p=.htm">3/30</a></font></td><td align="right"><font size="2">6/28</font></td></tr><tr bgcolor="#f4f4ff"><td align="center"><font size="2">38</font></td><td><b><font size="2"><a href="/movies/?id=oneshot.htm">Jack Reacher</a></font></b></td><td><font size="2">Par.</font></td><td align="right"><font size="2"><b>$80,070,736</b></font></td><td align="right"><font size="2">3,352</font></td><td align="right"><font size="2">$15,210,156</font></td><td align="right"><font size="2">3,352</font></td><td align="right"><font size="2"><a href="/schedule/?view=bydate&release=theatrical&date=2012-12-21&p=.htm">12/21</a></font></td><td align="right"><font size="2">3/21</font></td></tr><tr bgcolor="#ffffff"><td align="center"><font size="2">39</font></td><td><b><font size="2"><a href="/movies/?id=darkshadows.htm">Dark Shadows</a></font></b></td><td><font size="2">WB</font></td><td align="right"><font size="2"><b>$79,727,149</b></font></td><td align="right"><font size="2">3,755</font></td><td align="right"><font size="2">$29,685,274</font></td><td align="right"><font size="2">3,755</font></td><td align="right"><font size="2"><a href="/schedule/?view=bydate&release=theatrical&date=2012-05-11&p=.htm">5/11</a></font></td><td align="right"><font size="2">8/16</font></td></tr><tr bgcolor="#f4f4ff"><td align="center"><font size="2">40</font></td><td><b><font size="2"><a href="/movies/?id=parentalguidance.htm">Parental Guidance</a></font></b></td><td><font size="2">Fox</font></td><td align="right"><font size="2"><b>$77,267,296</b></font></td><td align="right"><font size="2">3,368</font></td><td align="right"><font size="2">$14,554,053</font></td><td align="right"><font size="2">3,367</font></td><td align="right"><font size="2"><a href="/schedule/?view=bydate&release=theatrical&date=2012-12-25&p=.htm">12/25</a></font></td><td align="right"><font size="2">5/23</font></td></tr><tr bgcolor="#ffffff"><td align="center"><font size="2">41</font></td><td><b><font size="2"><a href="/movies/?id=johncarterofmars.htm">John Carter</a></font></b></td><td><font size="2">BV</font></td><td align="right"><font size="2"><b>$73,078,100</b></font></td><td align="right"><font size="2">3,749</font></td><td align="right"><font size="2">$30,180,188</font></td><td align="right"><font size="2">3,749</font></td><td align="right"><font size="2"><a href="/schedule/?view=bydate&release=theatrical&date=2012-03-09&p=.htm">3/9</a></font></td><td align="right"><font size="2">6/28</font></td></tr><tr bgcolor="#f4f4ff"><td align="center"><font size="2">42</font></td><td><b><font size="2"><a href="/movies/?id=actofvalor.htm">Act of Valor</a></font></b></td><td><font size="2">Rela.</font></td><td align="right"><font size="2"><b>$70,012,847</b></font></td><td align="right"><font size="2">3,053</font></td><td align="right"><font size="2">$24,476,632</font></td><td align="right"><font size="2">3,039</font></td><td align="right"><font size="2"><a href="/schedule/?view=bydate&release=theatrical&date=2012-02-24&p=.htm">2/24</a></font></td><td align="right"><font size="2">6/7</font></td></tr><tr bgcolor="#ffffff"><td align="center"><font size="2">43</font></td><td><b><font size="2"><a href="/movies/?id=apatow.htm">This Is 40</a></font></b></td><td><font size="2">Uni.</font></td><td align="right"><font size="2"><b>$67,544,505</b></font></td><td align="right"><font size="2">2,931</font></td><td align="right"><font size="2">$11,579,175</font></td><td align="right"><font size="2">2,912</font></td><td align="right"><font size="2"><a href="/schedule/?view=bydate&release=theatrical&date=2012-12-21&p=.htm">12/21</a></font></td><td align="right"><font size="2">2/28</font></td></tr><tr bgcolor="#f4f4ff"><td align="center"><font size="2">44</font></td><td><b><font size="2"><a href="/movies/?id=contraband.htm">Contraband</a></font></b></td><td><font size="2">Uni.</font></td><td align="right"><font size="2"><b>$66,528,000</b></font></td><td align="right"><font size="2">2,870</font></td><td align="right"><font size="2">$24,349,815</font></td><td align="right"><font size="2">2,863</font></td><td align="right"><font size="2"><a href="/schedule/?view=bydate&release=theatrical&date=2012-01-13&p=.htm">1/13</a></font></td><td align="right"><font size="2">3/15</font></td></tr><tr bgcolor="#ffffff"><td align="center"><font size="2">45</font></td><td><b><font size="2"><a href="/movies/?id=loopers.htm">Looper</a></font></b></td><td><font size="2">TriS</font></td><td align="right"><font size="2"><b>$66,486,205</b></font></td><td align="right"><font size="2">2,993</font></td><td align="right"><font size="2">$20,801,522</font></td><td align="right"><font size="2">2,992</font></td><td align="right"><font size="2"><a href="/schedule/?view=bydate&release=theatrical&date=2012-09-28&p=.htm">9/28</a></font></td><td align="right"><font size="2">1/1</font></td></tr><tr bgcolor="#f4f4ff"><td align="center"><font size="2">46</font></td><td><b><font size="2"><a href="/movies/?id=madeaswitnessprotection.htm">Tyler Perry\'s Madea\'s Witness Protection</a></font></b></td><td><font size="2">LGF</font></td><td align="right"><font size="2"><b>$65,653,242</b></font></td><td align="right"><font size="2">2,161</font></td><td align="right"><font size="2">$25,390,575</font></td><td align="right"><font size="2">2,161</font></td><td align="right"><font size="2"><a href="/schedule/?view=bydate&release=theatrical&date=2012-06-29&p=.htm">6/29</a></font></td><td align="right"><font size="2">9/20</font></td></tr><tr bgcolor="#ffffff"><td align="center"><font size="2">47</font></td><td><b><font size="2"><a href="/movies/?id=battleship.htm">Battleship</a></font></b></td><td><font size="2">Uni.</font></td><td align="right"><font size="2"><b>$65,422,625</b></font></td><td align="right"><font size="2">3,702</font></td><td align="right"><font size="2">$25,534,825</font></td><td align="right"><font size="2">3,690</font></td><td align="right"><font size="2"><a href="/schedule/?view=bydate&release=theatrical&date=2012-05-18&p=.htm">5/18</a></font></td><td align="right"><font size="2">8/2</font></td></tr><tr bgcolor="#f4f4ff"><td align="center"><font size="2">48</font></td><td><b><font size="2"><a href="/movies/?id=pitchperfect.htm">Pitch Perfect</a></font></b></td><td><font size="2">Uni.</font></td><td align="right"><font size="2"><b>$65,001,093</b></font></td><td align="right"><font size="2">2,787</font></td><td align="right"><font size="2">$5,149,433</font></td><td align="right"><font size="2">335</font></td><td align="right"><font size="2"><a href="/schedule/?view=bydate&release=theatrical&date=2012-09-28&p=.htm">9/28</a></font></td><td align="right"><font size="2">2/14</font></td></tr><tr bgcolor="#ffffff"><td align="center"><font size="2">49</font></td><td><b><font size="2"><a href="/movies/?id=untitledsnowwhite.htm">Mirror Mirror</a></font></b></td><td><font size="2">Rela.</font></td><td align="right"><font size="2"><b>$64,935,167</b></font></td><td align="right"><font size="2">3,618</font></td><td align="right"><font size="2">$18,132,085</font></td><td align="right"><font size="2">3,603</font></td><td align="right"><font size="2"><a href="/schedule/?view=bydate&release=theatrical&date=2012-03-30&p=.htm">3/30</a></font></td><td align="right"><font size="2">8/16</font></td></tr><tr bgcolor="#f4f4ff"><td align="center"><font size="2">50</font></td><td><b><font size="2"><a href="/movies/?id=chronicle2012.htm">Chronicle (2012)</a></font></b></td><td><font size="2">Fox</font></td><td align="right"><font size="2"><b>$64,575,175</b></font></td><td align="right"><font size="2">2,908</font></td><td align="right"><font size="2">$22,004,098</font></td><td align="right"><font size="2">2,907</font></td><td align="right"><font size="2"><a href="/schedule/?view=bydate&release=theatrical&date=2012-02-03&p=.htm">2/3</a></font></td><td align="right"><font size="2">6/7</font></td></tr><tr bgcolor="#ffffff"><td align="center"><font size="2">51</font></td><td><b><font size="2"><a href="/movies/?id=greathopesprings.htm">Hope Springs</a></font></b></td><td><font size="2">Sony</font></td><td align="right"><font size="2"><b>$63,536,011</b></font></td><td align="right"><font size="2">2,441</font></td><td align="right"><font size="2">$14,650,121</font></td><td align="right"><font size="2">2,361</font></td><td align="right"><font size="2"><a href="/schedule/?view=bydate&release=theatrical&date=2012-08-08&p=.htm">8/8</a></font></td><td align="right"><font size="2">10/21</font></td></tr><tr bgcolor="#f4f4ff"><td align="center"><font size="2">52</font></td><td><b><font size="2"><a href="/movies/?id=underworld4.htm">Underworld Awakening</a></font></b></td><td><font size="2">SGem</font></td><td align="right"><font size="2"><b>$62,321,039</b></font></td><td align="right"><font size="2">3,078</font></td><td align="right"><font size="2">$25,306,725</font></td><td align="right"><font size="2">3,078</font></td><td align="right"><font size="2"><a href="/schedule/?view=bydate&release=theatrical&date=2012-01-20&p=.htm">1/20</a></font></td><td align="right"><font size="2">3/8</font></td></tr><tr bgcolor="#ffffff"><td align="center"><font size="2">53</font></td><td><b><font size="2"><a href="/movies/?id=luckyone.htm">The Lucky One</a></font></b></td><td><font size="2">WB</font></td><td align="right"><font size="2"><b>$60,457,138</b></font></td><td align="right"><font size="2">3,175</font></td><td align="right"><font size="2">$22,518,358</font></td><td align="right"><font size="2">3,155</font></td><td align="right"><font size="2"><a href="/schedule/?view=bydate&release=theatrical&date=2012-04-20&p=.htm">4/20</a></font></td><td align="right"><font size="2">7/19</font></td></tr><tr bgcolor="#f4f4ff"><td align="center"><font size="2">54</font></td><td><b><font size="2"><a href="/movies/?id=dictator.htm">The Dictator</a></font></b></td><td><font size="2">Par.</font></td><td align="right"><font size="2"><b>$59,650,222</b></font></td><td align="right"><font size="2">3,014</font></td><td align="right"><font size="2">$17,435,092</font></td><td align="right"><font size="2">3,008</font></td><td align="right"><font size="2"><a href="/schedule/?view=bydate&release=theatrical&date=2012-05-16&p=.htm">5/16</a></font></td><td align="right"><font size="2">7/26</font></td></tr><tr bgcolor="#ffffff"><td align="center"><font size="2">55</font></td><td><b><font size="2"><a href="/movies/?id=totalrecall2012.htm">Total Recall (2012)</a></font></b></td><td><font size="2">Sony</font></td><td align="right"><font size="2"><b>$58,877,969</b></font></td><td align="right"><font size="2">3,601</font></td><td align="right"><font size="2">$25,577,758</font></td><td align="right"><font size="2">3,601</font></td><td align="right"><font size="2"><a href="/schedule/?view=bydate&release=theatrical&date=2012-08-03&p=.htm">8/3</a></font></td><td align="right"><font size="2">10/7</font></td></tr><tr bgcolor="#f4f4ff"><td align="center"><font size="2">56</font></td><td><b><font size="2"><a href="/movies/?id=titanic3d.htm">Titanic 3D</a></font></b></td><td><font size="2">Par.</font></td><td align="right"><font size="2"><b>$57,884,114</b></font></td><td align="right"><font size="2">3,674</font></td><td align="right"><font size="2">$17,285,453</font></td><td align="right"><font size="2">2,674</font></td><td align="right"><font size="2"><a href="/schedule/?view=bydate&release=theatrical&date=2012-04-04&p=.htm">4/4</a></font></td><td align="right"><font size="2">6/7</font></td></tr><tr bgcolor="#ffffff"><td align="center"><font size="2">57</font></td><td><b><font size="2"><a href="/movies/?id=americanreunion.htm">American Reunion</a></font></b></td><td><font size="2">Uni.</font></td><td align="right"><font size="2"><b>$57,011,521</b></font></td><td align="right"><font size="2">3,203</font></td><td align="right"><font size="2">$21,514,080</font></td><td align="right"><font size="2">3,192</font></td><td align="right"><font size="2"><a href="/schedule/?view=bydate&release=theatrical&date=2012-04-06&p=.htm">4/6</a></font></td><td align="right"><font size="2">5/31</font></td></tr><tr bgcolor="#f4f4ff"><td align="center"><font size="2">58</font></td><td><b><font size="2"><a href="/movies/?id=paranorman.htm">ParaNorman</a></font></b></td><td><font size="2">Focus</font></td><td align="right"><font size="2"><b>$56,003,051</b></font></td><td align="right"><font size="2">3,455</font></td><td align="right"><font size="2">$14,087,050</font></td><td align="right"><font size="2">3,429</font></td><td align="right"><font size="2"><a href="/schedule/?view=bydate&release=theatrical&date=2012-08-17&p=.htm">8/17</a></font></td><td align="right"><font size="2">1/3</font></td></tr><tr bgcolor="#ffffff"><td align="center"><font size="2">59</font></td><td><b><font size="2"><a href="/movies/?id=thismeanwar.htm">This Means War</a></font></b></td><td><font size="2">Fox</font></td><td align="right"><font size="2"><b>$54,760,791</b></font></td><td align="right"><font size="2">3,189</font></td><td align="right"><font size="2">$17,405,930</font></td><td align="right"><font size="2">3,189</font></td><td align="right"><font size="2"><a href="/schedule/?view=bydate&release=theatrical&date=2012-02-17&p=.htm">2/17</a></font></td><td align="right"><font size="2">6/14</font></td></tr><tr bgcolor="#f4f4ff"><td align="center"><font size="2">60</font></td><td><b><font size="2"><a href="/movies/?id=projectx2011.htm">Project X</a></font></b></td><td><font size="2">WB</font></td><td align="right"><font size="2"><b>$54,731,865</b></font></td><td align="right"><font size="2">3,055</font></td><td align="right"><font size="2">$21,051,363</font></td><td align="right"><font size="2">3,055</font></td><td align="right"><font size="2"><a href="/schedule/?view=bydate&release=theatrical&date=2012-03-02&p=.htm">3/2</a></font></td><td align="right"><font size="2">5/17</font></td></tr><tr bgcolor="#ffffff"><td align="center"><font size="2">61</font></td><td><b><font size="2"><a href="/movies/?id=womaninblack.htm">The Woman in Black</a></font></b></td><td><font size="2">CBS</font></td><td align="right"><font size="2"><b>$54,333,290</b></font></td><td align="right"><font size="2">2,856</font></td><td align="right"><font size="2">$20,874,072</font></td><td align="right"><font size="2">2,855</font></td><td align="right"><font size="2"><a href="/schedule/?view=bydate&release=theatrical&date=2012-02-03&p=.htm">2/3</a></font></td><td align="right"><font size="2">5/3</font></td></tr><tr bgcolor="#f4f4ff"><td align="center"><font size="2">62</font></td><td><b><font size="2"><a href="/movies/?id=paranormalactivity4.htm">Paranormal Activity 4</a></font></b></td><td><font size="2">Par.</font></td><td align="right"><font size="2"><b>$53,900,335</b></font></td><td align="right"><font size="2">3,412</font></td><td align="right"><font size="2">$29,003,866</font></td><td align="right"><font size="2">3,412</font></td><td align="right"><font size="2"><a href="/schedule/?view=bydate&release=theatrical&date=2012-10-19&p=.htm">10/19</a></font></td><td align="right"><font size="2">1/3</font></td></tr><tr bgcolor="#ffffff"><td align="center"><font size="2">63</font></td><td><b><font size="2"><a href="/movies/?id=devilinside.htm">The Devil Inside</a></font></b></td><td><font size="2">Par.</font></td><td align="right"><font size="2"><b>$53,261,944</b></font></td><td align="right"><font size="2">2,551</font></td><td align="right"><font size="2">$33,732,515</font></td><td align="right"><font size="2">2,285</font></td><td align="right"><font size="2"><a href="/schedule/?view=bydate&release=theatrical&date=2012-01-06&p=.htm">1/6</a></font></td><td align="right"><font size="2">3/22</font></td></tr><tr bgcolor="#f4f4ff"><td align="center"><font size="2">64</font></td><td><b><font size="2"><a href="/movies/?id=oddlifeoftimothygreen.htm">The Odd Life of Timothy Green</a></font></b></td><td><font size="2">BV</font></td><td align="right"><font size="2"><b>$51,854,875</b></font></td><td align="right"><font size="2">2,717</font></td><td align="right"><font size="2">$10,822,903</font></td><td align="right"><font size="2">2,598</font></td><td align="right"><font size="2"><a href="/schedule/?view=bydate&release=theatrical&date=2012-08-15&p=.htm">8/15</a></font></td><td align="right"><font size="2">1/17</font></td></tr><tr bgcolor="#ffffff"><td align="center"><font size="2">65</font></td><td><b><font size="2"><a href="/movies/?id=ghostrider2.htm">Ghost Rider: Spirit of Vengeance</a></font></b></td><td><font size="2">Sony</font></td><td align="right"><font size="2"><b>$51,774,002</b></font></td><td align="right"><font size="2">3,174</font></td><td align="right"><font size="2">$22,115,334</font></td><td align="right"><font size="2">3,174</font></td><td align="right"><font size="2"><a href="/schedule/?view=bydate&release=theatrical&date=2012-02-17&p=.htm">2/17</a></font></td><td align="right"><font size="2">5/10</font></td></tr><tr bgcolor="#f4f4ff"><td align="center"><font size="2">66</font></td><td><b><font size="2"><a href="/movies/?id=grey.htm">The Grey</a></font></b></td><td><font size="2">ORF</font></td><td align="right"><font size="2"><b>$51,580,236</b></font></td><td align="right"><font size="2">3,208</font></td><td align="right"><font size="2">$19,665,101</font></td><td align="right"><font size="2">3,185</font></td><td align="right"><font size="2"><a href="/schedule/?view=bydate&release=theatrical&date=2012-01-27&p=.htm">1/27</a></font></td><td align="right"><font size="2">4/19</font></td></tr><tr bgcolor="#ffffff"><td align="center"><font size="2">67</font></td><td><b><font size="2"><a href="/movies/?id=redtails.htm">Red Tails</a></font></b></td><td><font size="2">Fox</font></td><td align="right"><font size="2"><b>$49,876,377</b></font></td><td align="right"><font size="2">2,573</font></td><td align="right"><font size="2">$18,782,154</font></td><td align="right"><font size="2">2,512</font></td><td align="right"><font size="2"><a href="/schedule/?view=bydate&release=theatrical&date=2012-01-20&p=.htm">1/20</a></font></td><td align="right"><font size="2">6/7</font></td></tr><tr bgcolor="#f4f4ff"><td align="center"><font size="2">68</font></td><td><b><font size="2"><a href="/movies/?id=dibbukbox.htm">The Possession</a></font></b></td><td><font size="2">LGF</font></td><td align="right"><font size="2"><b>$49,130,154</b></font></td><td align="right"><font size="2">2,860</font></td><td align="right"><font size="2">$17,732,480</font></td><td align="right"><font size="2">2,816</font></td><td align="right"><font size="2"><a href="/schedule/?view=bydate&release=theatrical&date=2012-08-31&p=.htm">8/31</a></font></td><td align="right"><font size="2">11/22</font></td></tr><tr bgcolor="#ffffff"><td align="center"><font size="2">69</font></td><td><b><font size="2"><a href="/movies/?id=diaryofawimpykid3.htm">Diary of a Wimpy Kid: Dog Days</a></font></b></td><td><font size="2">Fox</font></td><td align="right"><font size="2"><b>$49,008,662</b></font></td><td align="right"><font size="2">3,401</font></td><td align="right"><font size="2">$14,623,599</font></td><td align="right"><font size="2">3,391</font></td><td align="right"><font size="2"><a href="/schedule/?view=bydate&release=theatrical&date=2012-08-03&p=.htm">8/3</a></font></td><td align="right"><font size="2">12/20</font></td></tr><tr bgcolor="#f4f4ff"><td align="center"><font size="2">70</font></td><td><b><font size="2"><a href="/movies/?id=sinister.htm">Sinister</a></font></b></td><td><font size="2">LG/S</font></td><td align="right"><font size="2"><b>$48,086,903</b></font></td><td align="right"><font size="2">2,542</font></td><td align="right"><font size="2">$18,007,634</font></td><td align="right"><font size="2">2,527</font></td><td align="right"><font size="2"><a href="/schedule/?view=bydate&release=theatrical&date=2012-10-12&p=.htm">10/12</a></font></td><td align="right"><font size="2">1/3</font></td></tr><tr bgcolor="#ffffff"><td align="center"><font size="2">71</font></td><td><b><font size="2"><a href="/movies/?id=beautyandthebeast3d.htm">Beauty and the Beast (3D)</a></font></b></td><td><font size="2">BV</font></td><td align="right"><font size="2"><b>$47,617,067</b></font></td><td align="right"><font size="2">2,625</font></td><td align="right"><font size="2">$17,751,905</font></td><td align="right"><font size="2">2,625</font></td><td align="right"><font size="2"><a href="/schedule/?view=bydate&release=theatrical&date=2012-01-13&p=.htm">1/13</a></font></td><td align="right"><font size="2">5/3</font></td></tr><tr bgcolor="#f4f4ff"><td align="center"><font size="2">72</font></td><td><b><font size="2"><a href="/movies/?id=savages12.htm">Savages (2012)</a></font></b></td><td><font size="2">Uni.</font></td><td align="right"><font size="2"><b>$47,382,068</b></font></td><td align="right"><font size="2">2,635</font></td><td align="right"><font size="2">$16,016,910</font></td><td align="right"><font size="2">2,628</font></td><td align="right"><font size="2"><a href="/schedule/?view=bydate&release=theatrical&date=2012-07-06&p=.htm">7/6</a></font></td><td align="right"><font size="2">9/6</font></td></tr><tr bgcolor="#ffffff"><td align="center"><font size="2">73</font></td><td><b><font size="2"><a href="/movies/?id=bestexoticmarigoldhotel.htm">The Best Exotic Marigold Hotel</a></font></b></td><td><font size="2">FoxS</font></td><td align="right"><font size="2"><b>$46,412,041</b></font></td><td align="right"><font size="2">1,298</font></td><td align="right"><font size="2">$737,051</font></td><td align="right"><font size="2">27</font></td><td align="right"><font size="2"><a href="/schedule/?view=bydate&release=theatrical&date=2012-05-04&p=.htm">5/4</a></font></td><td align="right"><font size="2">10/25</font></td></tr><tr bgcolor="#f4f4ff"><td align="center"><font size="2">74</font></td><td><b><font size="2"><a href="/movies/?id=moonrisekingdom.htm">Moonrise Kingdom</a></font></b></td><td><font size="2">Focus</font></td><td align="right"><font size="2"><b>$45,512,466</b></font></td><td align="right"><font size="2">924</font></td><td align="right"><font size="2">$522,996</font></td><td align="right"><font size="2">4</font></td><td align="right"><font size="2"><a href="/schedule/?view=bydate&release=theatrical&date=2012-05-25&p=.htm">5/25</a></font></td><td align="right"><font size="2">11/1</font></td></tr><tr bgcolor="#ffffff"><td align="center"><font size="2">75</font></td><td><b><font size="2"><a href="/movies/?id=herecomestheboom.htm">Here Comes the Boom</a></font></b></td><td><font size="2">Sony</font></td><td align="right"><font size="2"><b>$45,290,318</b></font></td><td align="right"><font size="2">3,014</font></td><td align="right"><font size="2">$11,816,596</font></td><td align="right"><font size="2">3,014</font></td><td align="right"><font size="2"><a href="/schedule/?view=bydate&release=theatrical&date=2012-10-12&p=.htm">10/12</a></font></td><td align="right"><font size="2">2/18</font></td></tr><tr bgcolor="#f4f4ff"><td align="center"><font size="2">76</font></td><td><b><font size="2"><a href="/movies/?id=reddawn10.htm">Red Dawn (2012)</a></font></b></td><td><font size="2">FD</font></td><td align="right"><font size="2"><b>$44,806,783</b></font></td><td align="right"><font size="2">2,781</font></td><td align="right"><font size="2">$14,276,668</font></td><td align="right"><font size="2">2,724</font></td><td align="right"><font size="2"><a href="/schedule/?view=bydate&release=theatrical&date=2012-11-21&p=.htm">11/21</a></font></td><td align="right"><font size="2">2/21</font></td></tr><tr bgcolor="#ffffff"><td align="center"><font size="2">77</font></td><td><b><font size="2"><a href="/movies/?id=threestooges.htm">The Three Stooges</a></font></b></td><td><font size="2">Fox</font></td><td align="right"><font size="2"><b>$44,338,224</b></font></td><td align="right"><font size="2">3,482</font></td><td align="right"><font size="2">$17,010,125</font></td><td align="right"><font size="2">3,477</font></td><td align="right"><font size="2"><a href="/schedule/?view=bydate&release=theatrical&date=2012-04-13&p=.htm">4/13</a></font></td><td align="right"><font size="2">8/16</font></td></tr><tr bgcolor="#f4f4ff"><td align="center"><font size="2">78</font></td><td><b><font size="2"><a href="/movies/?id=starwars3d.htm">Star Wars: Episode I - The Phantom Menace (in 3D)</a></font></b></td><td><font size="2">Fox</font></td><td align="right"><font size="2"><b>$43,456,382</b></font></td><td align="right"><font size="2">2,655</font></td><td align="right"><font size="2">$22,469,932</font></td><td align="right"><font size="2">2,655</font></td><td align="right"><font size="2"><a href="/schedule/?view=bydate&release=theatrical&date=2012-02-10&p=.htm">2/10</a></font></td><td align="right"><font size="2">5/28</font></td></tr><tr bgcolor="#ffffff"><td align="center"><font size="2">79</font></td><td><b><font size="2"><a href="/movies/?id=residentevil5.htm">Resident Evil: Retribution</a></font></b></td><td><font size="2">SGem</font></td><td align="right"><font size="2"><b>$42,345,531</b></font></td><td align="right"><font size="2">3,016</font></td><td align="right"><font size="2">$21,052,227</font></td><td align="right"><font size="2">3,012</font></td><td align="right"><font size="2"><a href="/schedule/?view=bydate&release=theatrical&date=2012-09-14&p=.htm">9/14</a></font></td><td align="right"><font size="2">11/11</font></td></tr><tr bgcolor="#f4f4ff"><td align="center"><font size="2">80</font></td><td><b><font size="2"><a href="/movies/?id=cabininthewoods.htm">The Cabin in the Woods</a></font></b></td><td><font size="2">LGF</font></td><td align="right"><font size="2"><b>$42,073,277</b></font></td><td align="right"><font size="2">2,811</font></td><td align="right"><font size="2">$14,743,614</font></td><td align="right"><font size="2">2,811</font></td><td align="right"><font size="2"><a href="/schedule/?view=bydate&release=theatrical&date=2012-04-13&p=.htm">4/13</a></font></td><td align="right"><font size="2">7/12</font></td></tr><tr bgcolor="#ffffff"><td align="center"><font size="2">81</font></td><td><b><font size="2"><a href="/movies/?id=whattoexpect.htm">What to Expect When You\'re Expecting</a></font></b></td><td><font size="2">LGF</font></td><td align="right"><font size="2"><b>$41,152,203</b></font></td><td align="right"><font size="2">3,021</font></td><td align="right"><font size="2">$10,547,068</font></td><td align="right"><font size="2">3,021</font></td><td align="right"><font size="2"><a href="/schedule/?view=bydate&release=theatrical&date=2012-05-18&p=.htm">5/18</a></font></td><td align="right"><font size="2">8/2</font></td></tr><tr bgcolor="#f4f4ff"><td align="center"><font size="2">82</font></td><td><b><font size="2"><a href="/movies/?id=findingnemo3d.htm">Finding Nemo (3D)</a></font></b></td><td><font size="2">BV</font></td><td align="right"><font size="2"><b>$41,128,283</b></font></td><td align="right"><font size="2">2,904</font></td><td align="right"><font size="2">$16,687,773</font></td><td align="right"><font size="2">2,904</font></td><td align="right"><font size="2"><a href="/schedule/?view=bydate&release=theatrical&date=2012-09-14&p=.htm">9/14</a></font></td><td align="right"><font size="2">1/17</font></td></tr><tr bgcolor="#ffffff"><td align="center"><font size="2">83</font></td><td><b><font size="2"><a href="/movies/?id=endofwatch.htm">End of Watch</a></font></b></td><td><font size="2">ORF</font></td><td align="right"><font size="2"><b>$41,003,371</b></font></td><td align="right"><font size="2">2,780</font></td><td align="right"><font size="2">$13,152,683</font></td><td align="right"><font size="2">2,730</font></td><td align="right"><font size="2"><a href="/schedule/?view=bydate&release=theatrical&date=2012-09-21&p=.htm">9/21</a></font></td><td align="right"><font size="2">1/17</font></td></tr><tr bgcolor="#f4f4ff"><td align="center"><font size="2">84</font></td><td><b><font size="2"><a href="/movies/?id=rockofages.htm">Rock of Ages</a></font></b></td><td><font size="2">WB (NL)</font></td><td align="right"><font size="2"><b>$38,518,613</b></font></td><td align="right"><font size="2">3,470</font></td><td align="right"><font size="2">$14,437,269</font></td><td align="right"><font size="2">3,470</font></td><td align="right"><font size="2"><a href="/schedule/?view=bydate&release=theatrical&date=2012-06-15&p=.htm">6/15</a></font></td><td align="right"><font size="2">8/16</font></td></tr><tr bgcolor="#ffffff"><td align="center"><font size="2">85</font></td><td><b><font size="2"><a href="/movies/?id=abrahamlincolnvampirehunter.htm">Abraham Lincoln: Vampire Hunter</a></font></b></td><td><font size="2">Fox</font></td><td align="right"><font size="2"><b>$37,519,139</b></font></td><td align="right"><font size="2">3,109</font></td><td align="right"><font size="2">$16,306,974</font></td><td align="right"><font size="2">3,108</font></td><td align="right"><font size="2"><a href="/schedule/?view=bydate&release=theatrical&date=2012-06-22&p=.htm">6/22</a></font></td><td align="right"><font size="2">9/20</font></td></tr><tr bgcolor="#f4f4ff"><td align="center"><font size="2">86</font></td><td><b><font size="2"><a href="/movies/?id=wettestcountry.htm">Lawless</a></font></b></td><td><font size="2">Wein.</font></td><td align="right"><font size="2"><b>$37,400,127</b></font></td><td align="right"><font size="2">3,138</font></td><td align="right"><font size="2">$10,001,982</font></td><td align="right"><font size="2">2,888</font></td><td align="right"><font size="2"><a href="/schedule/?view=bydate&release=theatrical&date=2012-08-29&p=.htm">8/29</a></font></td><td align="right"><font size="2">11/29</font></td></tr><tr bgcolor="#ffffff"><td align="center"><font size="2">87</font></td><td><b><font size="2"><a href="/movies/?id=mymotherscurse.htm">The Guilt Trip</a></font></b></td><td><font size="2">Par.</font></td><td align="right"><font size="2"><b>$37,134,215</b></font></td><td align="right"><font size="2">2,431</font></td><td align="right"><font size="2">$5,290,629</font></td><td align="right"><font size="2">2,431</font></td><td align="right"><font size="2"><a href="/schedule/?view=bydate&release=theatrical&date=2012-12-19&p=.htm">12/19</a></font></td><td align="right"><font size="2">3/7</font></td></tr><tr bgcolor="#f4f4ff"><td align="center"><font size="2">88</font></td><td><b><font size="2"><a href="/movies/?id=ihateyoudad.htm">That\'s My Boy</a></font></b></td><td><font size="2">Sony</font></td><td align="right"><font size="2"><b>$36,931,089</b></font></td><td align="right"><font size="2">3,030</font></td><td align="right"><font size="2">$13,453,714</font></td><td align="right"><font size="2">3,030</font></td><td align="right"><font size="2"><a href="/schedule/?view=bydate&release=theatrical&date=2012-06-15&p=.htm">6/15</a></font></td><td align="right"><font size="2">7/22</font></td></tr><tr bgcolor="#ffffff"><td align="center"><font size="2">89</font></td><td><b><font size="2"><a href="/movies/?id=troublewiththecurve.htm">Trouble with the Curve</a></font></b></td><td><font size="2">WB</font></td><td align="right"><font size="2"><b>$35,763,137</b></font></td><td align="right"><font size="2">3,212</font></td><td align="right"><font size="2">$12,162,040</font></td><td align="right"><font size="2">3,212</font></td><td align="right"><font size="2"><a href="/schedule/?view=bydate&release=theatrical&date=2012-09-21&p=.htm">9/21</a></font></td><td align="right"><font size="2">12/13</font></td></tr><tr bgcolor="#f4f4ff"><td align="center"><font size="2">90</font></td><td><b><font size="2"><a href="/movies/?id=neighborhoodwatch.htm">The Watch</a></font></b></td><td><font size="2">Fox</font></td><td align="right"><font size="2"><b>$35,353,000</b></font></td><td align="right"><font size="2">3,168</font></td><td align="right"><font size="2">$12,750,297</font></td><td align="right"><font size="2">3,168</font></td><td align="right"><font size="2"><a href="/schedule/?view=bydate&release=theatrical&date=2012-07-27&p=.htm">7/27</a></font></td><td align="right"><font size="2">10/18</font></td></tr><tr bgcolor="#ffffff"><td align="center"><font size="2">91</font></td><td><b><font size="2"><a href="/movies/?id=frankenweenie.htm">Frankenweenie</a></font></b></td><td><font size="2">BV</font></td><td align="right"><font size="2"><b>$35,291,068</b></font></td><td align="right"><font size="2">3,005</font></td><td align="right"><font size="2">$11,412,213</font></td><td align="right"><font size="2">3,005</font></td><td align="right"><font size="2"><a href="/schedule/?view=bydate&release=theatrical&date=2012-10-05&p=.htm">10/5</a></font></td><td align="right"><font size="2">2/28</font></td></tr><tr bgcolor="#f4f4ff"><td align="center"><font size="2">92</font></td><td><b><font size="2"><a href="/movies/?id=stepup4.htm">Step Up Revolution</a></font></b></td><td><font size="2">LG/S</font></td><td align="right"><font size="2"><b>$35,074,677</b></font></td><td align="right"><font size="2">2,606</font></td><td align="right"><font size="2">$11,731,708</font></td><td align="right"><font size="2">2,567</font></td><td align="right"><font size="2"><a href="/schedule/?view=bydate&release=theatrical&date=2012-07-27&p=.htm">7/27</a></font></td><td align="right"><font size="2">10/4</font></td></tr><tr bgcolor="#ffffff"><td align="center"><font size="2">93</font></td><td><b><font size="2"><a href="/movies/?id=gooddeeds.htm">Tyler Perry\'s Good Deeds</a></font></b></td><td><font size="2">LGF</font></td><td align="right"><font size="2"><b>$35,025,791</b></font></td><td align="right"><font size="2">2,132</font></td><td align="right"><font size="2">$15,583,924</font></td><td align="right"><font size="2">2,132</font></td><td align="right"><font size="2"><a href="/schedule/?view=bydate&release=theatrical&date=2012-02-24&p=.htm">2/24</a></font></td><td align="right"><font size="2">5/17</font></td></tr><tr bgcolor="#f4f4ff"><td align="center"><font size="2">94</font></td><td><b><font size="2"><a href="/movies/?id=monstersinc3d.htm">Monsters, Inc. (3D)</a></font></b></td><td><font size="2">BV</font></td><td align="right"><font size="2"><b>$34,043,006</b></font></td><td align="right"><font size="2">2,618</font></td><td align="right"><font size="2">$4,774,686</font></td><td align="right"><font size="2">2,618</font></td><td align="right"><font size="2"><a href="/schedule/?view=bydate&release=theatrical&date=2012-12-19&p=.htm">12/19</a></font></td><td align="right"><font size="2">5/2</font></td></tr><tr bgcolor="#ffffff"><td align="center"><font size="2">95</font></td><td><b><font size="2"><a href="/movies/?id=2016obamasamerica.htm">2016 Obama\'s America</a></font></b></td><td><font size="2">RM</font></td><td align="right"><font size="2"><b>$33,449,086</b></font></td><td align="right"><font size="2">2,017</font></td><td align="right"><font size="2">$31,610</font></td><td align="right"><font size="2">1</font></td><td align="right"><font size="2"><a href="/schedule/?view=bydate&release=theatrical&date=2012-07-13&p=.htm">7/13</a></font></td><td align="right"><font size="2">10/11</font></td></tr><tr bgcolor="#f4f4ff"><td align="center"><font size="2">96</font></td><td><b><font size="2"><a href="/movies/?id=houseattheendofthestreet.htm">House at the End of The Street</a></font></b></td><td><font size="2">Rela.</font></td><td align="right"><font size="2"><b>$31,611,916</b></font></td><td align="right"><font size="2">3,083</font></td><td align="right"><font size="2">$12,287,234</font></td><td align="right"><font size="2">3,083</font></td><td align="right"><font size="2"><a href="/schedule/?view=bydate&release=theatrical&date=2012-09-21&p=.htm">9/21</a></font></td><td align="right"><font size="2">12/20</font></td></tr><tr bgcolor="#ffffff"><td align="center"><font size="2">97</font></td><td><b><font size="2"><a href="/movies/?id=pirates12.htm">The Pirates! Band of Misfits</a></font></b></td><td><font size="2">Sony</font></td><td align="right"><font size="2"><b>$31,051,126</b></font></td><td align="right"><font size="2">3,358</font></td><td align="right"><font size="2">$11,137,734</font></td><td align="right"><font size="2">3,358</font></td><td align="right"><font size="2"><a href="/schedule/?view=bydate&release=theatrical&date=2012-04-27&p=.htm">4/27</a></font></td><td align="right"><font size="2">8/5</font></td></tr><tr bgcolor="#f4f4ff"><td align="center"><font size="2">98</font></td><td><b><font size="2"><a href="/movies/?id=joyfulnoise.htm">Joyful Noise</a></font></b></td><td><font size="2">WB</font></td><td align="right"><font size="2"><b>$30,932,113</b></font></td><td align="right"><font size="2">2,735</font></td><td align="right"><font size="2">$11,225,190</font></td><td align="right"><font size="2">2,735</font></td><td align="right"><font size="2"><a href="/schedule/?view=bydate&release=theatrical&date=2012-01-13&p=.htm">1/13</a></font></td><td align="right"><font size="2">3/22</font></td></tr><tr bgcolor="#ffffff"><td align="center"><font size="2">99</font></td><td><b><font size="2"><a href="/movies/?id=chimpanzee.htm">Chimpanzee</a></font></b></td><td><font size="2">BV</font></td><td align="right"><font size="2"><b>$28,972,764</b></font></td><td align="right"><font size="2">1,567</font></td><td align="right"><font size="2">$10,673,748</font></td><td align="right"><font size="2">1,563</font></td><td align="right"><font size="2"><a href="/schedule/?view=bydate&release=theatrical&date=2012-04-20&p=.htm">4/20</a></font></td><td align="right"><font size="2">8/9</font></td></tr><tr bgcolor="#f4f4ff"><td align="center"><font size="2">100</font></td><td><b><font size="2"><a href="/movies/?id=fiveyearengagement.htm">The Five-Year Engagement</a></font></b></td><td><font size="2">Uni.</font></td><td align="right"><font size="2"><b>$28,835,528</b></font></td><td align="right"><font size="2">2,941</font></td><td align="right"><font size="2">$10,610,060</font></td><td align="right"><font size="2">2,936</font></td><td align="right"><font size="2"><a href="/schedule/?view=bydate&release=theatrical&date=2012-04-27&p=.htm">4/27</a></font></td><td align="right"><font size="2">6/21</font></td></tr><tr bgcolor="#dcdcdc"><td colspan="9" align="center"><font size="2"><b>Summary of 665 Movies on Chart:</b></font></td></tr><tr bgcolor="#f4f4ff"><td align="right" colspan="3"><font size="2"><b>Totals:</b></td><td align="right"><font size="2">$10,959,243,666</font></td><td align="center"><font size="2">-</font></td><td align="center"><font size="2">-</font></td><td align="center"><font size="2">-</font></td><td align="center"><font size="2">-</font></td><td align="center"><font size="2">-</font></td></tr><tr bgcolor="#ffffff"><td align="right" colspan="3"><font size="2"><b>Averages:</b></td><td align="right"><font size="2">$16,480,066</font></td><td align="right"><font size="2">-</font></td><td align="right"><font size="2">-</font></td><td align="right"><font size="2">-</font></td><td align="center"><font size="2">-</font></td><td align="center"><font size="2">-</font></td></tr><tr bgcolor="#dcdcdc"><td colspan="9"><img src="/images/space.gif" width="1" height="1"></td></tr></table></td></tr><tr><td valign="bottom"><font face="Verdana" size="1"><b><a href="/yearly/chart/?yr=2011&view=releasedate&view2=domestic&sort=gross&order=DESC&&p=.htm">&lt; Previous Year</a></b></font></td><td align="center"><table border="0" cellspacing="0" cellpadding="0">\n\t\t\t\t\t<form method="POST" action="yearly.asof.php" name="asofjump">\n\t\t\t\t\t<tr><td><font face="Verdana" size="1"><br>Data as of:\n\t\t\t\t\t<select size="1" name="asof" style="font-size: 8pt">\n\t\t\t\t\t<option selected value="today">Today</option>\n\t\t\t\t\t<option  value="sametime">Today in 2012</option>\n\t\t\t\t\t<option value="2012-01-31">Jan. 31, 2012</option>\n\t\t\t\t\t<option value="2012-02-29">Feb. 29, 2012</option>\n\t\t\t\t\t<option value="2012-03-31">Mar. 31, 2012</option>\n\t\t\t\t\t<option value="2012-04-30">Apr. 30, 2012</option>\n\t\t\t\t\t<option value="2012-05-31">May 31, 2012</option>\n\t\t\t\t\t<option value="2012-06-30">Jun. 30, 2012</option>\n\t\t\t\t\t<option value="2012-07-31">Jul. 31, 2012</option>\n\t\t\t\t\t<option value="2012-08-31">Aug. 31, 2012</option>\n\t\t\t\t\t<option value="2012-09-30">Sep. 30, 2012</option>\n\t\t\t\t\t<option value="2012-10-31">Oct. 31, 2012</option>\n\t\t\t\t\t<option value="2012-11-30">Nov. 30, 2012</option>\n\t\t\t\t\t<option value="2012-12-31">Dec. 31, 2012</option>\n\t\t\t\t\t<option value="specify">Specify Date</option>\n\t\t\t\t\t<option value="about">About this feature</option>\n\t\t\t\t\t</select> or (<select size="1" name="asof_mo" style="font-size: 8pt">\n\t\t\t\t\t<option selected value="">Month</option>\n\t\t\t\t\t\n\t\t\t\t\t<option value="01">Jan.</option>\n\t\t\t\t\t<option value="02">Feb.</option>\n\t\t\t\t\t<option value="03">Mar.</option>\n\t\t\t\t\t<option value="04">Apr.</option>\n\t\t\t\t\t<option value="05">May</option>\n\t\t\t\t\t<option value="06">Jun.</option>\n\t\t\t\t\t<option value="07">Jul.</option>\n\t\t\t\t\t<option value="08">Aug.</option>\n\t\t\t\t\t<option value="09">Sep.</option>\n\t\t\t\t\t<option value="10">Oct.</option>\n\t\t\t\t\t<option value="11">Nov.</option>\n\t\t\t\t\t<option value="12">Dec.</option>\n\t\t\t\t\t</select> / <select size="1" name="asof_day" style="font-size: 8pt">\n\t\t\t\t\t<option selected value="">Day</option>\n\t\t\t\t\t<option value="01">1</option>\n\t\t\t\t\t<option value="02">2</option>\n\t\t\t\t\t<option value="03">3</option>\n\t\t\t\t\t<option value="04">4</option>\n\t\t\t\t\t<option value="05">5</option>\n\t\t\t\t\t<option value="06">6</option>\n\t\t\t\t\t<option value="07">7</option>\n\t\t\t\t\t<option value="08">8</option>\n\t\t\t\t\t<option value="09">9</option>\n\t\t\t\t\t<option value="10">10</option>\n\t\t\t\t\t<option value="11">11</option>\n\t\t\t\t\t<option value="12">12</option>\n\t\t\t\t\t<option value="13">13</option>\n\t\t\t\t\t<option value="14">14</option>\n\t\t\t\t\t<option value="15">15</option>\n\t\t\t\t\t<option value="16">16</option>\n\t\t\t\t\t<option value="17">17</option>\n\t\t\t\t\t<option value="18">18</option>\n\t\t\t\t\t<option value="19">19</option>\n\t\t\t\t\t<option value="20">20</option>\n\t\t\t\t\t<option value="21">21</option>\n\t\t\t\t\t<option value="22">22</option>\n\t\t\t\t\t<option value="23">23</option>\n\t\t\t\t\t<option value="24">24</option>\n\t\t\t\t\t<option value="25">25</option>\n\t\t\t\t\t<option value="26">26</option>\n\t\t\t\t\t<option value="27">27</option>\n\t\t\t\t\t<option value="28">28</option>\n\t\t\t\t\t<option value="29">29</option>\n\t\t\t\t\t<option value="30">30</option>\n\t\t\t\t\t<option value="31">31</option>\n\t\t\t\t\t</select> / <select size="1" name="asof_yr" style="font-size: 8pt">\n\t\t\t\t\t\t<option selected>2012</option>\n\t\t\t\t\t\t<option>2013</option>\n\t\t\t\t\t\t</select>) <input type="submit" value="Go" name="go" style="font-size: 8pt; height: 16">\n\t\t\t\t\t</font></td></tr>\n\t\t\t\t\t<input type="hidden" name="jumpstuff" value="view=releasedate&view2=domestic&yr=2012&sort=gross&order=DESC&p=.htm">\n\t\t\t\t\t<input type="hidden" name="curasof" value="today">\n\t\t\t\t\t<input type="hidden" name="yr" value="2012">\n\t\t\t\t\t</form>\n\t\t\t\t\t</table>\n\t\t\t\t</font></td><td valign="bottom" align="right"><font face="Verdana" size="1"><b><a href="/yearly/chart/?yr=2013&view=releasedate&view2=domestic&sort=gross&order=DESC&&p=.htm">Next Year &gt;</a></b></font></td></tr></table><center><font face="Verdana" size="4"><b><font face="Verdana" size="5">#1&#150;100</font> - <a href="/yearly/chart/?page=2&view=releasedate&view2=domestic&yr=2012&p=.htm">#101&#150;200</a> - <a href="/yearly/chart/?page=3&view=releasedate&view2=domestic&yr=2012&p=.htm">#201&#150;300</a> - <a href="/yearly/chart/?page=4&view=releasedate&view2=domestic&yr=2012&p=.htm">#301&#150;400</a> - <a href="/yearly/chart/?page=5&view=releasedate&view2=domestic&yr=2012&p=.htm">#401&#150;500</a> - <a href="/yearly/chart/?page=6&view=releasedate&view2=domestic&yr=2012&p=.htm">#501&#150;600</a> - <a href="/yearly/chart/?page=7&view=releasedate&view2=domestic&yr=2012&p=.htm">#601&#150;665</a></b></font></center><br><font face="Verdana" size="2">Note: <b>RELEASE DATE</b> shows all movies that opened in a given time period and their total grosses. <b>WIDE RELEASES</b> shows only movies released in 600 or more theaters and their total grosses, grouped by wide release date. <b>LIMITED RELEASES</b> shows only movies released in less than 600 theaters and their total grosses, grouped by release date. <b>CALENDAR GROSSES</b> shows all movies playing during the indicated time period, both new and holdover, and their grosses (or estimated grosses) during that time period. Movies released outside the indicated time period are shown in italics. <b><a href="/about/boxoffice.htm">Click here for a full explanation of the various box office sections</a></b></font><br><br>\n<P ALIGN="CENTER"><A HREF="/yearly/"><FONT FACE="Verdana" SIZE=2><b>back to<br>Yearly Index Page</b></FONT></A></P>\n<br>\n</td><td valign="top" align="center" width="160"><br><br><br><br><br><br><!-- begin ad tag (tile=2) -->\r\n<script type="text/javascript">\r\n//<![CDATA[\r\nord=95442181;\r\ndocument.write(\'<iframe src="http://ad.doubleclick.net/N4215/adi/imdb2.bom.other/;p=rh;tile=2;sz=160x600,120x600,115x600;oe=ISO-8859-1;ord=\' + ord + \'?" width="160" height="600" marginwidth="0" marginheight="0" frameborder="0" scrolling="no">\');\r\n\r\nif (navigator.userAgent.indexOf("Gecko")==-1)\r\n{\r\ndocument.write(\'<script type="text/javascript" src="http://ad.doubleclick.net/N4215/adj/imdb2.bom.other/;p=rh;tile=2;sz=160x600,115x600;abr=!ie;oe=ISO-8859-1;ord=\' + ord + \'?"><\\/script>\');\r\n}\r\ndocument.write(\'</iframe>\');\r\n//]]>\r\n</script>\r\n<noscript><a href="http://ad.doubleclick.net/N4215/jump/imdb2.bom.other/;p=rh;tile=2;sz=160x600;oe=ISO-8859-1;ord=95442181?" target="_blank" ><img src="http://ad.doubleclick.net/N4215/ad/imdb2.bom.other/;p=rh;tile=2;sz=160x600,115x600;oe=ISO-8859-1;ord=95442181?" border="0" alt="" /></a></noscript>\r\n<!-- end ad tag --></td></tr></table><table border="0" width="100%" cellspacing="0" cellpadding="3">\n\t<tr>\n\t\t<td bgcolor="#FFFFFF" align="center"><b><font face="Verdana" size="1"><a href="/yearly/chart/?view=releasedate&view2=domestic&yr=2012&p=.htm">ALL RELEASES</a></font></b></td>\n\t\t<td bgcolor="#DCDCDC" align="center"><b><font face="Verdana" size="1"><a href="/yearly/chart/?view=widedate&view2=domestic&yr=2012&p=.htm">WIDE RELEASES</font></b></td>\n\t\t<td bgcolor="#DCDCDC" align="center"><b><font face="Verdana" size="1"><a href="/yearly/chart/?view=limited&view2=domestic&yr=2012&p=.htm">LIMITED RELEASES</font></b></td>\n\t\t\t\t<td bgcolor="#DCDCDC" align="center"><b><font face="Verdana" size="1"><a href="/yearly/chart/?view=calendargross&view2=domestic&yr=2012&p=.htm">CALENDAR GROSSES</font></b></td>\n\t\t\t</tr>\n</table>\n<table border="0" cellspacing="0" cellpadding="0" width="100%">\n  <tr><td bgcolor="#8b0000" height="1" colspan="2"><img src="/images/space.gif" border="0" width="1" height="5"></td></tr>\n</table>\n\n</td></tr></table>\n\n\t</div>\n\t</div>\n\t<div id="hp_footer">\n\t\t<div style="padding-bottom: 20px;">\n\n\t\t\t<div style="margin: 0px 121px; vertical-align: top;">\n\t\t\t\t<div id="footer_links">\n\t\t\t\t\t<ul class="footer_link_list">\n\t\t\t\t\t\t<li><strong>Latest Updates</strong></li>\n\t\t\t\t\t\t<li><a href="/news/?ref=ft">Movie News</a>\n\t\t\t\t\t\t<li><a href="/daily/chart/?ref=ft">Daily Chart</a></li>\n\t\t\t\t\t\t<li><a href="/weekend/chart/?ref=ft">Weekend Chart</a></li>\n\t\t\t\t\t\t<li><a href="/alltime/?ref=ft">All Time Charts</a></li>\n\t\t\t\t\t\t<li><a href="/intl/?ref=ft">International Charts</a></li>\n\t\t\t\t\t</ul>\n\t\t\t\t\t<!--\n\t\t\t\t\t<ul class="footer_link_list">\n\t\t\t\t\t\t<li><strong>Popular Movies</strong></li>\n\t\t\t\t\t\t\t\t\t\t\t</ul>\n\t\t\t\t\t-->\n\t\t\t\t\t<ul class="footer_link_list">\n\t\t\t\t\t\t<li><strong>Indices</strong></li>\n\t\t\t\t\t\t<li><a href="/movies/?ref=ft">Movies A-Z</a></li>\n\t\t\t\t\t\t<li><a href="/people/?ref=ft">People</a></li>\n\t\t\t\t\t\t<li><a href="/genres/?ref=ft">Genres</a></li>\n\t\t\t\t\t\t<li><a href="/franchises/?ref=ft">Franchises</a></li>\n\t\t\t\t\t\t<li><a href="/showdowns/?ref=ft">Showdowns</a></li>\n\t\t\t\t\t</ul>\n\t\t\t\t\t<ul class="footer_link_list">\n\t\t\t\t\t\t<li><strong>Other</strong></li>\n\t\t\t\t\t\t<li><a href="/about/?ref=ft">About This Site</a></li>\n\t\t\t\t\t\t<li><a href="/about/advertise.htm?ref=ft">Advertising</a></li>\n\t\t\t\t\t\t<li><a href="/users/?ref=ft">My Account</a></li>\n\t\t\t\t\t\t<li><a href="/about/rss.htm?ref=ft">RSS Feeds</a></li>\n\t\t\t\t\t</ul>\n\t\t\t\t</div>\n\t\t\t\t<div id="copyright">\n\t\t\t\t\t<a href="/?ref=ft"><img src="/img/misc/bom_logo1.png" width="245" height="56" alt="Box Office Mojo"></a><br>\n\t\t\t\t\t<p>An <a href="http://imdb.com/"><img src="/img/misc/IMDbSm.png" width="34" height="16" alt="IMDb" valign="middle"></a> company<br><br></p>\n\t\t\t\t\t<p>&copy; <a href="http://imdb.com/">IMDb.com</a>, Inc. or its affiliates. All rights reserved. Box Office Mojo and IMDb are trademarks or registered trademarks of IMDb.com, Inc. or its affiliates. <a href="/about/termsofuse.htm">Terms of Use</a> and <a href="/about/privacy.htm">Privacy Policy</a> under which this service is provided to you.</p>\n\t\t\t\t\t</div>\t\t\t\n\t\t\t\t</div>\n\t\t\t\t<div style="clear:both;">\n\t\t\t\t<div>\n\t\t\t\t <!-- begin ad tag (tile=6) -->\r\n<script type="text/javascript">\r\n//<![CDATA[\r\nord=95442181;\r\ndocument.write(\'<iframe src="http://ad.doubleclick.net/N4215/adi/imdb2.bom.other/;p=b;tile=3;sz=728x90;oe=ISO-8859-1;ord=\' + ord + \'?" width="728" height="90" marginwidth="0" marginheight="0" frameborder="0" scrolling="no">\');\r\n\r\nif (navigator.userAgent.indexOf("Gecko")==-1)\r\n{\r\ndocument.write(\'<script type="text/javascript" src="http://ad.doubleclick.net/N4215/adj/imdb2.bom.other/;p=b;tile=3;sz=728x90;abr=!ie;oe=ISO-8859-1;ord=\' + ord + \'?"><\\/script>\');\r\n}\r\ndocument.write(\'<\\/iframe>\');\r\n//]]>\r\n</script>\r\n<noscript><a href="http://ad.doubleclick.net/N4215/jump/imdb2.bom.other/;p=b;tile=3;sz=728x90;oe=ISO-8859-1;ord=95442181?" target="_blank" ><img src="http://ad.doubleclick.net/N4215/ad/imdb2.bom.other/;p=b;tile=3;sz=728x90;oe=ISO-8859-1;ord=95442181?" border="0" alt="" ></a></noscript>\r\n<!-- end ad tag --></div>\n\n\t\t\t\t</div>\n\t</div>\n</div>\n\n\n\n\n\n<!-- Page generated in 0.07 seconds | . -->\n<script>\n  var _comscore = _comscore || [];\n  _comscore.push({ c1: "2", c2: "6034961" });\n  (function() {\n    var s = document.createElement("script"), el = document.getElementsByTagName("script")[0]; s.async = true;\n    s.src = (document.location.protocol == "https:" ? "https://sb" : "http://b") + ".scorecardresearch.com/beacon.js";\n  el.parentNode.insertBefore(s, el);\n  })();\n</script>\n<noscript>\n    <img src="http://b.scorecardresearch.com/p?c1=2&c2=6034961&cv=2.0&cj=1" />\n</noscript>\n\n</body>\n</html>\n'
p30
sS'encoding'
p31
S'ISO-8859-1'
p32
sS'url'
p33
Vhttp://www.boxofficemojo.com/yearly/chart/?yr=2012&view=releasedate&view2=domestic&sort=gross&order=DESC&&p=.htm
p34
sS'status_code'
p35
I200
sS'request'
p36
g0
(crequests.models
PreparedRequest
p37
g2
Ntp38
Rp39
(dp40
S'body'
p41
Nsg33
S'http://www.boxofficemojo.com/yearly/chart/?yr=2012&view=releasedate&view2=domestic&sort=gross&order=DESC&&p=.htm'
p42
sS'hooks'
p43
(dp44
S'response'
p45
(lp46
ssS'headers'
p47
g0
(crequests.structures
CaseInsensitiveDict
p48
g2
Ntp49
Rp50
(dp51
S'_store'
p52
(dp53
S'connection'
p54
(S'Connection'
p55
S'keep-alive'
p56
tp57
sS'accept-encoding'
p58
(S'Accept-Encoding'
p59
S'gzip, deflate'
p60
tp61
sS'accept'
p62
(S'Accept'
p63
S'*/*'
p64
tp65
sS'user-agent'
p66
(S'User-Agent'
p67
S'python-requests/2.7.0 CPython/2.7.10 Darwin/14.5.0'
p68
tp69
ssbsg27
g0
(g7
g2
Ntp70
Rp71
(dp72
g11
I1444069024
sg12
(icookielib
DefaultCookiePolicy
p73
(dp74
g15
I01
sg16
I0
sg17
Nsg18
Nsg19
I00
sg20
I00
sg11
I1444069024
sg21
I00
sg22
I00
sg23
I00
sg24
I00
sg25
(tsg26
I01
sbsg27
(dp75
sbsS'method'
p76
S'GET'
p77
sbsS'elapsed'
p78
cdatetime
timedelta
p79
(I0
I0
I142825
tp80
Rp81
sg47
g0
(g48
g2
Ntp82
Rp83
(dp84
g52
(dp85
S'content-length'
p86
(S'content-length'
p87
S'18582'
p88
tp89
sS'x-xss-protection'
p90
(S'x-xss-protection'
p91
S'1; mode=block'
p92
tp93
sS'x-content-type-options'
p94
(S'x-content-type-options'
p95
S'nosniff'
p96
tp97
sS'content-encoding'
p98
(S'content-encoding'
p99
S'gzip'
p100
tp101
sS'expires'
p102
(S'expires'
p103
S'Thu, 19 Nov 1981 08:52:00 GMT'
p104
tp105
sS'server'
p106
(S'server'
p107
S'Server'
p108
tp109
sS'connection'
p110
(S'connection'
p111
S'keep-alive'
p112
tp113
sS'x-permitted-cross-domain-policies'
p114
(S'x-permitted-cross-domain-policies'
p115
S'master-only'
p116
tp117
sS'pragma'
p118
(S'pragma'
p119
S'no-cache'
p120
tp121
sS'cache-control'
p122
(S'cache-control'
p123
S'no-store, no-cache, must-revalidate, post-check=0, pre-check=0'
p124
tp125
sS'date'
p126
(S'date'
p127
S'Mon, 05 Oct 2015 18:20:01 GMT'
p128
tp129
sS'x-frame-options'
p130
(S'x-frame-options'
p131
S'SAMEORIGIN'
p132
tp133
sS'content-type'
p134
(S'content-type'
p135
S'text/html'
p136
tp137
ssbsS'reason'
p138
S'OK'
p139
sS'history'
p140
(lp141
sb.