ccopy_reg
_reconstructor
p0
(crequests.models
Response
p1
c__builtin__
object
p2
Ntp3
Rp4
(dp5
S'cookies'
p6
g0
(crequests.cookies
RequestsCookieJar
p7
g2
Ntp8
Rp9
(dp10
S'_now'
p11
I1444064890
sS'_policy'
p12
(icookielib
DefaultCookiePolicy
p13
(dp14
S'strict_rfc2965_unverifiable'
p15
I01
sS'strict_ns_domain'
p16
I0
sS'_allowed_domains'
p17
NsS'rfc2109_as_netscape'
p18
NsS'rfc2965'
p19
I00
sS'strict_domain'
p20
I00
sg11
I1444064890
sS'strict_ns_set_path'
p21
I00
sS'strict_ns_unverifiable'
p22
I00
sS'strict_ns_set_initial_dollar'
p23
I00
sS'hide_cookie2'
p24
I00
sS'_blocked_domains'
p25
(tsS'netscape'
p26
I01
sbsS'_cookies'
p27
(dp28
sbsS'_content'
p29
S'<!DOCTYPE html PUBLIC "-//W3C//DTD HTML 4.01 Transitional//EN" "http://www.w3.org/TR/html4/loose.dtd">\n<html lang="en">\n<HEAD>\n<TITLE>2013 Yearly Box Office Results - Box Office Mojo</TITLE>\n<META NAME="keywords" CONTENT="2013, year, yearly, box, office, result, list, movie, movies, listing, listings, top movies, all time, film">\n<META NAME="description" CONTENT="Yearly box office results for 2013.">\n<link rel="stylesheet" href="/css/mojo.css?1" type="text/css" media="screen" title="no title" charset="utf-8">\n<link rel="stylesheet" href="/css/mojo.css?1" type="text/css" media="print" title="no title" charset="utf-8"></head>\n<body>\n\t<iframe id="sis_pixel_sitewide" width="1" height="1" frameborder="0" marginwidth="0" marginheight="0" style="display: none;"></iframe>\n<script>\n    setTimeout(function(){\n        try{\n            //sis3.0 pixel\n            var cacheBust = Math.random() * 10000000000000000,\n                url_sis3 = \'http://s.amazon-adsystem.com/iu3?\',\n                params_sis3 = [\n                    "d=boxofficemojo.com",\n                    "cb=" + cacheBust\n                ];\n\n            (document.getElementById(\'sis_pixel_sitewide\')).src = url_sis3 + params_sis3.join(\'&\');\n        }catch(e){\n            if (window.ueLogError) { \n                window.ueLogError(e);\n            }\n        }\n    }, 5);\n</script>\n\n<div id="container">\n<div>\n<!-- GOOGLE ANALYTICS CODE STARTS -->\n<script type="text/javascript">\n\n  var _gaq = _gaq || [];\n  _gaq.push([\'_setAccount\', \'UA-2831726-1\']);\n  _gaq.push([\'_trackPageview\']);\n\n  (function() {\n    var ga = document.createElement(\'script\'); ga.type = \'text/javascript\'; ga.async = true;\n    ga.src = (\'https:\' == document.location.protocol ? \'https://ssl\' : \'http://www\') + \'.google-analytics.com/ga.js\';\n    (document.getElementsByTagName(\'head\')[0] || document.getElementsByTagName(\'body\')[0]).appendChild(ga);\n  })();\n\n</script>\n<!-- GOOGLE ANALYTICS CODE ENDS -->\n\t<div id="hp_banner">\n\t<div id="top_links">\n\t\t<div style="float: left"><a href="/daily/chart/">Daily Box Office (Sun.)</a> | <a href="/weekend/chart/">Weekend Box Office (Oct. 2&ndash;4)</a> | <a href="/movies/?id=scott2016.htm">#1 Movie: \'The Martian\'</a> | <a href="http://www.imdb.com/showtimes/?ref_=mojo">Showtimes</a></div>\n\t\t<div style="float: right">Updated 10/4/2015 7:11 P.M. Pacific Time</div>\n\t\t<div style="clear:both; height: 0px"></div>\n\t</div>\n</div>\n\t\t\n<div id="header">\n\t<div id="leaderboard"><!-- begin ad tag (tile=1) -->\r\n<script type="text/javascript">\r\n//<![CDATA[\r\nord=138168414;\r\ndocument.write(\'<iframe src="http://ad.doubleclick.net/N4215/adi/imdb2.bom.other/;p=t;tile=1;sz=728x90;oe=ISO-8859-1;ord=\' + ord + \'?" width="728" height="90" marginwidth="0" marginheight="0" frameborder="0" scrolling="no">\');\r\n\r\nif (navigator.userAgent.indexOf("Gecko")==-1)\r\n{\r\ndocument.write(\'<script type="text/javascript" src="http://ad.doubleclick.net/N4215/adj/imdb2.bom.other/;p=t;tile=1;sz=728x90;abr=!ie;oe=ISO-8859-1;ord=\' + ord + \'?"><\\/script>\');\r\n}\r\ndocument.write(\'<\\/iframe>\');\r\n//]]>\r\n</script>\r\n<noscript><a href="http://ad.doubleclick.net/N4215/jump/imdb2.bom.other/;p=t;tile=1;sz=728x90;oe=ISO-8859-1;ord=138168414?" target="_blank" ><img src="http://ad.doubleclick.net/N4215/ad/imdb2.bom.other/;p=t;tile=1;sz=728x90;oe=ISO-8859-1;ord=138168414?" border="0" alt="" ></a></noscript>\r\n<!-- end ad tag --></div>\t<div id="hp_logo"><a href="/"><img src="/img/misc/bom_logo1.png" width="245" height="56" alt="Box Office Mojo"></a></div>\n\t<div style="clear:both; height: 0px"></div>\n</div>\n\n\n</div>\n\n\n<div id="main">\n<!-- COLUMN 1 of 4 -->\n\t<div id="leftnav">\n<!-- google_ad_section_start(weight=ignore) -->\n<!-- <table id="navleft" cellspacing="0" cellpadding="2" border="0"> -->\n<ul id="leftnav">\n<li class="nl_section">Search Site</li>\n<li class="nl_link" style="padding-left:0px">\n\t<form name="searchbox" method="POST" action="/search/q.php">\n\t<input name="q"  type="text" style="font-size: 9 pt; font-weight: bold; width: 90px;"><br>\n\t<input type="submit" value="Search..." ></form> \n</li>\n<li class=\'nl_section\'>Social</li>\n<li class="nl_link"><a href="http://facebook.com/boxofficemojo" style="vertical-align:middle;"><img src="/images/FaceBook_16x16.png" border="0" alt="Facebook Logo">Facebook</a></li>\n<li class="nl_link"><a href="http://twitter.com/boxofficemojo" style="vertical-align:middle;"><img src="/images/Twitter_16x16.png" border="0" alt="Twitter Logo">Twitter</a></li>\n\n<li class=\'nl_section\'>Features</li>\n<li class=\'nl_link\'><a href="/news/">News</a></li>\n<li class=\'nl_link\'><a href="/schedule/">Release Sched.</a></li>\n<li class=\'nl_link\'><a href="http://www.imdb.com/showtimes?ref_=mojo">Showtimes<br/><span style="margin-left:7px;color: #999999; font-size: 9px;">at <img src="/images/mojo_imdb_sm.png"/></span></a></li>\n<li class=\'nl_section\'>Box Office</li>\n<li class=\'nl_link\'><a href="/daily/">Daily</a></li>\n<li class=\'nl_link\'><a href="/weekend/">Weekend</a></li>\n<li class=\'nl_link\'><a href="/weekly/">Weekly</a></li>\n<li class=\'nl_link\'><a href="/monthly/">Monthly</a></li>\n<li class=\'nl_link\'><a href="/quarterly/">Quarterly</a></li>\n<li class=\'nl_link\'><a href="/seasonal/">Seasonal</a></li>\n<li class=\'nl_link_current\'><a href="/yearly/">Yearly</a></li>\n<li class=\'nl_link\'><a href="/alltime/">All Time</a></li>\n<li class=\'nl_link\'><a href="/chartwatch/">Chart Watch</a></li>\n<li class=\'nl_link\'><a href="/intl/">International</a></li>\n<li class=\'nl_section\'>Indices</li>\n<li class=\'nl_link\'><a href="/movies/">Movies A-Z</a></li>\n<li class=\'nl_link\'><a href="/studio/">Studios</a></li>\n<li class=\'nl_link\'><a href="/people/">People</a></li>\n<li class=\'nl_link\'><a href="/genres/">Genres</a></li>\n<li class=\'nl_link\'><a href="/franchises/">Franchises</a></li>\n<li class=\'nl_link\'><a href="/showdowns/">Showdowns</a></li>\n<li class=\'nl_link\'><a href="/oscar/">Oscar</a></li>\n<li class=\'nl_link\'><a href="/counts/">Theater Counts</a></li>\n</ul>\n</div>\n\t<div id="body">\n\t<div id="addthis"><table border="0" cellspacing="0" cellpadding="0">\r\n<tr>\r\n<form method="POST" action="/adjuster.php" name="adjuster">\r\n<input type="hidden" name="returnURL" value="/yearly/chart/?yr=2013&amp;view=releasedate&amp;view2=domestic&amp;sort=gross&amp;order=DESC&amp;&amp;p=.htm">\r\n<td valign="center">\r\n  <font face="Verdana" size="2"><a href="/about/adjuster.htm"><b>Adjuster:</b></a></font>\r\n  <select size="1" name="ticketyr" style="font-family: Verdana; font-size: 10pt">\r\n  <option value="0" selected>Actuals</option>\r\n  <option value="1" >Est. Tckts</option>\r\n<script language="javascript">\r\n  for(i=2015; i>=1933; i--) {\r\n  \tdocument.write(\'<option value="\' + i + \'"\');\r\n\tif(i==\'0\') document.write(\' selected\');\r\n\tdocument.write(\'>\' + i );\r\n\tif(i==\'0\') document.write(\', $\' + \'0.00\');\r\n\tdocument.write(\'</option>\');\r\n  }\r\n</script>\r\n  <option value="1929" >1929</option>\r\n  <option value="1924" >1924</option>\r\n  <option value="1910" >1910</option>\r\n  </select><input type="submit" name="Go" value="Go" style="font-size: 10pt; height: 22">\r\n\r\n</td></form></tr></table>\r\n\r\n</div>\t\n\t<h2><a href="/yearly/">Yearly Box Office</a></h2>\n\n\t<table border="0" cellpadding="0" cellspacing="0" width="100%">\n\t\t<tr><td bgcolor="#8b0000" colspan="2"><img src="/images/space.gif" border="0" width="1" height="5"></td></tr>\n\t</table>\n\t\n<table border="0" width="100%" cellspacing="0" cellpadding="3">\n\t<tr>\n\t\t<td bgcolor="#FFFFFF" align="center"><b><font face="Verdana" size="1"><a href="/yearly/chart/?view=releasedate&view2=domestic&yr=2013&p=.htm">ALL RELEASES</a></font></b></td>\n\t\t<td bgcolor="#DCDCDC" align="center"><b><font face="Verdana" size="1"><a href="/yearly/chart/?view=widedate&view2=domestic&yr=2013&p=.htm">WIDE RELEASES</font></b></td>\n\t\t<td bgcolor="#DCDCDC" align="center"><b><font face="Verdana" size="1"><a href="/yearly/chart/?view=limited&view2=domestic&yr=2013&p=.htm">LIMITED RELEASES</font></b></td>\n\t\t\t\t<td bgcolor="#DCDCDC" align="center"><b><font face="Verdana" size="1"><a href="/yearly/chart/?view=calendargross&view2=domestic&yr=2013&p=.htm">CALENDAR GROSSES</font></b></td>\n\t\t\t</tr>\n</table>\n<table border="0" cellspacing="0" cellpadding="0" width="100%"><tr><td valign="top" align="center"><br>\n<h1>2013 DOMESTIC GROSSES</h1><p>Total Grosses of all Movies Released in 2013</h1></b></FONT></p>\n\n<center><font face="Verdana" size="4"><b><font face="Verdana" size="5">#1&#150;100</font> - <a href="/yearly/chart/?page=2&view=releasedate&view2=domestic&yr=2013&p=.htm">#101&#150;200</a> - <a href="/yearly/chart/?page=3&view=releasedate&view2=domestic&yr=2013&p=.htm">#201&#150;300</a> - <a href="/yearly/chart/?page=4&view=releasedate&view2=domestic&yr=2013&p=.htm">#301&#150;400</a> - <a href="/yearly/chart/?page=5&view=releasedate&view2=domestic&yr=2013&p=.htm">#401&#150;500</a> - <a href="/yearly/chart/?page=6&view=releasedate&view2=domestic&yr=2013&p=.htm">#501&#150;600</a> - <a href="/yearly/chart/?page=7&view=releasedate&view2=domestic&yr=2013&p=.htm">#601&#150;687</a></b></font></center><table border="0" cellspacing="0" cellpadding="0"><tr><td valign="bottom"><font face="Verdana" size="1"><b><a href="/yearly/chart/?yr=2012&view=releasedate&view2=domestic&sort=gross&order=DESC&&p=.htm">&lt; Previous Year</a></b></font></td><td align="center"><table border="0" cellspacing="0" cellpadding="0">\n\t\t\t\t\t<form method="POST" action="yearly.asof.php" name="asofjump">\n\t\t\t\t\t<tr><td><font face="Verdana" size="1"><br>Data as of:\n\t\t\t\t\t<select size="1" name="asof" style="font-size: 8pt">\n\t\t\t\t\t<option selected value="today">Today</option>\n\t\t\t\t\t<option  value="sametime">Today in 2013</option>\n\t\t\t\t\t<option value="2013-01-31">Jan. 31, 2013</option>\n\t\t\t\t\t<option value="2013-02-28">Feb. 28, 2013</option>\n\t\t\t\t\t<option value="2013-03-31">Mar. 31, 2013</option>\n\t\t\t\t\t<option value="2013-04-30">Apr. 30, 2013</option>\n\t\t\t\t\t<option value="2013-05-31">May 31, 2013</option>\n\t\t\t\t\t<option value="2013-06-30">Jun. 30, 2013</option>\n\t\t\t\t\t<option value="2013-07-31">Jul. 31, 2013</option>\n\t\t\t\t\t<option value="2013-08-31">Aug. 31, 2013</option>\n\t\t\t\t\t<option value="2013-09-30">Sep. 30, 2013</option>\n\t\t\t\t\t<option value="2013-10-31">Oct. 31, 2013</option>\n\t\t\t\t\t<option value="2013-11-30">Nov. 30, 2013</option>\n\t\t\t\t\t<option value="2013-12-31">Dec. 31, 2013</option>\n\t\t\t\t\t<option value="specify">Specify Date</option>\n\t\t\t\t\t<option value="about">About this feature</option>\n\t\t\t\t\t</select> or (<select size="1" name="asof_mo" style="font-size: 8pt">\n\t\t\t\t\t<option selected value="">Month</option>\n\t\t\t\t\t\n\t\t\t\t\t<option value="01">Jan.</option>\n\t\t\t\t\t<option value="02">Feb.</option>\n\t\t\t\t\t<option value="03">Mar.</option>\n\t\t\t\t\t<option value="04">Apr.</option>\n\t\t\t\t\t<option value="05">May</option>\n\t\t\t\t\t<option value="06">Jun.</option>\n\t\t\t\t\t<option value="07">Jul.</option>\n\t\t\t\t\t<option value="08">Aug.</option>\n\t\t\t\t\t<option value="09">Sep.</option>\n\t\t\t\t\t<option value="10">Oct.</option>\n\t\t\t\t\t<option value="11">Nov.</option>\n\t\t\t\t\t<option value="12">Dec.</option>\n\t\t\t\t\t</select> / <select size="1" name="asof_day" style="font-size: 8pt">\n\t\t\t\t\t<option selected value="">Day</option>\n\t\t\t\t\t<option value="01">1</option>\n\t\t\t\t\t<option value="02">2</option>\n\t\t\t\t\t<option value="03">3</option>\n\t\t\t\t\t<option value="04">4</option>\n\t\t\t\t\t<option value="05">5</option>\n\t\t\t\t\t<option value="06">6</option>\n\t\t\t\t\t<option value="07">7</option>\n\t\t\t\t\t<option value="08">8</option>\n\t\t\t\t\t<option value="09">9</option>\n\t\t\t\t\t<option value="10">10</option>\n\t\t\t\t\t<option value="11">11</option>\n\t\t\t\t\t<option value="12">12</option>\n\t\t\t\t\t<option value="13">13</option>\n\t\t\t\t\t<option value="14">14</option>\n\t\t\t\t\t<option value="15">15</option>\n\t\t\t\t\t<option value="16">16</option>\n\t\t\t\t\t<option value="17">17</option>\n\t\t\t\t\t<option value="18">18</option>\n\t\t\t\t\t<option value="19">19</option>\n\t\t\t\t\t<option value="20">20</option>\n\t\t\t\t\t<option value="21">21</option>\n\t\t\t\t\t<option value="22">22</option>\n\t\t\t\t\t<option value="23">23</option>\n\t\t\t\t\t<option value="24">24</option>\n\t\t\t\t\t<option value="25">25</option>\n\t\t\t\t\t<option value="26">26</option>\n\t\t\t\t\t<option value="27">27</option>\n\t\t\t\t\t<option value="28">28</option>\n\t\t\t\t\t<option value="29">29</option>\n\t\t\t\t\t<option value="30">30</option>\n\t\t\t\t\t<option value="31">31</option>\n\t\t\t\t\t</select> / <select size="1" name="asof_yr" style="font-size: 8pt">\n\t\t\t\t\t\t<option selected>2013</option>\n\t\t\t\t\t\t<option>2014</option>\n\t\t\t\t\t\t</select>) <input type="submit" value="Go" name="go" style="font-size: 8pt; height: 16">\n\t\t\t\t\t</font></td></tr>\n\t\t\t\t\t<input type="hidden" name="jumpstuff" value="view=releasedate&view2=domestic&yr=2013&sort=gross&order=DESC&p=.htm">\n\t\t\t\t\t<input type="hidden" name="curasof" value="today">\n\t\t\t\t\t<input type="hidden" name="yr" value="2013">\n\t\t\t\t\t</form>\n\t\t\t\t\t</table>\n\t\t\t\t</font></td><td valign="bottom" align="right"><font face="Verdana" size="1"><b><a href="/yearly/chart/?yr=2014&view=releasedate&view2=domestic&sort=gross&order=DESC&&p=.htm">Next Year &gt;</a></b></font></td></tr><tr><td colspan="3"><table border="0" cellspacing="1" cellpadding="5" bgcolor="#ffffff"><tr bgcolor="#dcdcdc"><td align="center"><font size="2"><a href="/yearly/chart/?view=releasedate&view2=domestic&yr=2013&sort=gross&order=ASC&p=.htm"><b>Rank</b></a></font></td><td align="center"><font size="2"><a href="/yearly/chart/?view=releasedate&view2=domestic&yr=2013&sort=title&order=ASC&p=.htm">Movie Title (click to view)</a></font></td><td align="center"><font size="2"><a href="/yearly/chart/?view=releasedate&view2=domestic&yr=2013&sort=studio&order=ASC&p=.htm">Studio</a><br><script language="javascript">\r\nfunction MojoDrop1() {\r\nvar number = document.MojoDropDown1.mojolinks1.selectedIndex;location.href = document.MojoDropDown1.mojolinks1.options[number].value;}</script>\r\n<table border="0" cellspacing="0" cellpadding="0">\r\n<form name="MojoDropDown1"><tr><td>\r\n<select name="mojolinks1" style="font-family: Verdana; font-size: 8pt" onChange="MojoDrop1(this.form)">\r\n<option selected>Filter</option><option value="/yearly/chart/?view=releasedate&view2=domestic&yr=2013&sort=gross&order=DESC&studio=area23a.htm">A23</option>\r\n<option value="/yearly/chart/?view=releasedate&view2=domestic&yr=2013&sort=gross&order=DESC&studio=a24.htm">A24</option>\r\n<option value="/yearly/chart/?view=releasedate&view2=domestic&yr=2013&sort=gross&order=DESC&studio=abramorama.htm">Abr.</option>\r\n<option value="/yearly/chart/?view=releasedate&view2=domestic&yr=2013&sort=gross&order=DESC&studio=archstone.htm">AD</option>\r\n<option value="/yearly/chart/?view=releasedate&view2=domestic&yr=2013&sort=gross&order=DESC&studio=adoptfilms.htm">AF</option>\r\n<option value="/yearly/chart/?view=releasedate&view2=domestic&yr=2013&sort=gross&order=DESC&studio=affrm.htm">AFFRM</option>\r\n<option value="/yearly/chart/?view=releasedate&view2=domestic&yr=2013&sort=gross&order=DESC&studio=activefox.htm">AFP</option>\r\n<option value="/yearly/chart/?view=releasedate&view2=domestic&yr=2013&sort=gross&order=DESC&studio=afterlifepictures.htm">ALP</option>\r\n<option value="/yearly/chart/?view=releasedate&view2=domestic&yr=2013&sort=gross&order=DESC&studio=alivemind.htm">AM</option>\r\n<option value="/yearly/chart/?view=releasedate&view2=domestic&yr=2013&sort=gross&order=DESC&studio=armandomontelongo.htm">AMP</option>\r\n<option value="/yearly/chart/?view=releasedate&view2=domestic&yr=2013&sort=gross&order=DESC&studio=anchorbayentertainment.htm">Anch.</option>\r\n<option value="/yearly/chart/?view=releasedate&view2=domestic&yr=2013&sort=gross&order=DESC&studio=apdcinema.htm">APD/C</option>\r\n<option value="/yearly/chart/?view=releasedate&view2=domestic&yr=2013&sort=gross&order=DESC&studio=asiareleasing.htm">AR</option>\r\n<option value="/yearly/chart/?view=releasedate&view2=domestic&yr=2013&sort=gross&order=DESC&studio=areans.htm">Aren</option>\r\n<option value="/yearly/chart/?view=releasedate&view2=domestic&yr=2013&sort=gross&order=DESC&studio=argotpictures.htm">Argo.</option>\r\n<option value="/yearly/chart/?view=releasedate&view2=domestic&yr=2013&sort=gross&order=DESC&studio=artisttribe.htm">AT/OS</option>\r\n<option value="/yearly/chart/?view=releasedate&view2=domestic&yr=2013&sort=gross&order=DESC&studio=atopictures.htm">ATO</option>\r\n<option value="/yearly/chart/?view=releasedate&view2=domestic&yr=2013&sort=gross&order=DESC&studio=b4u.htm">B4U</option>\r\n<option value="/yearly/chart/?view=releasedate&view2=domestic&yr=2013&sort=gross&order=DESC&studio=bonfire.htm">BFOA</option>\r\n<option value="/yearly/chart/?view=releasedate&view2=domestic&yr=2013&sort=gross&order=DESC&studio=breakingglass.htm">BGP</option>\r\n<option value="/yearly/chart/?view=releasedate&view2=domestic&yr=2013&sort=gross&order=DESC&studio=bluellama.htm">BLS</option>\r\n<option value="/yearly/chart/?view=releasedate&view2=domestic&yr=2013&sort=gross&order=DESC&studio=brainstormmedia.htm">BSM</option>\r\n<option value="/yearly/chart/?view=releasedate&view2=domestic&yr=2013&sort=gross&order=DESC&studio=buenavista.htm">BV</option>\r\n<option value="/yearly/chart/?view=releasedate&view2=domestic&yr=2013&sort=gross&order=DESC&studio=cbsfilms.htm">CBS</option>\r\n<option value="/yearly/chart/?view=releasedate&view2=domestic&yr=2013&sort=gross&order=DESC&studio=cinedigmentertainment.htm">Cdgm.</option>\r\n<option value="/yearly/chart/?view=releasedate&view2=domestic&yr=2013&sort=gross&order=DESC&studio=carlotta.htm">CFilms</option>\r\n<option value="/yearly/chart/?view=releasedate&view2=domestic&yr=2013&sort=gross&order=DESC&studio=cinemaguild.htm">CGld</option>\r\n<option value="/yearly/chart/?view=releasedate&view2=domestic&yr=2013&sort=gross&order=DESC&studio=cinipix.htm">Cini</option>\r\n<option value="/yearly/chart/?view=releasedate&view2=domestic&yr=2013&sort=gross&order=DESC&studio=cjentertainment.htm">CJ</option>\r\n<option value="/yearly/chart/?view=releasedate&view2=domestic&yr=2013&sort=gross&order=DESC&studio=chinalion.htm">CL</option>\r\n<option value="/yearly/chart/?view=releasedate&view2=domestic&yr=2013&sort=gross&order=DESC&studio=contentmedia.htm">CM</option>\r\n<option value="/yearly/chart/?view=releasedate&view2=domestic&yr=2013&sort=gross&order=DESC&studio=codeblackentertainment.htm">Code</option>\r\n<option value="/yearly/chart/?view=releasedate&view2=domestic&yr=2013&sort=gross&order=DESC&studio=cohenmedia.htm">Cohen</option>\r\n<option value="/yearly/chart/?view=releasedate&view2=domestic&yr=2013&sort=gross&order=DESC&studio=cinemapurgatorio.htm">CP</option>\r\n<option value="/yearly/chart/?view=releasedate&view2=domestic&yr=2013&sort=gross&order=DESC&studio=dada.htm">Da.</option>\r\n<option value="/yearly/chart/?view=releasedate&view2=domestic&yr=2013&sort=gross&order=DESC&studio=drivein.htm">DID</option>\r\n<option value="/yearly/chart/?view=releasedate&view2=domestic&yr=2013&sort=gross&order=DESC&studio=distribfilms.htm">Distrib.</option>\r\n<option value="/yearly/chart/?view=releasedate&view2=domestic&yr=2013&sort=gross&order=DESC&studio=diginext.htm">DN</option>\r\n<option value="/yearly/chart/?view=releasedate&view2=domestic&yr=2013&sort=gross&order=DESC&studio=doppelganger.htm">DR</option>\r\n<option value="/yearly/chart/?view=releasedate&view2=domestic&yr=2013&sort=gross&order=DESC&studio=drafthousefilms.htm">Drft.</option>\r\n<option value="/yearly/chart/?view=releasedate&view2=domestic&yr=2013&sort=gross&order=DESC&studio=drivingwithoureyesshut.htm">DWOES</option>\r\n<option value="/yearly/chart/?view=releasedate&view2=domestic&yr=2013&sort=gross&order=DESC&studio=e1entertainment.htm">E1</option>\r\n<option value="/yearly/chart/?view=releasedate&view2=domestic&yr=2013&sort=gross&order=DESC&studio=elevenarts.htm">Elev.</option>\r\n<option value="/yearly/chart/?view=releasedate&view2=domestic&yr=2013&sort=gross&order=DESC&studio=echolight.htm">ELS</option>\r\n<option value="/yearly/chart/?view=releasedate&view2=domestic&yr=2013&sort=gross&order=DESC&studio=entertainmentone.htm">EOne</option>\r\n<option value="/yearly/chart/?view=releasedate&view2=domestic&yr=2013&sort=gross&order=DESC&studio=epicpics.htm">EpicPics</option>\r\n<option value="/yearly/chart/?view=releasedate&view2=domestic&yr=2013&sort=gross&order=DESC&studio=erbpfilm.htm">erbp</option>\r\n<option value="/yearly/chart/?view=releasedate&view2=domestic&yr=2013&sort=gross&order=DESC&studio=eros.htm">Eros</option>\r\n<option value="/yearly/chart/?view=releasedate&view2=domestic&yr=2013&sort=gross&order=DESC&studio=excel.htm">Excel</option>\r\n<option value="/yearly/chart/?view=releasedate&view2=domestic&yr=2013&sort=gross&order=DESC&studio=exclusivemedia.htm">EXCL</option>\r\n<option value="/yearly/chart/?view=releasedate&view2=domestic&yr=2013&sort=gross&order=DESC&studio=filmbuff.htm">FB</option>\r\n<option value="/yearly/chart/?view=releasedate&view2=domestic&yr=2013&sort=gross&order=DESC&studio=filmcollective.htm">FC</option>\r\n<option value="/yearly/chart/?view=releasedate&view2=domestic&yr=2013&sort=gross&order=DESC&studio=filmdistrict.htm">FD</option>\r\n<option value="/yearly/chart/?view=releasedate&view2=domestic&yr=2013&sort=gross&order=DESC&studio=thefilmdesk.htm">FDesk</option>\r\n<option value="/yearly/chart/?view=releasedate&view2=domestic&yr=2013&sort=gross&order=DESC&studio=futureeducational.htm">FEF</option>\r\n<option value="/yearly/chart/?view=releasedate&view2=domestic&yr=2013&sort=gross&order=DESC&studio=fip.htm">FIP</option>\r\n<option value="/yearly/chart/?view=releasedate&view2=domestic&yr=2013&sort=gross&order=DESC&studio=finelinemedia.htm">FLM</option>\r\n<option value="/yearly/chart/?view=releasedate&view2=domestic&yr=2013&sort=gross&order=DESC&studio=filmmovement.htm">FM</option>\r\n<option value="/yearly/chart/?view=releasedate&view2=domestic&yr=2013&sort=gross&order=DESC&studio=focus.htm">Focus</option>\r\n<option value="/yearly/chart/?view=releasedate&view2=domestic&yr=2013&sort=gross&order=DESC&studio=fox.htm">Fox</option>\r\n<option value="/yearly/chart/?view=releasedate&view2=domestic&yr=2013&sort=gross&order=DESC&studio=foxsearchlight.htm">FoxS</option>\r\n<option value="/yearly/chart/?view=releasedate&view2=domestic&yr=2013&sort=gross&order=DESC&studio=freestyle.htm">Free</option>\r\n<option value="/yearly/chart/?view=releasedate&view2=domestic&yr=2013&sort=gross&order=DESC&studio=firstrun.htm">FRun</option>\r\n<option value="/yearly/chart/?view=releasedate&view2=domestic&yr=2013&sort=gross&order=DESC&studio=followyournose.htm">FYN</option>\r\n<option value="/yearly/chart/?view=releasedate&view2=domestic&yr=2013&sort=gross&order=DESC&studio=gathrfilms.htm">Gathr</option>\r\n<option value="/yearly/chart/?view=releasedate&view2=domestic&yr=2013&sort=gross&order=DESC&studio=goldcapfilms.htm">GCF</option>\r\n<option value="/yearly/chart/?view=releasedate&view2=domestic&yr=2013&sort=gross&order=DESC&studio=godigital.htm">GD</option>\r\n<option value="/yearly/chart/?view=releasedate&view2=domestic&yr=2013&sort=gross&order=DESC&studio=gogogo.htm">GGGE</option>\r\n<option value="/yearly/chart/?view=releasedate&view2=domestic&yr=2013&sort=gross&order=DESC&studio=gkids.htm">GK</option>\r\n<option value="/yearly/chart/?view=releasedate&view2=domestic&yr=2013&sort=gross&order=DESC&studio=gabrielsmessenger.htm">GMF</option>\r\n<option value="/yearly/chart/?view=releasedate&view2=domestic&yr=2013&sort=gross&order=DESC&studio=ghostsmedia.htm">GMI</option>\r\n<option value="/yearly/chart/?view=releasedate&view2=domestic&yr=2013&sort=gross&order=DESC&studio=samuelgoldwyn.htm">Gold.</option>\r\n<option value="/yearly/chart/?view=releasedate&view2=domestic&yr=2013&sort=gross&order=DESC&studio=gravitas.htm">Grav.</option>\r\n<option value="/yearly/chart/?view=releasedate&view2=domestic&yr=2013&sort=gross&order=DESC&studio=gaiamvivendi.htm">GVE</option>\r\n<option value="/yearly/chart/?view=releasedate&view2=domestic&yr=2013&sort=gross&order=DESC&studio=houselightsmedia.htm">HLM</option>\r\n<option value="/yearly/chart/?view=releasedate&view2=domestic&yr=2013&sort=gross&order=DESC&studio=hightop.htm">HTR</option>\r\n<option value="/yearly/chart/?view=releasedate&view2=domestic&yr=2013&sort=gross&order=DESC&studio=icarus.htm">Icar.</option>\r\n<option value="/yearly/chart/?view=releasedate&view2=domestic&yr=2013&sort=gross&order=DESC&studio=intlfilmcircuit.htm">ICir</option>\r\n<option value="/yearly/chart/?view=releasedate&view2=domestic&yr=2013&sort=gross&order=DESC&studio=ifc.htm">IFC</option>\r\n<option value="/yearly/chart/?view=releasedate&view2=domestic&yr=2013&sort=gross&order=DESC&studio=indomina.htm">IM</option>\r\n<option value="/yearly/chart/?view=releasedate&view2=domestic&yr=2013&sort=gross&order=DESC&studio=imageentertainment.htm">Imag.</option>\r\n<option value="/yearly/chart/?view=releasedate&view2=domestic&yr=2013&sort=gross&order=DESC&studio=imax.htm">Imax</option>\r\n<option value="/yearly/chart/?view=releasedate&view2=domestic&yr=2013&sort=gross&order=DESC&studio=imglobalblum.htm">IMG/B</option>\r\n<option value="/yearly/chart/?view=releasedate&view2=domestic&yr=2013&sort=gross&order=DESC&studio=indican.htm">Indic.</option>\r\n<option value="/yearly/chart/?view=releasedate&view2=domestic&yr=2013&sort=gross&order=DESC&studio=janusfilms.htm">Jan.</option>\r\n<option value="/yearly/chart/?view=releasedate&view2=domestic&yr=2013&sort=gross&order=DESC&studio=jansonmedia.htm">JM</option>\r\n<option value="/yearly/chart/?view=releasedate&view2=domestic&yr=2013&sort=gross&order=DESC&studio=kdkfactory.htm">KDK</option>\r\n<option value="/yearly/chart/?view=releasedate&view2=domestic&yr=2013&sort=gross&order=DESC&studio=ketchup.htm">KE</option>\r\n<option value="/yearly/chart/?view=releasedate&view2=domestic&yr=2013&sort=gross&order=DESC&studio=kinolorber.htm">KL</option>\r\n<option value="/yearly/chart/?view=releasedate&view2=domestic&yr=2013&sort=gross&order=DESC&studio=krian.htm">KM</option>\r\n<option value="/yearly/chart/?view=releasedate&view2=domestic&yr=2013&sort=gross&order=DESC&studio=kimstim.htm">KS</option>\r\n<option value="/yearly/chart/?view=releasedate&view2=domestic&yr=2013&sort=gross&order=DESC&studio=leavebetter.htm">LB</option>\r\n<option value="/yearly/chart/?view=releasedate&view2=domestic&yr=2013&sort=gross&order=DESC&studio=lddistribution.htm">LD</option>\r\n<option value="/yearly/chart/?view=releasedate&view2=domestic&yr=2013&sort=gross&order=DESC&studio=leisuretime.htm">Leis.</option>\r\n<option value="/yearly/chart/?view=releasedate&view2=domestic&yr=2013&sort=gross&order=DESC&studio=lionsgatesummit.htm">LG/S</option>\r\n<option value="/yearly/chart/?view=releasedate&view2=domestic&yr=2013&sort=gross&order=DESC&studio=lionsgate.htm">LGF</option>\r\n<option value="/yearly/chart/?view=releasedate&view2=domestic&yr=2013&sort=gross&order=DESC&studio=cinemalibre.htm">Libre</option>\r\n<option value="/yearly/chart/?view=releasedate&view2=domestic&yr=2013&sort=gross&order=DESC&studio=libertystreet.htm">LibSt.</option>\r\n<option value="/yearly/chart/?view=releasedate&view2=domestic&yr=2013&sort=gross&order=DESC&studio=lepetitcanyon.htm">LPC</option>\r\n<option value="/yearly/chart/?view=releasedate&view2=domestic&yr=2013&sort=gross&order=DESC&studio=lambertreleasing.htm">LR</option>\r\n<option value="/yearly/chart/?view=releasedate&view2=domestic&yr=2013&sort=gross&order=DESC&studio=magnolia.htm">Magn.</option>\r\n<option value="/yearly/chart/?view=releasedate&view2=domestic&yr=2013&sort=gross&order=DESC&studio=musicboxfilms.htm">MBox</option>\r\n<option value="/yearly/chart/?view=releasedate&view2=domestic&yr=2013&sort=gross&order=DESC&studio=millenniumentertainment.htm">MNE</option>\r\n<option value="/yearly/chart/?view=releasedate&view2=domestic&yr=2013&sort=gross&order=DESC&studio=montereymediainc.htm">Mont.</option>\r\n<option value="/yearly/chart/?view=releasedate&view2=domestic&yr=2013&sort=gross&order=DESC&studio=mpimediagroup.htm">MPI</option>\r\n<option value="/yearly/chart/?view=releasedate&view2=domestic&yr=2013&sort=gross&order=DESC&studio=mainstreetfilms.htm">MSF</option>\r\n<option value="/yearly/chart/?view=releasedate&view2=domestic&yr=2013&sort=gross&order=DESC&studio=methinx.htm">MTE</option>\r\n<option value="/yearly/chart/?view=releasedate&view2=domestic&yr=2013&sort=gross&order=DESC&studio=unknown.htm">N/A</option>\r\n<option value="/yearly/chart/?view=releasedate&view2=domestic&yr=2013&sort=gross&order=DESC&studio=nocoast.htm">NC</option>\r\n<option value="/yearly/chart/?view=releasedate&view2=domestic&yr=2013&sort=gross&order=DESC&studio=nationalgeographiccinema.htm">NGE</option>\r\n<option value="/yearly/chart/?view=releasedate&view2=domestic&yr=2013&sort=gross&order=DESC&studio=noujaim.htm">Nou</option>\r\n<option value="/yearly/chart/?view=releasedate&view2=domestic&yr=2013&sort=gross&order=DESC&studio=newyorker.htm">NYer</option>\r\n<option value="/yearly/chart/?view=releasedate&view2=domestic&yr=2013&sort=gross&order=DESC&studio=openroads.htm">ORF</option>\r\n<option value="/yearly/chart/?view=releasedate&view2=domestic&yr=2013&sort=gross&order=DESC&studio=oscilloscopepictures.htm">Osci.</option>\r\n<option value="/yearly/chart/?view=releasedate&view2=domestic&yr=2013&sort=gross&order=DESC&studio=paladin108.htm">P/108</option>\r\n<option value="/yearly/chart/?view=releasedate&view2=domestic&yr=2013&sort=gross&order=DESC&studio=paladinfilmbuff.htm">P/FB</option>\r\n<option value="/yearly/chart/?view=releasedate&view2=domestic&yr=2013&sort=gross&order=DESC&studio=paladin.htm">Pala.</option>\r\n<option value="/yearly/chart/?view=releasedate&view2=domestic&yr=2013&sort=gross&order=DESC&studio=paramount.htm">Par.</option>\r\n<option value="/yearly/chart/?view=releasedate&view2=domestic&yr=2013&sort=gross&order=DESC&studio=participant.htm">Part.</option>\r\n<option value="/yearly/chart/?view=releasedate&view2=domestic&yr=2013&sort=gross&order=DESC&studio=pda.htm">PDA</option>\r\n<option value="/yearly/chart/?view=releasedate&view2=domestic&yr=2013&sort=gross&order=DESC&studio=picturehouse2.htm">PH</option>\r\n<option value="/yearly/chart/?view=releasedate&view2=domestic&yr=2013&sort=gross&order=DESC&studio=palmera.htm">PI</option>\r\n<option value="/yearly/chart/?view=releasedate&view2=domestic&yr=2013&sort=gross&order=DESC&studio=panmedia.htm">PM&amp;E</option>\r\n<option value="/yearly/chart/?view=releasedate&view2=domestic&yr=2013&sort=gross&order=DESC&studio=pradhubheva.htm">Prab.</option>\r\n<option value="/yearly/chart/?view=releasedate&view2=domestic&yr=2013&sort=gross&order=DESC&studio=purdie.htm">Purd.</option>\r\n<option value="/yearly/chart/?view=releasedate&view2=domestic&yr=2013&sort=gross&order=DESC&studio=reactor88.htm">R88</option>\r\n<option value="/yearly/chart/?view=releasedate&view2=domestic&yr=2013&sort=gross&order=DESC&studio=roadsideattractions.htm">RAtt.</option>\r\n<option value="/yearly/chart/?view=releasedate&view2=domestic&yr=2013&sort=gross&order=DESC&studio=rcr.htm">RCR</option>\r\n<option value="/yearly/chart/?view=releasedate&view2=domestic&yr=2013&sort=gross&order=DESC&studio=relativity.htm">Rela.</option>\r\n<option value="/yearly/chart/?view=releasedate&view2=domestic&yr=2013&sort=gross&order=DESC&studio=reliancebigpictures.htm">Relbig.</option>\r\n<option value="/yearly/chart/?view=releasedate&view2=domestic&yr=2013&sort=gross&order=DESC&studio=radafilmgroup.htm">RFG</option>\r\n<option value="/yearly/chart/?view=releasedate&view2=domestic&yr=2013&sort=gross&order=DESC&studio=rialto.htm">Rialto</option>\r\n<option value="/yearly/chart/?view=releasedate&view2=domestic&yr=2013&sort=gross&order=DESC&studio=riverrain.htm">RivR</option>\r\n<option value="/yearly/chart/?view=releasedate&view2=domestic&yr=2013&sort=gross&order=DESC&studio=rockymountainpictures.htm">RM</option>\r\n<option value="/yearly/chart/?view=releasedate&view2=domestic&yr=2013&sort=gross&order=DESC&studio=rockstone.htm">RR</option>\r\n<option value="/yearly/chart/?view=releasedate&view2=domestic&yr=2013&sort=gross&order=DESC&studio=radiustwc.htm">RTWC</option>\r\n<option value="/yearly/chart/?view=releasedate&view2=domestic&yr=2013&sort=gross&order=DESC&studio=seatzyima.htm">S/IMA</option>\r\n<option value="/yearly/chart/?view=releasedate&view2=domestic&yr=2013&sort=gross&order=DESC&studio=screenmedia.htm">Scre.</option>\r\n<option value="/yearly/chart/?view=releasedate&view2=domestic&yr=2013&sort=gross&order=DESC&studio=submarinedeluxe.htm">SD</option>\r\n<option value="/yearly/chart/?view=releasedate&view2=domestic&yr=2013&sort=gross&order=DESC&studio=striped.htm">SE</option>\r\n<option value="/yearly/chart/?view=releasedate&view2=domestic&yr=2013&sort=gross&order=DESC&studio=screengems.htm">SGem</option>\r\n<option value="/yearly/chart/?view=releasedate&view2=domestic&yr=2013&sort=gross&order=DESC&studio=shoutfactory.htm">Shout!</option>\r\n<option value="/yearly/chart/?view=releasedate&view2=domestic&yr=2013&sort=gross&order=DESC&studio=shortsinternational.htm">Shrts.</option>\r\n<option value="/yearly/chart/?view=releasedate&view2=domestic&yr=2013&sort=gross&order=DESC&studio=starzmedia.htm">SM</option>\r\n<option value="/yearly/chart/?view=releasedate&view2=domestic&yr=2013&sort=gross&order=DESC&studio=sony.htm">Sony</option>\r\n<option value="/yearly/chart/?view=releasedate&view2=domestic&yr=2013&sort=gross&order=DESC&studio=steelyardpictures.htm">SP</option>\r\n<option value="/yearly/chart/?view=releasedate&view2=domestic&yr=2013&sort=gross&order=DESC&studio=sonyclassics.htm">SPC</option>\r\n<option value="/yearly/chart/?view=releasedate&view2=domestic&yr=2013&sort=gross&order=DESC&studio=strand.htm">Strand</option>\r\n<option value="/yearly/chart/?view=releasedate&view2=domestic&yr=2013&sort=gross&order=DESC&studio=ashtontimes.htm">TAT</option>\r\n<option value="/yearly/chart/?view=releasedate&view2=domestic&yr=2013&sort=gross&order=DESC&studio=filmarcade.htm">TFA</option>\r\n<option value="/yearly/chart/?view=releasedate&view2=domestic&yr=2013&sort=gross&order=DESC&studio=filmcollaborative.htm">TFC</option>\r\n<option value="/yearly/chart/?view=releasedate&view2=domestic&yr=2013&sort=gross&order=DESC&studio=happysadllc.htm">THS</option>\r\n<option value="/yearly/chart/?view=releasedate&view2=domestic&yr=2013&sort=gross&order=DESC&studio=tribecafilm.htm">Trib.</option>\r\n<option value="/yearly/chart/?view=releasedate&view2=domestic&yr=2013&sort=gross&order=DESC&studio=tristar.htm">TriS</option>\r\n<option value="/yearly/chart/?view=releasedate&view2=domestic&yr=2013&sort=gross&order=DESC&studio=trulyindie.htm">Truly</option>\r\n<option value="/yearly/chart/?view=releasedate&view2=domestic&yr=2013&sort=gross&order=DESC&studio=vladarcompany.htm">TVC</option>\r\n<option value="/yearly/chart/?view=releasedate&view2=domestic&yr=2013&sort=gross&order=DESC&studio=universal.htm">Uni.</option>\r\n<option value="/yearly/chart/?view=releasedate&view2=domestic&yr=2013&sort=gross&order=DESC&studio=milkyway.htm">UTMW</option>\r\n<option value="/yearly/chart/?view=releasedate&view2=domestic&yr=2013&sort=gross&order=DESC&studio=utv.htm">UTV</option>\r\n<option value="/yearly/chart/?view=releasedate&view2=domestic&yr=2013&sort=gross&order=DESC&studio=variancefilms.htm">Vari.</option>\r\n<option value="/yearly/chart/?view=releasedate&view2=domestic&yr=2013&sort=gross&order=DESC&studio=vertical.htm">VE</option>\r\n<option value="/yearly/chart/?view=releasedate&view2=domestic&yr=2013&sort=gross&order=DESC&studio=vanguardia.htm">VF</option>\r\n<option value="/yearly/chart/?view=releasedate&view2=domestic&yr=2013&sort=gross&order=DESC&studio=vitagraph.htm">Vita.</option>\r\n<option value="/yearly/chart/?view=releasedate&view2=domestic&yr=2013&sort=gross&order=DESC&studio=wdimension.htm">W/Dim.</option>\r\n<option value="/yearly/chart/?view=releasedate&view2=domestic&yr=2013&sort=gross&order=DESC&studio=amctheaters.htm">WAMCR</option>\r\n<option value="/yearly/chart/?view=releasedate&view2=domestic&yr=2013&sort=gross&order=DESC&studio=warnerbros.htm">WB</option>\r\n<option value="/yearly/chart/?view=releasedate&view2=domestic&yr=2013&sort=gross&order=DESC&studio=wb-newline.htm">WB (NL)</option>\r\n<option value="/yearly/chart/?view=releasedate&view2=domestic&yr=2013&sort=gross&order=DESC&studio=weinsteincompany.htm">Wein.</option>\r\n<option value="/yearly/chart/?view=releasedate&view2=domestic&yr=2013&sort=gross&order=DESC&studio=wakinggiants.htm">WG</option>\r\n<option value="/yearly/chart/?view=releasedate&view2=domestic&yr=2013&sort=gross&order=DESC&studio=wellgo.htm">WGUSA</option>\r\n<option value="/yearly/chart/?view=releasedate&view2=domestic&yr=2013&sort=gross&order=DESC&studio=wolfereleasing.htm">Wlfe.</option>\r\n<option value="/yearly/chart/?view=releasedate&view2=domestic&yr=2013&sort=gross&order=DESC&studio=xlratormedia.htm">XL</option>\r\n<option value="/yearly/chart/?view=releasedate&view2=domestic&yr=2013&sort=gross&order=DESC&studio=yashraj.htm">Yash</option>\r\n<option value="/yearly/chart/?view=releasedate&view2=domestic&yr=2013&sort=gross&order=DESC&studio=zeitgeist.htm">Zeit.</option>\r\n<option value="/yearly/chart/?view=releasedate&view2=domestic&yr=2013&sort=gross&order=DESC&studio=zipporahfilms.htm">Zipp.</option>\r\n<option value="/yearly/chart/?view=releasedate&view2=domestic&yr=2013&sort=gross&order=DESC&p=.htm">ALL</option>\r\n</select></td></tr></form></table><a></a></font></td><td align="center" colspan="2"><font size="2"><a href="/yearly/chart/?view=releasedate&view2=domestic&yr=2013&sort=gross&order=ASC&p=.htm"><b>Total Gross</b></a> / </font><font size="2"><a href="/yearly/chart/?view=releasedate&view2=domestic&yr=2013&sort=theaters&order=DESC&p=.htm">Theaters</a></font></td><td align="center" colspan="2"><font size="2"><a href="/yearly/chart/?view=releasedate&view2=domestic&yr=2013&sort=opengross&order=DESC&p=.htm">Opening</a> / </font><font size="2"><a href="/yearly/chart/?view=releasedate&view2=domestic&yr=2013&sort=opentheaters&order=DESC&p=.htm">Theaters</a></font></td><td align="center"><font size="2"><a href="/yearly/chart/?view=releasedate&view2=domestic&yr=2013&sort=open&order=DESC&p=.htm">Open</a></font></td><td align="center"><font size="2"><a href="/yearly/chart/?view=releasedate&view2=domestic&yr=2013&sort=close&order=DESC&p=.htm">Close</a></font></td></tr><tr bgcolor="#ffffff"><td align="center"><font size="2">1</font></td><td><b><font size="2"><a href="/movies/?id=catchingfire.htm">The Hunger Games: Catching Fire</a></font></b></td><td><font size="2">LGF</font></td><td align="right"><font size="2"><b>$424,668,047</b></font></td><td align="right"><font size="2">4,163</font></td><td align="right"><font size="2">$158,074,286</font></td><td align="right"><font size="2">4,163</font></td><td align="right"><font size="2"><a href="/schedule/?view=bydate&release=theatrical&date=2013-11-22&p=.htm">11/22</a></font></td><td align="right"><font size="2">4/3</font></td></tr><tr bgcolor="#f4f4ff"><td align="center"><font size="2">2</font></td><td><b><font size="2"><a href="/movies/?id=ironman3.htm">Iron Man 3</a></font></b></td><td><font size="2">BV</font></td><td align="right"><font size="2"><b>$409,013,994</b></font></td><td align="right"><font size="2">4,253</font></td><td align="right"><font size="2">$174,144,585</font></td><td align="right"><font size="2">4,253</font></td><td align="right"><font size="2"><a href="/schedule/?view=bydate&release=theatrical&date=2013-05-03&p=.htm">5/3</a></font></td><td align="right"><font size="2">9/12</font></td></tr><tr bgcolor="#ffffff"><td align="center"><font size="2">3</font></td><td><b><font size="2"><a href="/movies/?id=frozen2013.htm">Frozen</a></font></b></td><td><font size="2">BV</font></td><td align="right"><font size="2"><b>$400,738,009</b></font></td><td align="right"><font size="2">3,742</font></td><td align="right"><font size="2">$243,390</font></td><td align="right"><font size="2">1</font></td><td align="right"><font size="2"><a href="/schedule/?view=bydate&release=theatrical&date=2013-11-22&p=.htm">11/22</a></font></td><td align="right"><font size="2">7/17</font></td></tr><tr bgcolor="#f4f4ff"><td align="center"><font size="2">4</font></td><td><b><font size="2"><a href="/movies/?id=despicableme2.htm">Despicable Me 2</a></font></b></td><td><font size="2">Uni.</font></td><td align="right"><font size="2"><b>$368,061,265</b></font></td><td align="right"><font size="2">4,003</font></td><td align="right"><font size="2">$83,517,315</font></td><td align="right"><font size="2">3,997</font></td><td align="right"><font size="2"><a href="/schedule/?view=bydate&release=theatrical&date=2013-07-03&p=.htm">7/3</a></font></td><td align="right"><font size="2">1/16</font></td></tr><tr bgcolor="#ffffff"><td align="center"><font size="2">5</font></td><td><b><font size="2"><a href="/movies/?id=superman2012.htm">Man of Steel</a></font></b></td><td><font size="2">WB</font></td><td align="right"><font size="2"><b>$291,045,518</b></font></td><td align="right"><font size="2">4,207</font></td><td align="right"><font size="2">$116,619,362</font></td><td align="right"><font size="2">4,207</font></td><td align="right"><font size="2"><a href="/schedule/?view=bydate&release=theatrical&date=2013-06-14&p=.htm">6/14</a></font></td><td align="right"><font size="2">9/19</font></td></tr><tr bgcolor="#f4f4ff"><td align="center"><font size="2">6</font></td><td><b><font size="2"><a href="/movies/?id=gravity.htm">Gravity</a></font></b></td><td><font size="2">WB</font></td><td align="right"><font size="2"><b>$274,092,705</b></font></td><td align="right"><font size="2">3,820</font></td><td align="right"><font size="2">$55,785,112</font></td><td align="right"><font size="2">3,575</font></td><td align="right"><font size="2"><a href="/schedule/?view=bydate&release=theatrical&date=2013-10-04&p=.htm">10/4</a></font></td><td align="right"><font size="2">5/8</font></td></tr><tr bgcolor="#ffffff"><td align="center"><font size="2">7</font></td><td><b><font size="2"><a href="/movies/?id=monstersinc2.htm">Monsters University</a></font></b></td><td><font size="2">BV</font></td><td align="right"><font size="2"><b>$268,492,764</b></font></td><td align="right"><font size="2">4,004</font></td><td align="right"><font size="2">$82,429,469</font></td><td align="right"><font size="2">4,004</font></td><td align="right"><font size="2"><a href="/schedule/?view=bydate&release=theatrical&date=2013-06-21&p=.htm">6/21</a></font></td><td align="right"><font size="2">12/19</font></td></tr><tr bgcolor="#f4f4ff"><td align="center"><font size="2">8</font></td><td><b><font size="2"><a href="/movies/?id=hobbit2.htm">The Hobbit: The Desolation of Smaug</a></font></b></td><td><font size="2">WB</font></td><td align="right"><font size="2"><b>$258,366,855</b></font></td><td align="right"><font size="2">3,928</font></td><td align="right"><font size="2">$73,645,197</font></td><td align="right"><font size="2">3,903</font></td><td align="right"><font size="2"><a href="/schedule/?view=bydate&release=theatrical&date=2013-12-13&p=.htm">12/13</a></font></td><td align="right"><font size="2">4/17</font></td></tr><tr bgcolor="#ffffff"><td align="center"><font size="2">9</font></td><td><b><font size="2"><a href="/movies/?id=fast6.htm">Fast &amp; Furious 6</a></font></b></td><td><font size="2">Uni.</font></td><td align="right"><font size="2"><b>$238,679,850</b></font></td><td align="right"><font size="2">3,771</font></td><td align="right"><font size="2">$97,375,245</font></td><td align="right"><font size="2">3,658</font></td><td align="right"><font size="2"><a href="/schedule/?view=bydate&release=theatrical&date=2013-05-24&p=.htm">5/24</a></font></td><td align="right"><font size="2">9/5</font></td></tr><tr bgcolor="#f4f4ff"><td align="center"><font size="2">10</font></td><td><b><font size="2"><a href="/movies/?id=oz.htm">Oz The Great and Powerful</a></font></b></td><td><font size="2">BV</font></td><td align="right"><font size="2"><b>$234,911,825</b></font></td><td align="right"><font size="2">3,912</font></td><td align="right"><font size="2">$79,110,453</font></td><td align="right"><font size="2">3,912</font></td><td align="right"><font size="2"><a href="/schedule/?view=bydate&release=theatrical&date=2013-03-08&p=.htm">3/8</a></font></td><td align="right"><font size="2">7/18</font></td></tr><tr bgcolor="#ffffff"><td align="center"><font size="2">11</font></td><td><b><font size="2"><a href="/movies/?id=startrek12.htm">Star Trek Into Darkness</a></font></b></td><td><font size="2">Par.</font></td><td align="right"><font size="2"><b>$228,778,661</b></font></td><td align="right"><font size="2">3,907</font></td><td align="right"><font size="2">$70,165,559</font></td><td align="right"><font size="2">3,868</font></td><td align="right"><font size="2"><a href="/schedule/?view=bydate&release=theatrical&date=2013-05-16&p=.htm">5/16</a></font></td><td align="right"><font size="2">9/12</font></td></tr><tr bgcolor="#f4f4ff"><td align="center"><font size="2">12</font></td><td><b><font size="2"><a href="/movies/?id=thor2.htm">Thor: The Dark World</a></font></b></td><td><font size="2">BV</font></td><td align="right"><font size="2"><b>$206,362,140</b></font></td><td align="right"><font size="2">3,841</font></td><td align="right"><font size="2">$85,737,841</font></td><td align="right"><font size="2">3,841</font></td><td align="right"><font size="2"><a href="/schedule/?view=bydate&release=theatrical&date=2013-11-08&p=.htm">11/8</a></font></td><td align="right"><font size="2">4/17</font></td></tr><tr bgcolor="#ffffff"><td align="center"><font size="2">13</font></td><td><b><font size="2"><a href="/movies/?id=worldwarz.htm">World War Z</a></font></b></td><td><font size="2">Par.</font></td><td align="right"><font size="2"><b>$202,359,711</b></font></td><td align="right"><font size="2">3,607</font></td><td align="right"><font size="2">$66,411,834</font></td><td align="right"><font size="2">3,607</font></td><td align="right"><font size="2"><a href="/schedule/?view=bydate&release=theatrical&date=2013-06-21&p=.htm">6/21</a></font></td><td align="right"><font size="2">10/10</font></td></tr><tr bgcolor="#f4f4ff"><td align="center"><font size="2">14</font></td><td><b><font size="2"><a href="/movies/?id=croods.htm">The Croods</a></font></b></td><td><font size="2">Fox</font></td><td align="right"><font size="2"><b>$187,168,425</b></font></td><td align="right"><font size="2">4,065</font></td><td align="right"><font size="2">$43,639,736</font></td><td align="right"><font size="2">4,046</font></td><td align="right"><font size="2"><a href="/schedule/?view=bydate&release=theatrical&date=2013-03-22&p=.htm">3/22</a></font></td><td align="right"><font size="2">9/19</font></td></tr><tr bgcolor="#ffffff"><td align="center"><font size="2">15</font></td><td><b><font size="2"><a href="/movies/?id=bullockmccarthy.htm">The Heat</a></font></b></td><td><font size="2">Fox</font></td><td align="right"><font size="2"><b>$159,582,188</b></font></td><td align="right"><font size="2">3,184</font></td><td align="right"><font size="2">$39,115,043</font></td><td align="right"><font size="2">3,181</font></td><td align="right"><font size="2"><a href="/schedule/?view=bydate&release=theatrical&date=2013-06-28&p=.htm">6/28</a></font></td><td align="right"><font size="2">12/12</font></td></tr><tr bgcolor="#f4f4ff"><td align="center"><font size="2">16</font></td><td><b><font size="2"><a href="/movies/?id=werethemillers.htm">We\'re the Millers</a></font></b></td><td><font size="2">WB</font></td><td align="right"><font size="2"><b>$150,394,119</b></font></td><td align="right"><font size="2">3,445</font></td><td align="right"><font size="2">$26,419,396</font></td><td align="right"><font size="2">3,260</font></td><td align="right"><font size="2"><a href="/schedule/?view=bydate&release=theatrical&date=2013-08-07&p=.htm">8/7</a></font></td><td align="right"><font size="2">12/5</font></td></tr><tr bgcolor="#ffffff"><td align="center"><font size="2">17</font></td><td><b><font size="2"><a href="/movies/?id=davido2013.htm">American Hustle</a></font></b></td><td><font size="2">Sony</font></td><td align="right"><font size="2"><b>$150,117,807</b></font></td><td align="right"><font size="2">2,629</font></td><td align="right"><font size="2">$740,455</font></td><td align="right"><font size="2">6</font></td><td align="right"><font size="2"><a href="/schedule/?view=bydate&release=theatrical&date=2013-12-13&p=.htm">12/13</a></font></td><td align="right"><font size="2">4/6</font></td></tr><tr bgcolor="#f4f4ff"><td align="center"><font size="2">18</font></td><td><b><font size="2"><a href="/movies/?id=greatgatsby2012.htm">The Great Gatsby (2013)</a></font></b></td><td><font size="2">WB</font></td><td align="right"><font size="2"><b>$144,840,419</b></font></td><td align="right"><font size="2">3,550</font></td><td align="right"><font size="2">$50,085,185</font></td><td align="right"><font size="2">3,535</font></td><td align="right"><font size="2"><a href="/schedule/?view=bydate&release=theatrical&date=2013-05-10&p=.htm">5/10</a></font></td><td align="right"><font size="2">8/22</font></td></tr><tr bgcolor="#ffffff"><td align="center"><font size="2">19</font></td><td><b><font size="2"><a href="/movies/?id=conjuring.htm">The Conjuring</a></font></b></td><td><font size="2">WB</font></td><td align="right"><font size="2"><b>$137,400,141</b></font></td><td align="right"><font size="2">3,115</font></td><td align="right"><font size="2">$41,855,326</font></td><td align="right"><font size="2">2,903</font></td><td align="right"><font size="2"><a href="/schedule/?view=bydate&release=theatrical&date=2013-07-19&p=.htm">7/19</a></font></td><td align="right"><font size="2">10/31</font></td></tr><tr bgcolor="#f4f4ff"><td align="center"><font size="2">20</font></td><td><b><font size="2"><a href="/movies/?id=identitythief.htm">Identity Thief</a></font></b></td><td><font size="2">Uni.</font></td><td align="right"><font size="2"><b>$134,506,920</b></font></td><td align="right"><font size="2">3,230</font></td><td align="right"><font size="2">$34,551,025</font></td><td align="right"><font size="2">3,141</font></td><td align="right"><font size="2"><a href="/schedule/?view=bydate&release=theatrical&date=2013-02-08&p=.htm">2/8</a></font></td><td align="right"><font size="2">6/6</font></td></tr><tr bgcolor="#ffffff"><td align="center"><font size="2">21</font></td><td><b><font size="2"><a href="/movies/?id=grownups2.htm">Grown Ups 2</a></font></b></td><td><font size="2">Sony</font></td><td align="right"><font size="2"><b>$133,668,525</b></font></td><td align="right"><font size="2">3,491</font></td><td align="right"><font size="2">$41,508,572</font></td><td align="right"><font size="2">3,491</font></td><td align="right"><font size="2"><a href="/schedule/?view=bydate&release=theatrical&date=2013-07-12&p=.htm">7/12</a></font></td><td align="right"><font size="2">11/17</font></td></tr><tr bgcolor="#f4f4ff"><td align="center"><font size="2">22</font></td><td><b><font size="2"><a href="/movies/?id=wolverine2.htm">The Wolverine</a></font></b></td><td><font size="2">Fox</font></td><td align="right"><font size="2"><b>$132,556,852</b></font></td><td align="right"><font size="2">3,924</font></td><td align="right"><font size="2">$53,113,752</font></td><td align="right"><font size="2">3,924</font></td><td align="right"><font size="2"><a href="/schedule/?view=bydate&release=theatrical&date=2013-07-26&p=.htm">7/26</a></font></td><td align="right"><font size="2">12/5</font></td></tr><tr bgcolor="#ffffff"><td align="center"><font size="2">23</font></td><td><b><font size="2"><a href="/movies/?id=anchorman2.htm">Anchorman 2: The Legend Continues</a></font></b></td><td><font size="2">Par.</font></td><td align="right"><font size="2"><b>$125,168,368</b></font></td><td align="right"><font size="2">3,507</font></td><td align="right"><font size="2">$26,232,425</font></td><td align="right"><font size="2">3,507</font></td><td align="right"><font size="2"><a href="/schedule/?view=bydate&release=theatrical&date=2013-12-18&p=.htm">12/18</a></font></td><td align="right"><font size="2">2/20</font></td></tr><tr bgcolor="#f4f4ff"><td align="center"><font size="2">24</font></td><td><b><font size="2"><a href="/movies/?id=lonesurvivor.htm">Lone Survivor</a></font></b></td><td><font size="2">Uni.</font></td><td align="right"><font size="2"><b>$125,095,601</b></font></td><td align="right"><font size="2">3,285</font></td><td align="right"><font size="2">$90,872</font></td><td align="right"><font size="2">2</font></td><td align="right"><font size="2"><a href="/schedule/?view=bydate&release=theatrical&date=2013-12-25&p=.htm">12/25</a></font></td><td align="right"><font size="2">4/10</font></td></tr><tr bgcolor="#ffffff"><td align="center"><font size="2">25</font></td><td><b><font size="2"><a href="/movies/?id=gijoe2.htm">G.I. Joe: Retaliation</a></font></b></td><td><font size="2">Par.</font></td><td align="right"><font size="2"><b>$122,523,060</b></font></td><td align="right"><font size="2">3,734</font></td><td align="right"><font size="2">$40,501,814</font></td><td align="right"><font size="2">3,719</font></td><td align="right"><font size="2"><a href="/schedule/?view=bydate&release=theatrical&date=2013-03-28&p=.htm">3/28</a></font></td><td align="right"><font size="2">7/18</font></td></tr><tr bgcolor="#f4f4ff"><td align="center"><font size="2">26</font></td><td><b><font size="2"><a href="/movies/?id=cloudy2.htm">Cloudy with a Chance of Meatballs 2</a></font></b></td><td><font size="2">Sony</font></td><td align="right"><font size="2"><b>$119,793,567</b></font></td><td align="right"><font size="2">4,001</font></td><td align="right"><font size="2">$34,017,930</font></td><td align="right"><font size="2">4,001</font></td><td align="right"><font size="2"><a href="/schedule/?view=bydate&release=theatrical&date=2013-09-27&p=.htm">9/27</a></font></td><td align="right"><font size="2">3/16</font></td></tr><tr bgcolor="#ffffff"><td align="center"><font size="2">27</font></td><td><b><font size="2"><a href="/movies/?id=nowyouseeme.htm">Now You See Me</a></font></b></td><td><font size="2">LG/S</font></td><td align="right"><font size="2"><b>$117,723,989</b></font></td><td align="right"><font size="2">3,082</font></td><td align="right"><font size="2">$29,350,389</font></td><td align="right"><font size="2">2,925</font></td><td align="right"><font size="2"><a href="/schedule/?view=bydate&release=theatrical&date=2013-05-31&p=.htm">5/31</a></font></td><td align="right"><font size="2">9/26</font></td></tr><tr bgcolor="#f4f4ff"><td align="center"><font size="2">28</font></td><td><b><font size="2"><a href="/movies/?id=wolfofwallstreet.htm">The Wolf of Wall Street</a></font></b></td><td><font size="2">Par.</font></td><td align="right"><font size="2"><b>$116,900,694</b></font></td><td align="right"><font size="2">2,557</font></td><td align="right"><font size="2">$18,361,578</font></td><td align="right"><font size="2">2,537</font></td><td align="right"><font size="2"><a href="/schedule/?view=bydate&release=theatrical&date=2013-12-25&p=.htm">12/25</a></font></td><td align="right"><font size="2">4/3</font></td></tr><tr bgcolor="#ffffff"><td align="center"><font size="2">29</font></td><td><b><font size="2"><a href="/movies/?id=butler.htm">Lee Daniels\' The Butler</a></font></b></td><td><font size="2">Wein.</font></td><td align="right"><font size="2"><b>$116,632,095</b></font></td><td align="right"><font size="2">3,330</font></td><td align="right"><font size="2">$24,637,312</font></td><td align="right"><font size="2">2,933</font></td><td align="right"><font size="2"><a href="/schedule/?view=bydate&release=theatrical&date=2013-08-16&p=.htm">8/16</a></font></td><td align="right"><font size="2">2/13</font></td></tr><tr bgcolor="#f4f4ff"><td align="center"><font size="2">30</font></td><td><b><font size="2"><a href="/movies/?id=hangover3.htm">The Hangover Part III</a></font></b></td><td><font size="2">WB</font></td><td align="right"><font size="2"><b>$112,200,072</b></font></td><td align="right"><font size="2">3,565</font></td><td align="right"><font size="2">$41,671,198</font></td><td align="right"><font size="2">3,555</font></td><td align="right"><font size="2"><a href="/schedule/?view=bydate&release=theatrical&date=2013-05-23&p=.htm">5/23</a></font></td><td align="right"><font size="2">8/15</font></td></tr><tr bgcolor="#ffffff"><td align="center"><font size="2">31</font></td><td><b><font size="2"><a href="/movies/?id=leafmen.htm">Epic</a></font></b></td><td><font size="2">Fox</font></td><td align="right"><font size="2"><b>$107,518,682</b></font></td><td align="right"><font size="2">3,894</font></td><td align="right"><font size="2">$33,531,068</font></td><td align="right"><font size="2">3,882</font></td><td align="right"><font size="2"><a href="/schedule/?view=bydate&release=theatrical&date=2013-05-24&p=.htm">5/24</a></font></td><td align="right"><font size="2">9/19</font></td></tr><tr bgcolor="#f4f4ff"><td align="center"><font size="2">32</font></td><td><b><font size="2"><a href="/movies/?id=captainphillips.htm">Captain Phillips</a></font></b></td><td><font size="2">Sony</font></td><td align="right"><font size="2"><b>$107,100,855</b></font></td><td align="right"><font size="2">3,143</font></td><td align="right"><font size="2">$25,718,314</font></td><td align="right"><font size="2">3,020</font></td><td align="right"><font size="2"><a href="/schedule/?view=bydate&release=theatrical&date=2013-10-11&p=.htm">10/11</a></font></td><td align="right"><font size="2">3/2</font></td></tr><tr bgcolor="#ffffff"><td align="center"><font size="2">33</font></td><td><b><font size="2"><a href="/movies/?id=badgrandpa.htm">Jackass Presents: Bad Grandpa</a></font></b></td><td><font size="2">Par.</font></td><td align="right"><font size="2"><b>$102,003,019</b></font></td><td align="right"><font size="2">3,345</font></td><td align="right"><font size="2">$32,055,177</font></td><td align="right"><font size="2">3,336</font></td><td align="right"><font size="2"><a href="/schedule/?view=bydate&release=theatrical&date=2013-10-25&p=.htm">10/25</a></font></td><td align="right"><font size="2">1/23</font></td></tr><tr bgcolor="#f4f4ff"><td align="center"><font size="2">34</font></td><td><b><font size="2"><a href="/movies/?id=pacificrim.htm">Pacific Rim</a></font></b></td><td><font size="2">WB</font></td><td align="right"><font size="2"><b>$101,802,906</b></font></td><td align="right"><font size="2">3,285</font></td><td align="right"><font size="2">$37,285,325</font></td><td align="right"><font size="2">3,275</font></td><td align="right"><font size="2"><a href="/schedule/?view=bydate&release=theatrical&date=2013-07-12&p=.htm">7/12</a></font></td><td align="right"><font size="2">10/17</font></td></tr><tr bgcolor="#ffffff"><td align="center"><font size="2">35</font></td><td><b><font size="2"><a href="/movies/?id=rogenhilluntitled.htm">This is the End</a></font></b></td><td><font size="2">Sony</font></td><td align="right"><font size="2"><b>$101,470,202</b></font></td><td align="right"><font size="2">3,055</font></td><td align="right"><font size="2">$20,719,162</font></td><td align="right"><font size="2">3,055</font></td><td align="right"><font size="2"><a href="/schedule/?view=bydate&release=theatrical&date=2013-06-12&p=.htm">6/12</a></font></td><td align="right"><font size="2">10/6</font></td></tr><tr bgcolor="#f4f4ff"><td align="center"><font size="2">36</font></td><td><b><font size="2"><a href="/movies/?id=olympushasfallen.htm">Olympus Has Fallen</a></font></b></td><td><font size="2">FD</font></td><td align="right"><font size="2"><b>$98,925,640</b></font></td><td align="right"><font size="2">3,106</font></td><td align="right"><font size="2">$30,373,794</font></td><td align="right"><font size="2">3,098</font></td><td align="right"><font size="2"><a href="/schedule/?view=bydate&release=theatrical&date=2013-03-22&p=.htm">3/22</a></font></td><td align="right"><font size="2">7/11</font></td></tr><tr bgcolor="#ffffff"><td align="center"><font size="2">37</font></td><td><b><font size="2"><a href="/movies/?id=42.htm">42</a></font></b></td><td><font size="2">WB</font></td><td align="right"><font size="2"><b>$95,020,213</b></font></td><td align="right"><font size="2">3,405</font></td><td align="right"><font size="2">$27,487,144</font></td><td align="right"><font size="2">3,003</font></td><td align="right"><font size="2"><a href="/schedule/?view=bydate&release=theatrical&date=2013-04-12&p=.htm">4/12</a></font></td><td align="right"><font size="2">7/25</font></td></tr><tr bgcolor="#f4f4ff"><td align="center"><font size="2">38</font></td><td><b><font size="2"><a href="/movies/?id=elysium.htm">Elysium</a></font></b></td><td><font size="2">TriS</font></td><td align="right"><font size="2"><b>$93,050,117</b></font></td><td align="right"><font size="2">3,284</font></td><td align="right"><font size="2">$29,807,393</font></td><td align="right"><font size="2">3,284</font></td><td align="right"><font size="2"><a href="/schedule/?view=bydate&release=theatrical&date=2013-08-09&p=.htm">8/9</a></font></td><td align="right"><font size="2">11/24</font></td></tr><tr bgcolor="#ffffff"><td align="center"><font size="2">39</font></td><td><b><font size="2"><a href="/movies/?id=planes.htm">Planes</a></font></b></td><td><font size="2">BV</font></td><td align="right"><font size="2"><b>$90,288,712</b></font></td><td align="right"><font size="2">3,716</font></td><td align="right"><font size="2">$22,232,291</font></td><td align="right"><font size="2">3,702</font></td><td align="right"><font size="2"><a href="/schedule/?view=bydate&release=theatrical&date=2013-08-09&p=.htm">8/9</a></font></td><td align="right"><font size="2">12/19</font></td></tr><tr bgcolor="#f4f4ff"><td align="center"><font size="2">40</font></td><td><b><font size="2"><a href="/movies/?id=loneranger.htm">The Lone Ranger</a></font></b></td><td><font size="2">BV</font></td><td align="right"><font size="2"><b>$89,302,115</b></font></td><td align="right"><font size="2">3,904</font></td><td align="right"><font size="2">$29,210,849</font></td><td align="right"><font size="2">3,904</font></td><td align="right"><font size="2"><a href="/schedule/?view=bydate&release=theatrical&date=2013-07-03&p=.htm">7/3</a></font></td><td align="right"><font size="2">10/10</font></td></tr><tr bgcolor="#ffffff"><td align="center"><font size="2">41</font></td><td><b><font size="2"><a href="/movies/?id=oblivion.htm">Oblivion</a></font></b></td><td><font size="2">Uni.</font></td><td align="right"><font size="2"><b>$89,107,235</b></font></td><td align="right"><font size="2">3,792</font></td><td align="right"><font size="2">$37,054,485</font></td><td align="right"><font size="2">3,783</font></td><td align="right"><font size="2"><a href="/schedule/?view=bydate&release=theatrical&date=2013-04-19&p=.htm">4/19</a></font></td><td align="right"><font size="2">6/27</font></td></tr><tr bgcolor="#f4f4ff"><td align="center"><font size="2">42</font></td><td><b><font size="2"><a href="/movies/?id=insidious2.htm">Insidious Chapter 2</a></font></b></td><td><font size="2">FD</font></td><td align="right"><font size="2"><b>$83,586,447</b></font></td><td align="right"><font size="2">3,155</font></td><td align="right"><font size="2">$40,272,103</font></td><td align="right"><font size="2">3,049</font></td><td align="right"><font size="2"><a href="/schedule/?view=bydate&release=theatrical&date=2013-09-13&p=.htm">9/13</a></font></td><td align="right"><font size="2">12/19</font></td></tr><tr bgcolor="#ffffff"><td align="center"><font size="2">43</font></td><td><b><font size="2"><a href="/movies/?id=savingmrbanks.htm">Saving Mr. Banks</a></font></b></td><td><font size="2">BV</font></td><td align="right"><font size="2"><b>$83,301,580</b></font></td><td align="right"><font size="2">2,671</font></td><td align="right"><font size="2">$413,373</font></td><td align="right"><font size="2">15</font></td><td align="right"><font size="2"><a href="/schedule/?view=bydate&release=theatrical&date=2013-12-13&p=.htm">12/13</a></font></td><td align="right"><font size="2">4/17</font></td></tr><tr bgcolor="#f4f4ff"><td align="center"><font size="2">44</font></td><td><b><font size="2"><a href="/movies/?id=turbo.htm">Turbo</a></font></b></td><td><font size="2">Fox</font></td><td align="right"><font size="2"><b>$83,028,128</b></font></td><td align="right"><font size="2">3,809</font></td><td align="right"><font size="2">$21,312,625</font></td><td align="right"><font size="2">3,806</font></td><td align="right"><font size="2"><a href="/schedule/?view=bydate&release=theatrical&date=2013-07-17&p=.htm">7/17</a></font></td><td align="right"><font size="2">12/12</font></td></tr><tr bgcolor="#ffffff"><td align="center"><font size="2">45</font></td><td><b><font size="2"><a href="/movies/?id=2guns.htm">2 Guns</a></font></b></td><td><font size="2">Uni.</font></td><td align="right"><font size="2"><b>$75,612,460</b></font></td><td align="right"><font size="2">3,028</font></td><td align="right"><font size="2">$27,059,130</font></td><td align="right"><font size="2">3,025</font></td><td align="right"><font size="2"><a href="/schedule/?view=bydate&release=theatrical&date=2013-08-02&p=.htm">8/2</a></font></td><td align="right"><font size="2">10/24</font></td></tr><tr bgcolor="#f4f4ff"><td align="center"><font size="2">46</font></td><td><b><font size="2"><a href="/movies/?id=whitehousedown.htm">White House Down</a></font></b></td><td><font size="2">Sony</font></td><td align="right"><font size="2"><b>$73,103,784</b></font></td><td align="right"><font size="2">3,222</font></td><td align="right"><font size="2">$24,852,258</font></td><td align="right"><font size="2">3,222</font></td><td align="right"><font size="2"><a href="/schedule/?view=bydate&release=theatrical&date=2013-06-28&p=.htm">6/28</a></font></td><td align="right"><font size="2">9/15</font></td></tr><tr bgcolor="#ffffff"><td align="center"><font size="2">47</font></td><td><b><font size="2"><a href="/movies/?id=mama.htm">Mama</a></font></b></td><td><font size="2">Uni.</font></td><td align="right"><font size="2"><b>$71,628,180</b></font></td><td align="right"><font size="2">2,781</font></td><td align="right"><font size="2">$28,402,310</font></td><td align="right"><font size="2">2,647</font></td><td align="right"><font size="2"><a href="/schedule/?view=bydate&release=theatrical&date=2013-01-18&p=.htm">1/18</a></font></td><td align="right"><font size="2">4/4</font></td></tr><tr bgcolor="#f4f4ff"><td align="center"><font size="2">48</font></td><td><b><font size="2"><a href="/movies/?id=safehaven.htm">Safe Haven</a></font></b></td><td><font size="2">Rela.</font></td><td align="right"><font size="2"><b>$71,349,120</b></font></td><td align="right"><font size="2">3,223</font></td><td align="right"><font size="2">$21,401,594</font></td><td align="right"><font size="2">3,223</font></td><td align="right"><font size="2"><a href="/schedule/?view=bydate&release=theatrical&date=2013-02-14&p=.htm">2/14</a></font></td><td align="right"><font size="2">5/30</font></td></tr><tr bgcolor="#ffffff"><td align="center"><font size="2">49</font></td><td><b><font size="2"><a href="/movies/?id=smurfs2.htm">The Smurfs 2</a></font></b></td><td><font size="2">Sony</font></td><td align="right"><font size="2"><b>$71,017,784</b></font></td><td align="right"><font size="2">3,867</font></td><td align="right"><font size="2">$17,548,389</font></td><td align="right"><font size="2">3,866</font></td><td align="right"><font size="2"><a href="/schedule/?view=bydate&release=theatrical&date=2013-07-31&p=.htm">7/31</a></font></td><td align="right"><font size="2">11/17</font></td></tr><tr bgcolor="#f4f4ff"><td align="center"><font size="2">50</font></td><td><b><font size="2"><a href="/movies/?id=bestman2.htm">The Best Man Holiday</a></font></b></td><td><font size="2">Uni.</font></td><td align="right"><font size="2"><b>$70,525,195</b></font></td><td align="right"><font size="2">2,041</font></td><td align="right"><font size="2">$30,107,555</font></td><td align="right"><font size="2">2,024</font></td><td align="right"><font size="2"><a href="/schedule/?view=bydate&release=theatrical&date=2013-11-15&p=.htm">11/15</a></font></td><td align="right"><font size="2">1/9</font></td></tr><tr bgcolor="#ffffff"><td align="center"><font size="2">51</font></td><td><b><font size="2"><a href="/movies/?id=percyjackson2.htm">Percy Jackson: Sea of Monsters</a></font></b></td><td><font size="2">Fox</font></td><td align="right"><font size="2"><b>$68,559,554</b></font></td><td align="right"><font size="2">3,080</font></td><td align="right"><font size="2">$14,401,054</font></td><td align="right"><font size="2">3,031</font></td><td align="right"><font size="2"><a href="/schedule/?view=bydate&release=theatrical&date=2013-08-07&p=.htm">8/7</a></font></td><td align="right"><font size="2">1/30</font></td></tr><tr bgcolor="#f4f4ff"><td align="center"><font size="2">52</font></td><td><b><font size="2"><a href="/movies/?id=diehard5.htm">A Good Day to Die Hard</a></font></b></td><td><font size="2">Fox</font></td><td align="right"><font size="2"><b>$67,349,198</b></font></td><td align="right"><font size="2">3,555</font></td><td align="right"><font size="2">$24,834,845</font></td><td align="right"><font size="2">3,553</font></td><td align="right"><font size="2"><a href="/schedule/?view=bydate&release=theatrical&date=2013-02-14&p=.htm">2/14</a></font></td><td align="right"><font size="2">5/23</font></td></tr><tr bgcolor="#ffffff"><td align="center"><font size="2">53</font></td><td><b><font size="2"><a href="/movies/?id=warmbodies.htm">Warm Bodies</a></font></b></td><td><font size="2">LG/S</font></td><td align="right"><font size="2"><b>$66,380,662</b></font></td><td align="right"><font size="2">3,009</font></td><td align="right"><font size="2">$20,353,967</font></td><td align="right"><font size="2">3,009</font></td><td align="right"><font size="2"><a href="/schedule/?view=bydate&release=theatrical&date=2013-02-01&p=.htm">2/1</a></font></td><td align="right"><font size="2">5/9</font></td></tr><tr bgcolor="#f4f4ff"><td align="center"><font size="2">54</font></td><td><b><font size="2"><a href="/movies/?id=jackthegiantkiller.htm">Jack the Giant Slayer</a></font></b></td><td><font size="2">WB (NL)</font></td><td align="right"><font size="2"><b>$65,187,603</b></font></td><td align="right"><font size="2">3,525</font></td><td align="right"><font size="2">$27,202,226</font></td><td align="right"><font size="2">3,525</font></td><td align="right"><font size="2"><a href="/schedule/?view=bydate&release=theatrical&date=2013-03-01&p=.htm">3/1</a></font></td><td align="right"><font size="2">6/13</font></td></tr><tr bgcolor="#ffffff"><td align="center"><font size="2">55</font></td><td><b><font size="2"><a href="/movies/?id=purge.htm">The Purge</a></font></b></td><td><font size="2">Uni.</font></td><td align="right"><font size="2"><b>$64,473,115</b></font></td><td align="right"><font size="2">2,591</font></td><td align="right"><font size="2">$34,058,360</font></td><td align="right"><font size="2">2,536</font></td><td align="right"><font size="2"><a href="/schedule/?view=bydate&release=theatrical&date=2013-06-07&p=.htm">6/7</a></font></td><td align="right"><font size="2">8/8</font></td></tr><tr bgcolor="#f4f4ff"><td align="center"><font size="2">56</font></td><td><b><font size="2"><a href="/movies/?id=lastvegas.htm">Last Vegas</a></font></b></td><td><font size="2">CBS</font></td><td align="right"><font size="2"><b>$63,914,167</b></font></td><td align="right"><font size="2">3,237</font></td><td align="right"><font size="2">$16,334,566</font></td><td align="right"><font size="2">3,065</font></td><td align="right"><font size="2"><a href="/schedule/?view=bydate&release=theatrical&date=2013-11-01&p=.htm">11/1</a></font></td><td align="right"><font size="2">2/20</font></td></tr><tr bgcolor="#ffffff"><td align="center"><font size="2">57</font></td><td><b><font size="2"><a href="/movies/?id=endersgame.htm">Ender\'s Game</a></font></b></td><td><font size="2">LG/S</font></td><td align="right"><font size="2"><b>$61,737,191</b></font></td><td align="right"><font size="2">3,407</font></td><td align="right"><font size="2">$27,017,351</font></td><td align="right"><font size="2">3,407</font></td><td align="right"><font size="2"><a href="/schedule/?view=bydate&release=theatrical&date=2013-11-01&p=.htm">11/1</a></font></td><td align="right"><font size="2">1/9</font></td></tr><tr bgcolor="#f4f4ff"><td align="center"><font size="2">58</font></td><td><b><font size="2"><a href="/movies/?id=prisoners.htm">Prisoners</a></font></b></td><td><font size="2">WB</font></td><td align="right"><font size="2"><b>$61,002,302</b></font></td><td align="right"><font size="2">3,290</font></td><td align="right"><font size="2">$20,817,053</font></td><td align="right"><font size="2">3,260</font></td><td align="right"><font size="2"><a href="/schedule/?view=bydate&release=theatrical&date=2013-09-20&p=.htm">9/20</a></font></td><td align="right"><font size="2">12/5</font></td></tr><tr bgcolor="#ffffff"><td align="center"><font size="2">59</font></td><td><b><font size="2"><a href="/movies/?id=1000ae.htm">After Earth</a></font></b></td><td><font size="2">Sony</font></td><td align="right"><font size="2"><b>$60,522,097</b></font></td><td align="right"><font size="2">3,401</font></td><td align="right"><font size="2">$27,520,040</font></td><td align="right"><font size="2">3,401</font></td><td align="right"><font size="2"><a href="/schedule/?view=bydate&release=theatrical&date=2013-05-31&p=.htm">5/31</a></font></td><td align="right"><font size="2">8/18</font></td></tr><tr bgcolor="#f4f4ff"><td align="center"><font size="2">60</font></td><td><b><font size="2"><a href="/movies/?id=waltermitty.htm">The Secret Life of Walter Mitty</a></font></b></td><td><font size="2">Fox</font></td><td align="right"><font size="2"><b>$58,236,838</b></font></td><td align="right"><font size="2">2,922</font></td><td align="right"><font size="2">$12,765,508</font></td><td align="right"><font size="2">2,909</font></td><td align="right"><font size="2"><a href="/schedule/?view=bydate&release=theatrical&date=2013-12-25&p=.htm">12/25</a></font></td><td align="right"><font size="2">4/10</font></td></tr><tr bgcolor="#ffffff"><td align="center"><font size="2">61</font></td><td><b><font size="2"><a href="/movies/?id=escapefromplanetearth.htm">Escape From Planet Earth</a></font></b></td><td><font size="2">Wein.</font></td><td align="right"><font size="2"><b>$57,012,977</b></font></td><td align="right"><font size="2">3,353</font></td><td align="right"><font size="2">$15,891,055</font></td><td align="right"><font size="2">3,288</font></td><td align="right"><font size="2"><a href="/schedule/?view=bydate&release=theatrical&date=2013-02-15&p=.htm">2/15</a></font></td><td align="right"><font size="2">7/25</font></td></tr><tr bgcolor="#f4f4ff"><td align="center"><font size="2">62</font></td><td><b><font size="2"><a href="/movies/?id=twelveyearsaslave.htm">12 Years a Slave</a></font></b></td><td><font size="2">FoxS</font></td><td align="right"><font size="2"><b>$56,671,993</b></font></td><td align="right"><font size="2">1,474</font></td><td align="right"><font size="2">$923,715</font></td><td align="right"><font size="2">19</font></td><td align="right"><font size="2"><a href="/schedule/?view=bydate&release=theatrical&date=2013-10-18&p=.htm">10/18</a></font></td><td align="right"><font size="2">5/8</font></td></tr><tr bgcolor="#ffffff"><td align="center"><font size="2">63</font></td><td><b><font size="2"><a href="/movies/?id=turkeys.htm">Free Birds</a></font></b></td><td><font size="2">Rela.</font></td><td align="right"><font size="2"><b>$55,750,480</b></font></td><td align="right"><font size="2">3,736</font></td><td align="right"><font size="2">$15,805,237</font></td><td align="right"><font size="2">3,736</font></td><td align="right"><font size="2"><a href="/schedule/?view=bydate&release=theatrical&date=2013-11-01&p=.htm">11/1</a></font></td><td align="right"><font size="2">3/20</font></td></tr><tr bgcolor="#f4f4ff"><td align="center"><font size="2">64</font></td><td><b><font size="2"><a href="/movies/?id=hanselandgretelwitchhunters.htm">Hansel and Gretel: Witch Hunters</a></font></b></td><td><font size="2">Par.</font></td><td align="right"><font size="2"><b>$55,703,475</b></font></td><td align="right"><font size="2">3,375</font></td><td align="right"><font size="2">$19,690,956</font></td><td align="right"><font size="2">3,372</font></td><td align="right"><font size="2"><a href="/schedule/?view=bydate&release=theatrical&date=2013-01-25&p=.htm">1/25</a></font></td><td align="right"><font size="2">4/25</font></td></tr><tr bgcolor="#ffffff"><td align="center"><font size="2">65</font></td><td><b><font size="2"><a href="/movies/?id=evildead2013.htm">Evil Dead (2013)</a></font></b></td><td><font size="2">TriS</font></td><td align="right"><font size="2"><b>$54,239,856</b></font></td><td align="right"><font size="2">3,025</font></td><td align="right"><font size="2">$25,775,847</font></td><td align="right"><font size="2">3,025</font></td><td align="right"><font size="2"><a href="/schedule/?view=bydate&release=theatrical&date=2013-04-05&p=.htm">4/5</a></font></td><td align="right"><font size="2">6/9</font></td></tr><tr bgcolor="#f4f4ff"><td align="center"><font size="2">66</font></td><td><b><font size="2"><a href="/movies/?id=red2.htm">Red 2</a></font></b></td><td><font size="2">LG/S</font></td><td align="right"><font size="2"><b>$53,262,560</b></font></td><td align="right"><font size="2">3,016</font></td><td align="right"><font size="2">$18,048,422</font></td><td align="right"><font size="2">3,016</font></td><td align="right"><font size="2"><a href="/schedule/?view=bydate&release=theatrical&date=2013-07-19&p=.htm">7/19</a></font></td><td align="right"><font size="2">10/17</font></td></tr><tr bgcolor="#ffffff"><td align="center"><font size="2">67</font></td><td><b><font size="2"><a href="/movies/?id=madeachristmas.htm">Tyler Perry\'s A Madea Christmas</a></font></b></td><td><font size="2">LGF</font></td><td align="right"><font size="2"><b>$52,543,354</b></font></td><td align="right"><font size="2">2,194</font></td><td align="right"><font size="2">$16,007,634</font></td><td align="right"><font size="2">2,194</font></td><td align="right"><font size="2"><a href="/schedule/?view=bydate&release=theatrical&date=2013-12-13&p=.htm">12/13</a></font></td><td align="right"><font size="2">2/13</font></td></tr><tr bgcolor="#f4f4ff"><td align="center"><font size="2">68</font></td><td><b><font size="2"><a href="/movies/?id=marriagecounselor.htm">Tyler Perry\'s Temptation: Confessions of a Marriage Counselor</a></font></b></td><td><font size="2">LGF</font></td><td align="right"><font size="2"><b>$51,975,354</b></font></td><td align="right"><font size="2">2,047</font></td><td align="right"><font size="2">$21,641,679</font></td><td align="right"><font size="2">2,047</font></td><td align="right"><font size="2"><a href="/schedule/?view=bydate&release=theatrical&date=2013-03-29&p=.htm">3/29</a></font></td><td align="right"><font size="2">5/30</font></td></tr><tr bgcolor="#ffffff"><td align="center"><font size="2">69</font></td><td><b><font size="2"><a href="/movies/?id=call2013.htm">The Call</a></font></b></td><td><font size="2">TriS</font></td><td align="right"><font size="2"><b>$51,872,378</b></font></td><td align="right"><font size="2">2,507</font></td><td align="right"><font size="2">$17,118,745</font></td><td align="right"><font size="2">2,507</font></td><td align="right"><font size="2"><a href="/schedule/?view=bydate&release=theatrical&date=2013-03-15&p=.htm">3/15</a></font></td><td align="right"><font size="2">6/9</font></td></tr><tr bgcolor="#f4f4ff"><td align="center"><font size="2">70</font></td><td><b><font size="2"><a href="/movies/?id=painandgain.htm">Pain and Gain</a></font></b></td><td><font size="2">Par.</font></td><td align="right"><font size="2"><b>$49,875,291</b></font></td><td align="right"><font size="2">3,303</font></td><td align="right"><font size="2">$20,244,505</font></td><td align="right"><font size="2">3,277</font></td><td align="right"><font size="2"><a href="/schedule/?view=bydate&release=theatrical&date=2013-04-26&p=.htm">4/26</a></font></td><td align="right"><font size="2">8/29</font></td></tr><tr bgcolor="#ffffff"><td align="center"><font size="2">71</font></td><td><b><font size="2"><a href="/movies/?id=gangstersquad.htm">Gangster Squad</a></font></b></td><td><font size="2">WB</font></td><td align="right"><font size="2"><b>$46,000,903</b></font></td><td align="right"><font size="2">3,103</font></td><td align="right"><font size="2">$17,070,347</font></td><td align="right"><font size="2">3,103</font></td><td align="right"><font size="2"><a href="/schedule/?view=bydate&release=theatrical&date=2013-01-11&p=.htm">1/11</a></font></td><td align="right"><font size="2">4/4</font></td></tr><tr bgcolor="#f4f4ff"><td align="center"><font size="2">72</font></td><td><b><font size="2"><a href="/movies/?id=jurassicpark3d.htm">Jurassic Park 3D</a></font></b></td><td><font size="2">Uni.</font></td><td align="right"><font size="2"><b>$45,385,935</b></font></td><td align="right"><font size="2">2,778</font></td><td align="right"><font size="2">$18,620,145</font></td><td align="right"><font size="2">2,771</font></td><td align="right"><font size="2"><a href="/schedule/?view=bydate&release=theatrical&date=2013-04-05&p=.htm">4/5</a></font></td><td align="right"><font size="2">5/23</font></td></tr><tr bgcolor="#ffffff"><td align="center"><font size="2">73</font></td><td><b><font size="2"><a href="/movies/?id=internship.htm">The Internship</a></font></b></td><td><font size="2">Fox</font></td><td align="right"><font size="2"><b>$44,672,764</b></font></td><td align="right"><font size="2">3,399</font></td><td align="right"><font size="2">$17,325,307</font></td><td align="right"><font size="2">3,366</font></td><td align="right"><font size="2"><a href="/schedule/?view=bydate&release=theatrical&date=2013-06-07&p=.htm">6/7</a></font></td><td align="right"><font size="2">9/12</font></td></tr><tr bgcolor="#f4f4ff"><td align="center"><font size="2">74</font></td><td><b><font size="2"><a href="/movies/?id=instructionsnotincluded.htm">Instructions Not Included</a></font></b></td><td><font size="2">LGF</font></td><td align="right"><font size="2"><b>$44,467,206</b></font></td><td align="right"><font size="2">978</font></td><td align="right"><font size="2">$7,846,426</font></td><td align="right"><font size="2">348</font></td><td align="right"><font size="2"><a href="/schedule/?view=bydate&release=theatrical&date=2013-08-30&p=.htm">8/30</a></font></td><td align="right"><font size="2">12/12</font></td></tr><tr bgcolor="#ffffff"><td align="center"><font size="2">75</font></td><td><b><font size="2"><a href="/movies/?id=snitch.htm">Snitch</a></font></b></td><td><font size="2">LG/S</font></td><td align="right"><font size="2"><b>$42,930,462</b></font></td><td align="right"><font size="2">2,511</font></td><td align="right"><font size="2">$13,167,607</font></td><td align="right"><font size="2">2,511</font></td><td align="right"><font size="2"><a href="/schedule/?view=bydate&release=theatrical&date=2013-02-22&p=.htm">2/22</a></font></td><td align="right"><font size="2">5/30</font></td></tr><tr bgcolor="#f4f4ff"><td align="center"><font size="2">76</font></td><td><b><font size="2"><a href="/movies/?id=riddick.htm">Riddick</a></font></b></td><td><font size="2">Uni.</font></td><td align="right"><font size="2"><b>$42,025,135</b></font></td><td align="right"><font size="2">3,117</font></td><td align="right"><font size="2">$19,030,375</font></td><td align="right"><font size="2">3,107</font></td><td align="right"><font size="2"><a href="/schedule/?view=bydate&release=theatrical&date=2013-09-06&p=.htm">9/6</a></font></td><td align="right"><font size="2">10/31</font></td></tr><tr bgcolor="#ffffff"><td align="center"><font size="2">77</font></td><td><b><font size="2"><a href="/movies/?id=hauntedhouse.htm">A Haunted House</a></font></b></td><td><font size="2">ORF</font></td><td align="right"><font size="2"><b>$40,041,683</b></font></td><td align="right"><font size="2">2,160</font></td><td align="right"><font size="2">$18,101,682</font></td><td align="right"><font size="2">2,160</font></td><td align="right"><font size="2"><a href="/schedule/?view=bydate&release=theatrical&date=2013-01-11&p=.htm">1/11</a></font></td><td align="right"><font size="2">3/3</font></td></tr><tr bgcolor="#f4f4ff"><td align="center"><font size="2">78</font></td><td><b><font size="2"><a href="/movies/?id=47ronin.htm">47 Ronin</a></font></b></td><td><font size="2">Uni.</font></td><td align="right"><font size="2"><b>$38,362,475</b></font></td><td align="right"><font size="2">2,690</font></td><td align="right"><font size="2">$9,910,310</font></td><td align="right"><font size="2">2,689</font></td><td align="right"><font size="2"><a href="/schedule/?view=bydate&release=theatrical&date=2013-12-25&p=.htm">12/25</a></font></td><td align="right"><font size="2">2/6</font></td></tr><tr bgcolor="#ffffff"><td align="center"><font size="2">79</font></td><td><b><font size="2"><a href="/movies/?id=augustosagecounty.htm">August: Osage County</a></font></b></td><td><font size="2">Wein.</font></td><td align="right"><font size="2"><b>$37,738,810</b></font></td><td align="right"><font size="2">2,411</font></td><td align="right"><font size="2">$179,302</font></td><td align="right"><font size="2">5</font></td><td align="right"><font size="2"><a href="/schedule/?view=bydate&release=theatrical&date=2013-12-27&p=.htm">12/27</a></font></td><td align="right"><font size="2">5/8</font></td></tr><tr bgcolor="#f4f4ff"><td align="center"><font size="2">80</font></td><td><b><font size="2"><a href="/movies/?id=philomena.htm">Philomena</a></font></b></td><td><font size="2">Wein.</font></td><td align="right"><font size="2"><b>$37,709,979</b></font></td><td align="right"><font size="2">1,225</font></td><td align="right"><font size="2">$128,435</font></td><td align="right"><font size="2">4</font></td><td align="right"><font size="2"><a href="/schedule/?view=bydate&release=theatrical&date=2013-11-22&p=.htm">11/22</a></font></td><td align="right"><font size="2">5/22</font></td></tr><tr bgcolor="#ffffff"><td align="center"><font size="2">81</font></td><td><b><font size="2"><a href="/movies/?id=malavita.htm">The Family (2013)</a></font></b></td><td><font size="2">Rela.</font></td><td align="right"><font size="2"><b>$36,918,811</b></font></td><td align="right"><font size="2">3,091</font></td><td align="right"><font size="2">$14,034,764</font></td><td align="right"><font size="2">3,091</font></td><td align="right"><font size="2"><a href="/schedule/?view=bydate&release=theatrical&date=2013-09-13&p=.htm">9/13</a></font></td><td align="right"><font size="2">1/9</font></td></tr><tr bgcolor="#f4f4ff"><td align="center"><font size="2">82</font></td><td><b><font size="2"><a href="/movies/?id=walkingwithdinosaurs.htm">Walking with Dinosaurs</a></font></b></td><td><font size="2">Fox</font></td><td align="right"><font size="2"><b>$36,076,121</b></font></td><td align="right"><font size="2">3,243</font></td><td align="right"><font size="2">$7,091,938</font></td><td align="right"><font size="2">3,231</font></td><td align="right"><font size="2"><a href="/schedule/?view=bydate&release=theatrical&date=2013-12-20&p=.htm">12/20</a></font></td><td align="right"><font size="2">4/10</font></td></tr><tr bgcolor="#ffffff"><td align="center"><font size="2">83</font></td><td><b><font size="2"><a href="/movies/?id=carrie2013.htm">Carrie (2013)</a></font></b></td><td><font size="2">SGem</font></td><td align="right"><font size="2"><b>$35,266,619</b></font></td><td align="right"><font size="2">3,157</font></td><td align="right"><font size="2">$16,101,552</font></td><td align="right"><font size="2">3,157</font></td><td align="right"><font size="2"><a href="/schedule/?view=bydate&release=theatrical&date=2013-10-18&p=.htm">10/18</a></font></td><td align="right"><font size="2">11/24</font></td></tr><tr bgcolor="#f4f4ff"><td align="center"><font size="2">84</font></td><td><b><font size="2"><a href="/movies/?id=texaschainsaw3d.htm">Texas Chainsaw 3D</a></font></b></td><td><font size="2">LGF</font></td><td align="right"><font size="2"><b>$34,341,945</b></font></td><td align="right"><font size="2">2,659</font></td><td align="right"><font size="2">$21,744,470</font></td><td align="right"><font size="2">2,654</font></td><td align="right"><font size="2"><a href="/schedule/?view=bydate&release=theatrical&date=2013-01-04&p=.htm">1/4</a></font></td><td align="right"><font size="2">2/28</font></td></tr><tr bgcolor="#ffffff"><td align="center"><font size="2">85</font></td><td><b><font size="2"><a href="/movies/?id=ripd.htm">R.I.P.D.</a></font></b></td><td><font size="2">Uni.</font></td><td align="right"><font size="2"><b>$33,618,855</b></font></td><td align="right"><font size="2">2,852</font></td><td align="right"><font size="2">$12,691,415</font></td><td align="right"><font size="2">2,852</font></td><td align="right"><font size="2"><a href="/schedule/?view=bydate&release=theatrical&date=2013-07-19&p=.htm">7/19</a></font></td><td align="right"><font size="2">9/26</font></td></tr><tr bgcolor="#f4f4ff"><td align="center"><font size="2">86</font></td><td><b><font size="2"><a href="/movies/?id=bluejasmine.htm">Blue Jasmine</a></font></b></td><td><font size="2">SPC</font></td><td align="right"><font size="2"><b>$33,405,481</b></font></td><td align="right"><font size="2">1,283</font></td><td align="right"><font size="2">$612,064</font></td><td align="right"><font size="2">6</font></td><td align="right"><font size="2"><a href="/schedule/?view=bydate&release=theatrical&date=2013-07-26&p=.htm">7/26</a></font></td><td align="right"><font size="2">4/3</font></td></tr><tr bgcolor="#ffffff"><td align="center"><font size="2">87</font></td><td><b><font size="2"><a href="/movies/?id=kevinhart2013.htm">Kevin Hart: Let Me Explain</a></font></b></td><td><font size="2">LG/S</font></td><td align="right"><font size="2"><b>$32,244,051</b></font></td><td align="right"><font size="2">892</font></td><td align="right"><font size="2">$10,030,463</font></td><td align="right"><font size="2">876</font></td><td align="right"><font size="2"><a href="/schedule/?view=bydate&release=theatrical&date=2013-07-03&p=.htm">7/3</a></font></td><td align="right"><font size="2">8/22</font></td></tr><tr bgcolor="#f4f4ff"><td align="center"><font size="2">88</font></td><td><b><font size="2"><a href="/movies/?id=bitterpill.htm">Side Effects (2013)</a></font></b></td><td><font size="2">ORF</font></td><td align="right"><font size="2"><b>$32,172,757</b></font></td><td align="right"><font size="2">2,605</font></td><td align="right"><font size="2">$9,303,145</font></td><td align="right"><font size="2">2,605</font></td><td align="right"><font size="2"><a href="/schedule/?view=bydate&release=theatrical&date=2013-02-08&p=.htm">2/8</a></font></td><td align="right"><font size="2">5/16</font></td></tr><tr bgcolor="#ffffff"><td align="center"><font size="2">89</font></td><td><b><font size="2"><a href="/movies/?id=scarymovie5.htm">Scary Movie 5</a></font></b></td><td><font size="2">W/Dim.</font></td><td align="right"><font size="2"><b>$32,015,787</b></font></td><td align="right"><font size="2">3,402</font></td><td align="right"><font size="2">$14,157,367</font></td><td align="right"><font size="2">3,402</font></td><td align="right"><font size="2"><a href="/schedule/?view=bydate&release=theatrical&date=2013-04-12&p=.htm">4/12</a></font></td><td align="right"><font size="2">7/25</font></td></tr><tr bgcolor="#f4f4ff"><td align="center"><font size="2">90</font></td><td><b><font size="2"><a href="/movies/?id=mortalinstruments.htm">The Mortal Instruments: City of Bones</a></font></b></td><td><font size="2">SGem</font></td><td align="right"><font size="2"><b>$31,165,421</b></font></td><td align="right"><font size="2">3,118</font></td><td align="right"><font size="2">$9,336,957</font></td><td align="right"><font size="2">3,118</font></td><td align="right"><font size="2"><a href="/schedule/?view=bydate&release=theatrical&date=2013-08-21&p=.htm">8/21</a></font></td><td align="right"><font size="2">10/6</font></td></tr><tr bgcolor="#ffffff"><td align="center"><font size="2">91</font></td><td><b><font size="2"><a href="/movies/?id=deliveryman.htm">Delivery Man</a></font></b></td><td><font size="2">BV</font></td><td align="right"><font size="2"><b>$30,664,106</b></font></td><td align="right"><font size="2">3,036</font></td><td align="right"><font size="2">$7,944,977</font></td><td align="right"><font size="2">3,036</font></td><td align="right"><font size="2"><a href="/schedule/?view=bydate&release=theatrical&date=2013-11-22&p=.htm">11/22</a></font></td><td align="right"><font size="2">3/20</font></td></tr><tr bgcolor="#f4f4ff"><td align="center"><font size="2">92</font></td><td><b><font size="2"><a href="/movies/?id=grudgematch.htm">Grudge Match</a></font></b></td><td><font size="2">WB</font></td><td align="right"><font size="2"><b>$29,807,260</b></font></td><td align="right"><font size="2">2,856</font></td><td align="right"><font size="2">$7,021,993</font></td><td align="right"><font size="2">2,838</font></td><td align="right"><font size="2"><a href="/schedule/?view=bydate&release=theatrical&date=2013-12-25&p=.htm">12/25</a></font></td><td align="right"><font size="2">3/13</font></td></tr><tr bgcolor="#ffffff"><td align="center"><font size="2">93</font></td><td><b><font size="2"><a href="/movies/?id=onedirection.htm">One Direction: This is Us</a></font></b></td><td><font size="2">TriS</font></td><td align="right"><font size="2"><b>$28,873,374</b></font></td><td align="right"><font size="2">2,735</font></td><td align="right"><font size="2">$15,815,497</font></td><td align="right"><font size="2">2,735</font></td><td align="right"><font size="2"><a href="/schedule/?view=bydate&release=theatrical&date=2013-08-30&p=.htm">8/30</a></font></td><td align="right"><font size="2">10/6</font></td></tr><tr bgcolor="#f4f4ff"><td align="center"><font size="2">94</font></td><td><b><font size="2"><a href="/movies/?id=kickass2.htm">Kick-Ass 2</a></font></b></td><td><font size="2">Uni.</font></td><td align="right"><font size="2"><b>$28,795,985</b></font></td><td align="right"><font size="2">2,945</font></td><td align="right"><font size="2">$13,332,955</font></td><td align="right"><font size="2">2,940</font></td><td align="right"><font size="2"><a href="/schedule/?view=bydate&release=theatrical&date=2013-08-16&p=.htm">8/16</a></font></td><td align="right"><font size="2">9/26</font></td></tr><tr bgcolor="#ffffff"><td align="center"><font size="2">95</font></td><td><b><font size="2"><a href="/movies/?id=dallasbuyersclub.htm">Dallas Buyers Club</a></font></b></td><td><font size="2">Focus</font></td><td align="right"><font size="2"><b>$27,298,285</b></font></td><td align="right"><font size="2">1,110</font></td><td align="right"><font size="2">$260,865</font></td><td align="right"><font size="2">9</font></td><td align="right"><font size="2"><a href="/schedule/?view=bydate&release=theatrical&date=2013-11-01&p=.htm">11/1</a></font></td><td align="right"><font size="2">5/1</font></td></tr><tr bgcolor="#f4f4ff"><td align="center"><font size="2">96</font></td><td><b><font size="2"><a href="/movies/?id=rush2013.htm">Rush (2013)</a></font></b></td><td><font size="2">Uni.</font></td><td align="right"><font size="2"><b>$26,947,624</b></font></td><td align="right"><font size="2">2,308</font></td><td align="right"><font size="2">$187,289</font></td><td align="right"><font size="2">5</font></td><td align="right"><font size="2"><a href="/schedule/?view=bydate&release=theatrical&date=2013-09-20&p=.htm">9/20</a></font></td><td align="right"><font size="2">11/21</font></td></tr><tr bgcolor="#ffffff"><td align="center"><font size="2">97</font></td><td><b><font size="2"><a href="/movies/?id=host2013.htm">The Host (2013)</a></font></b></td><td><font size="2">ORF</font></td><td align="right"><font size="2"><b>$26,627,201</b></font></td><td align="right"><font size="2">3,202</font></td><td align="right"><font size="2">$10,600,112</font></td><td align="right"><font size="2">3,202</font></td><td align="right"><font size="2"><a href="/schedule/?view=bydate&release=theatrical&date=2013-03-29&p=.htm">3/29</a></font></td><td align="right"><font size="2">5/30</font></td></tr><tr bgcolor="#f4f4ff"><td align="center"><font size="2">98</font></td><td><b><font size="2"><a href="/movies/?id=worldsend.htm">The World\'s End</a></font></b></td><td><font size="2">Focus</font></td><td align="right"><font size="2"><b>$26,004,851</b></font></td><td align="right"><font size="2">1,553</font></td><td align="right"><font size="2">$8,811,790</font></td><td align="right"><font size="2">1,551</font></td><td align="right"><font size="2"><a href="/schedule/?view=bydate&release=theatrical&date=2013-08-23&p=.htm">8/23</a></font></td><td align="right"><font size="2">12/5</font></td></tr><tr bgcolor="#ffffff"><td align="center"><font size="2">99</font></td><td><b><font size="2"><a href="/movies/?id=21andover.htm">21 and Over</a></font></b></td><td><font size="2">Rela.</font></td><td align="right"><font size="2"><b>$25,682,380</b></font></td><td align="right"><font size="2">2,771</font></td><td align="right"><font size="2">$8,754,168</font></td><td align="right"><font size="2">2,771</font></td><td align="right"><font size="2"><a href="/schedule/?view=bydate&release=theatrical&date=2013-03-01&p=.htm">3/1</a></font></td><td align="right"><font size="2">5/16</font></td></tr><tr bgcolor="#f4f4ff"><td align="center"><font size="2">100</font></td><td><b><font size="2"><a href="/movies/?id=her2013.htm">Her (2013)</a></font></b></td><td><font size="2">WB</font></td><td align="right"><font size="2"><b>$25,568,251</b></font></td><td align="right"><font size="2">1,729</font></td><td align="right"><font size="2">$260,382</font></td><td align="right"><font size="2">6</font></td><td align="right"><font size="2"><a href="/schedule/?view=bydate&release=theatrical&date=2013-12-18&p=.htm">12/18</a></font></td><td align="right"><font size="2">4/17</font></td></tr><tr bgcolor="#dcdcdc"><td colspan="9" align="center"><font size="2"><b>Summary of 687 Movies on Chart:</b></font></td></tr><tr bgcolor="#f4f4ff"><td align="right" colspan="3"><font size="2"><b>Totals:</b></td><td align="right"><font size="2">$10,952,894,526</font></td><td align="center"><font size="2">-</font></td><td align="center"><font size="2">-</font></td><td align="center"><font size="2">-</font></td><td align="center"><font size="2">-</font></td><td align="center"><font size="2">-</font></td></tr><tr bgcolor="#ffffff"><td align="right" colspan="3"><font size="2"><b>Averages:</b></td><td align="right"><font size="2">$15,943,078</font></td><td align="right"><font size="2">-</font></td><td align="right"><font size="2">-</font></td><td align="right"><font size="2">-</font></td><td align="center"><font size="2">-</font></td><td align="center"><font size="2">-</font></td></tr><tr bgcolor="#dcdcdc"><td colspan="9"><img src="/images/space.gif" width="1" height="1"></td></tr></table></td></tr><tr><td valign="bottom"><font face="Verdana" size="1"><b><a href="/yearly/chart/?yr=2012&view=releasedate&view2=domestic&sort=gross&order=DESC&&p=.htm">&lt; Previous Year</a></b></font></td><td align="center"><table border="0" cellspacing="0" cellpadding="0">\n\t\t\t\t\t<form method="POST" action="yearly.asof.php" name="asofjump">\n\t\t\t\t\t<tr><td><font face="Verdana" size="1"><br>Data as of:\n\t\t\t\t\t<select size="1" name="asof" style="font-size: 8pt">\n\t\t\t\t\t<option selected value="today">Today</option>\n\t\t\t\t\t<option  value="sametime">Today in 2013</option>\n\t\t\t\t\t<option value="2013-01-31">Jan. 31, 2013</option>\n\t\t\t\t\t<option value="2013-02-28">Feb. 28, 2013</option>\n\t\t\t\t\t<option value="2013-03-31">Mar. 31, 2013</option>\n\t\t\t\t\t<option value="2013-04-30">Apr. 30, 2013</option>\n\t\t\t\t\t<option value="2013-05-31">May 31, 2013</option>\n\t\t\t\t\t<option value="2013-06-30">Jun. 30, 2013</option>\n\t\t\t\t\t<option value="2013-07-31">Jul. 31, 2013</option>\n\t\t\t\t\t<option value="2013-08-31">Aug. 31, 2013</option>\n\t\t\t\t\t<option value="2013-09-30">Sep. 30, 2013</option>\n\t\t\t\t\t<option value="2013-10-31">Oct. 31, 2013</option>\n\t\t\t\t\t<option value="2013-11-30">Nov. 30, 2013</option>\n\t\t\t\t\t<option value="2013-12-31">Dec. 31, 2013</option>\n\t\t\t\t\t<option value="specify">Specify Date</option>\n\t\t\t\t\t<option value="about">About this feature</option>\n\t\t\t\t\t</select> or (<select size="1" name="asof_mo" style="font-size: 8pt">\n\t\t\t\t\t<option selected value="">Month</option>\n\t\t\t\t\t\n\t\t\t\t\t<option value="01">Jan.</option>\n\t\t\t\t\t<option value="02">Feb.</option>\n\t\t\t\t\t<option value="03">Mar.</option>\n\t\t\t\t\t<option value="04">Apr.</option>\n\t\t\t\t\t<option value="05">May</option>\n\t\t\t\t\t<option value="06">Jun.</option>\n\t\t\t\t\t<option value="07">Jul.</option>\n\t\t\t\t\t<option value="08">Aug.</option>\n\t\t\t\t\t<option value="09">Sep.</option>\n\t\t\t\t\t<option value="10">Oct.</option>\n\t\t\t\t\t<option value="11">Nov.</option>\n\t\t\t\t\t<option value="12">Dec.</option>\n\t\t\t\t\t</select> / <select size="1" name="asof_day" style="font-size: 8pt">\n\t\t\t\t\t<option selected value="">Day</option>\n\t\t\t\t\t<option value="01">1</option>\n\t\t\t\t\t<option value="02">2</option>\n\t\t\t\t\t<option value="03">3</option>\n\t\t\t\t\t<option value="04">4</option>\n\t\t\t\t\t<option value="05">5</option>\n\t\t\t\t\t<option value="06">6</option>\n\t\t\t\t\t<option value="07">7</option>\n\t\t\t\t\t<option value="08">8</option>\n\t\t\t\t\t<option value="09">9</option>\n\t\t\t\t\t<option value="10">10</option>\n\t\t\t\t\t<option value="11">11</option>\n\t\t\t\t\t<option value="12">12</option>\n\t\t\t\t\t<option value="13">13</option>\n\t\t\t\t\t<option value="14">14</option>\n\t\t\t\t\t<option value="15">15</option>\n\t\t\t\t\t<option value="16">16</option>\n\t\t\t\t\t<option value="17">17</option>\n\t\t\t\t\t<option value="18">18</option>\n\t\t\t\t\t<option value="19">19</option>\n\t\t\t\t\t<option value="20">20</option>\n\t\t\t\t\t<option value="21">21</option>\n\t\t\t\t\t<option value="22">22</option>\n\t\t\t\t\t<option value="23">23</option>\n\t\t\t\t\t<option value="24">24</option>\n\t\t\t\t\t<option value="25">25</option>\n\t\t\t\t\t<option value="26">26</option>\n\t\t\t\t\t<option value="27">27</option>\n\t\t\t\t\t<option value="28">28</option>\n\t\t\t\t\t<option value="29">29</option>\n\t\t\t\t\t<option value="30">30</option>\n\t\t\t\t\t<option value="31">31</option>\n\t\t\t\t\t</select> / <select size="1" name="asof_yr" style="font-size: 8pt">\n\t\t\t\t\t\t<option selected>2013</option>\n\t\t\t\t\t\t<option>2014</option>\n\t\t\t\t\t\t</select>) <input type="submit" value="Go" name="go" style="font-size: 8pt; height: 16">\n\t\t\t\t\t</font></td></tr>\n\t\t\t\t\t<input type="hidden" name="jumpstuff" value="view=releasedate&view2=domestic&yr=2013&sort=gross&order=DESC&p=.htm">\n\t\t\t\t\t<input type="hidden" name="curasof" value="today">\n\t\t\t\t\t<input type="hidden" name="yr" value="2013">\n\t\t\t\t\t</form>\n\t\t\t\t\t</table>\n\t\t\t\t</font></td><td valign="bottom" align="right"><font face="Verdana" size="1"><b><a href="/yearly/chart/?yr=2014&view=releasedate&view2=domestic&sort=gross&order=DESC&&p=.htm">Next Year &gt;</a></b></font></td></tr></table><center><font face="Verdana" size="4"><b><font face="Verdana" size="5">#1&#150;100</font> - <a href="/yearly/chart/?page=2&view=releasedate&view2=domestic&yr=2013&p=.htm">#101&#150;200</a> - <a href="/yearly/chart/?page=3&view=releasedate&view2=domestic&yr=2013&p=.htm">#201&#150;300</a> - <a href="/yearly/chart/?page=4&view=releasedate&view2=domestic&yr=2013&p=.htm">#301&#150;400</a> - <a href="/yearly/chart/?page=5&view=releasedate&view2=domestic&yr=2013&p=.htm">#401&#150;500</a> - <a href="/yearly/chart/?page=6&view=releasedate&view2=domestic&yr=2013&p=.htm">#501&#150;600</a> - <a href="/yearly/chart/?page=7&view=releasedate&view2=domestic&yr=2013&p=.htm">#601&#150;687</a></b></font></center><br><font face="Verdana" size="2">Note: <b>RELEASE DATE</b> shows all movies that opened in a given time period and their total grosses. <b>WIDE RELEASES</b> shows only movies released in 600 or more theaters and their total grosses, grouped by wide release date. <b>LIMITED RELEASES</b> shows only movies released in less than 600 theaters and their total grosses, grouped by release date. <b>CALENDAR GROSSES</b> shows all movies playing during the indicated time period, both new and holdover, and their grosses (or estimated grosses) during that time period. Movies released outside the indicated time period are shown in italics. <b><a href="/about/boxoffice.htm">Click here for a full explanation of the various box office sections</a></b></font><br><br>\n<P ALIGN="CENTER"><A HREF="/yearly/"><FONT FACE="Verdana" SIZE=2><b>back to<br>Yearly Index Page</b></FONT></A></P>\n<br>\n</td><td valign="top" align="center" width="160"><br><br><br><br><br><br><!-- begin ad tag (tile=2) -->\r\n<script type="text/javascript">\r\n//<![CDATA[\r\nord=138168414;\r\ndocument.write(\'<iframe src="http://ad.doubleclick.net/N4215/adi/imdb2.bom.other/;p=rh;tile=2;sz=160x600,120x600,115x600;oe=ISO-8859-1;ord=\' + ord + \'?" width="160" height="600" marginwidth="0" marginheight="0" frameborder="0" scrolling="no">\');\r\n\r\nif (navigator.userAgent.indexOf("Gecko")==-1)\r\n{\r\ndocument.write(\'<script type="text/javascript" src="http://ad.doubleclick.net/N4215/adj/imdb2.bom.other/;p=rh;tile=2;sz=160x600,115x600;abr=!ie;oe=ISO-8859-1;ord=\' + ord + \'?"><\\/script>\');\r\n}\r\ndocument.write(\'</iframe>\');\r\n//]]>\r\n</script>\r\n<noscript><a href="http://ad.doubleclick.net/N4215/jump/imdb2.bom.other/;p=rh;tile=2;sz=160x600;oe=ISO-8859-1;ord=138168414?" target="_blank" ><img src="http://ad.doubleclick.net/N4215/ad/imdb2.bom.other/;p=rh;tile=2;sz=160x600,115x600;oe=ISO-8859-1;ord=138168414?" border="0" alt="" /></a></noscript>\r\n<!-- end ad tag --></td></tr></table><table border="0" width="100%" cellspacing="0" cellpadding="3">\n\t<tr>\n\t\t<td bgcolor="#FFFFFF" align="center"><b><font face="Verdana" size="1"><a href="/yearly/chart/?view=releasedate&view2=domestic&yr=2013&p=.htm">ALL RELEASES</a></font></b></td>\n\t\t<td bgcolor="#DCDCDC" align="center"><b><font face="Verdana" size="1"><a href="/yearly/chart/?view=widedate&view2=domestic&yr=2013&p=.htm">WIDE RELEASES</font></b></td>\n\t\t<td bgcolor="#DCDCDC" align="center"><b><font face="Verdana" size="1"><a href="/yearly/chart/?view=limited&view2=domestic&yr=2013&p=.htm">LIMITED RELEASES</font></b></td>\n\t\t\t\t<td bgcolor="#DCDCDC" align="center"><b><font face="Verdana" size="1"><a href="/yearly/chart/?view=calendargross&view2=domestic&yr=2013&p=.htm">CALENDAR GROSSES</font></b></td>\n\t\t\t</tr>\n</table>\n<table border="0" cellspacing="0" cellpadding="0" width="100%">\n  <tr><td bgcolor="#8b0000" height="1" colspan="2"><img src="/images/space.gif" border="0" width="1" height="5"></td></tr>\n</table>\n\n</td></tr></table>\n\n\t</div>\n\t</div>\n\t<div id="hp_footer">\n\t\t<div style="padding-bottom: 20px;">\n\n\t\t\t<div style="margin: 0px 121px; vertical-align: top;">\n\t\t\t\t<div id="footer_links">\n\t\t\t\t\t<ul class="footer_link_list">\n\t\t\t\t\t\t<li><strong>Latest Updates</strong></li>\n\t\t\t\t\t\t<li><a href="/news/?ref=ft">Movie News</a>\n\t\t\t\t\t\t<li><a href="/daily/chart/?ref=ft">Daily Chart</a></li>\n\t\t\t\t\t\t<li><a href="/weekend/chart/?ref=ft">Weekend Chart</a></li>\n\t\t\t\t\t\t<li><a href="/alltime/?ref=ft">All Time Charts</a></li>\n\t\t\t\t\t\t<li><a href="/intl/?ref=ft">International Charts</a></li>\n\t\t\t\t\t</ul>\n\t\t\t\t\t<!--\n\t\t\t\t\t<ul class="footer_link_list">\n\t\t\t\t\t\t<li><strong>Popular Movies</strong></li>\n\t\t\t\t\t\t\t\t\t\t\t</ul>\n\t\t\t\t\t-->\n\t\t\t\t\t<ul class="footer_link_list">\n\t\t\t\t\t\t<li><strong>Indices</strong></li>\n\t\t\t\t\t\t<li><a href="/movies/?ref=ft">Movies A-Z</a></li>\n\t\t\t\t\t\t<li><a href="/people/?ref=ft">People</a></li>\n\t\t\t\t\t\t<li><a href="/genres/?ref=ft">Genres</a></li>\n\t\t\t\t\t\t<li><a href="/franchises/?ref=ft">Franchises</a></li>\n\t\t\t\t\t\t<li><a href="/showdowns/?ref=ft">Showdowns</a></li>\n\t\t\t\t\t</ul>\n\t\t\t\t\t<ul class="footer_link_list">\n\t\t\t\t\t\t<li><strong>Other</strong></li>\n\t\t\t\t\t\t<li><a href="/about/?ref=ft">About This Site</a></li>\n\t\t\t\t\t\t<li><a href="/about/advertise.htm?ref=ft">Advertising</a></li>\n\t\t\t\t\t\t<li><a href="/users/?ref=ft">My Account</a></li>\n\t\t\t\t\t\t<li><a href="/about/rss.htm?ref=ft">RSS Feeds</a></li>\n\t\t\t\t\t</ul>\n\t\t\t\t</div>\n\t\t\t\t<div id="copyright">\n\t\t\t\t\t<a href="/?ref=ft"><img src="/img/misc/bom_logo1.png" width="245" height="56" alt="Box Office Mojo"></a><br>\n\t\t\t\t\t<p>An <a href="http://imdb.com/"><img src="/img/misc/IMDbSm.png" width="34" height="16" alt="IMDb" valign="middle"></a> company<br><br></p>\n\t\t\t\t\t<p>&copy; <a href="http://imdb.com/">IMDb.com</a>, Inc. or its affiliates. All rights reserved. Box Office Mojo and IMDb are trademarks or registered trademarks of IMDb.com, Inc. or its affiliates. <a href="/about/termsofuse.htm">Terms of Use</a> and <a href="/about/privacy.htm">Privacy Policy</a> under which this service is provided to you.</p>\n\t\t\t\t\t</div>\t\t\t\n\t\t\t\t</div>\n\t\t\t\t<div style="clear:both;">\n\t\t\t\t<div>\n\t\t\t\t <!-- begin ad tag (tile=6) -->\r\n<script type="text/javascript">\r\n//<![CDATA[\r\nord=138168414;\r\ndocument.write(\'<iframe src="http://ad.doubleclick.net/N4215/adi/imdb2.bom.other/;p=b;tile=3;sz=728x90;oe=ISO-8859-1;ord=\' + ord + \'?" width="728" height="90" marginwidth="0" marginheight="0" frameborder="0" scrolling="no">\');\r\n\r\nif (navigator.userAgent.indexOf("Gecko")==-1)\r\n{\r\ndocument.write(\'<script type="text/javascript" src="http://ad.doubleclick.net/N4215/adj/imdb2.bom.other/;p=b;tile=3;sz=728x90;abr=!ie;oe=ISO-8859-1;ord=\' + ord + \'?"><\\/script>\');\r\n}\r\ndocument.write(\'<\\/iframe>\');\r\n//]]>\r\n</script>\r\n<noscript><a href="http://ad.doubleclick.net/N4215/jump/imdb2.bom.other/;p=b;tile=3;sz=728x90;oe=ISO-8859-1;ord=138168414?" target="_blank" ><img src="http://ad.doubleclick.net/N4215/ad/imdb2.bom.other/;p=b;tile=3;sz=728x90;oe=ISO-8859-1;ord=138168414?" border="0" alt="" ></a></noscript>\r\n<!-- end ad tag --></div>\n\n\t\t\t\t</div>\n\t</div>\n</div>\n\n\n\n\n\n<!-- Page generated in 0.08 seconds | . -->\n<script>\n  var _comscore = _comscore || [];\n  _comscore.push({ c1: "2", c2: "6034961" });\n  (function() {\n    var s = document.createElement("script"), el = document.getElementsByTagName("script")[0]; s.async = true;\n    s.src = (document.location.protocol == "https:" ? "https://sb" : "http://b") + ".scorecardresearch.com/beacon.js";\n  el.parentNode.insertBefore(s, el);\n  })();\n</script>\n<noscript>\n    <img src="http://b.scorecardresearch.com/p?c1=2&c2=6034961&cv=2.0&cj=1" />\n</noscript>\n\n</body>\n</html>\n'
p30
sS'encoding'
p31
S'ISO-8859-1'
p32
sS'url'
p33
Vhttp://www.boxofficemojo.com/yearly/chart/?yr=2013&view=releasedate&view2=domestic&sort=gross&order=DESC&&p=.htm
p34
sS'status_code'
p35
I200
sS'request'
p36
g0
(crequests.models
PreparedRequest
p37
g2
Ntp38
Rp39
(dp40
S'body'
p41
Nsg33
S'http://www.boxofficemojo.com/yearly/chart/?yr=2013&view=releasedate&view2=domestic&sort=gross&order=DESC&&p=.htm'
p42
sS'hooks'
p43
(dp44
S'response'
p45
(lp46
ssS'headers'
p47
g0
(crequests.structures
CaseInsensitiveDict
p48
g2
Ntp49
Rp50
(dp51
S'_store'
p52
(dp53
S'connection'
p54
(S'Connection'
p55
S'keep-alive'
p56
tp57
sS'accept-encoding'
p58
(S'Accept-Encoding'
p59
S'gzip, deflate'
p60
tp61
sS'accept'
p62
(S'Accept'
p63
S'*/*'
p64
tp65
sS'user-agent'
p66
(S'User-Agent'
p67
S'python-requests/2.7.0 CPython/2.7.10 Darwin/14.5.0'
p68
tp69
ssbsg27
g0
(g7
g2
Ntp70
Rp71
(dp72
g11
I1444064890
sg12
(icookielib
DefaultCookiePolicy
p73
(dp74
g15
I01
sg16
I0
sg17
Nsg18
Nsg19
I00
sg20
I00
sg11
I1444064890
sg21
I00
sg22
I00
sg23
I00
sg24
I00
sg25
(tsg26
I01
sbsg27
(dp75
sbsS'method'
p76
S'GET'
p77
sbsS'elapsed'
p78
cdatetime
timedelta
p79
(I0
I0
I547389
tp80
Rp81
sg47
g0
(g48
g2
Ntp82
Rp83
(dp84
g52
(dp85
S'content-length'
p86
(S'content-length'
p87
S'18738'
p88
tp89
sS'x-xss-protection'
p90
(S'x-xss-protection'
p91
S'1; mode=block'
p92
tp93
sS'x-content-type-options'
p94
(S'x-content-type-options'
p95
S'nosniff'
p96
tp97
sS'content-encoding'
p98
(S'content-encoding'
p99
S'gzip'
p100
tp101
sS'expires'
p102
(S'expires'
p103
S'Thu, 19 Nov 1981 08:52:00 GMT'
p104
tp105
sS'server'
p106
(S'server'
p107
S'Server'
p108
tp109
sS'connection'
p110
(S'connection'
p111
S'keep-alive'
p112
tp113
sS'x-permitted-cross-domain-policies'
p114
(S'x-permitted-cross-domain-policies'
p115
S'master-only'
p116
tp117
sS'pragma'
p118
(S'pragma'
p119
S'no-cache'
p120
tp121
sS'cache-control'
p122
(S'cache-control'
p123
S'no-store, no-cache, must-revalidate, post-check=0, pre-check=0'
p124
tp125
sS'date'
p126
(S'date'
p127
S'Mon, 05 Oct 2015 17:11:07 GMT'
p128
tp129
sS'x-frame-options'
p130
(S'x-frame-options'
p131
S'SAMEORIGIN'
p132
tp133
sS'content-type'
p134
(S'content-type'
p135
S'text/html'
p136
tp137
ssbsS'reason'
p138
S'OK'
p139
sS'history'
p140
(lp141
sb.