ccopy_reg
_reconstructor
p0
(crequests.models
Response
p1
c__builtin__
object
p2
Ntp3
Rp4
(dp5
S'cookies'
p6
g0
(crequests.cookies
RequestsCookieJar
p7
g2
Ntp8
Rp9
(dp10
S'_now'
p11
I1444069025
sS'_policy'
p12
(icookielib
DefaultCookiePolicy
p13
(dp14
S'strict_rfc2965_unverifiable'
p15
I01
sS'strict_ns_domain'
p16
I0
sS'_allowed_domains'
p17
NsS'rfc2109_as_netscape'
p18
NsS'rfc2965'
p19
I00
sS'strict_domain'
p20
I00
sg11
I1444069025
sS'strict_ns_set_path'
p21
I00
sS'strict_ns_unverifiable'
p22
I00
sS'strict_ns_set_initial_dollar'
p23
I00
sS'hide_cookie2'
p24
I00
sS'_blocked_domains'
p25
(tsS'netscape'
p26
I01
sbsS'_cookies'
p27
(dp28
sbsS'_content'
p29
S'<!DOCTYPE html PUBLIC "-//W3C//DTD HTML 4.01 Transitional//EN" "http://www.w3.org/TR/html4/loose.dtd">\n<html lang="en">\n<HEAD>\n<TITLE>2011 Yearly Box Office Results - Box Office Mojo</TITLE>\n<META NAME="keywords" CONTENT="2011, year, yearly, box, office, result, list, movie, movies, listing, listings, top movies, all time, film">\n<META NAME="description" CONTENT="Yearly box office results for 2011.">\n<link rel="stylesheet" href="/css/mojo.css?1" type="text/css" media="screen" title="no title" charset="utf-8">\n<link rel="stylesheet" href="/css/mojo.css?1" type="text/css" media="print" title="no title" charset="utf-8"></head>\n<body>\n\t<iframe id="sis_pixel_sitewide" width="1" height="1" frameborder="0" marginwidth="0" marginheight="0" style="display: none;"></iframe>\n<script>\n    setTimeout(function(){\n        try{\n            //sis3.0 pixel\n            var cacheBust = Math.random() * 10000000000000000,\n                url_sis3 = \'http://s.amazon-adsystem.com/iu3?\',\n                params_sis3 = [\n                    "d=boxofficemojo.com",\n                    "cb=" + cacheBust\n                ];\n\n            (document.getElementById(\'sis_pixel_sitewide\')).src = url_sis3 + params_sis3.join(\'&\');\n        }catch(e){\n            if (window.ueLogError) { \n                window.ueLogError(e);\n            }\n        }\n    }, 5);\n</script>\n\n<div id="container">\n<div>\n<!-- GOOGLE ANALYTICS CODE STARTS -->\n<script type="text/javascript">\n\n  var _gaq = _gaq || [];\n  _gaq.push([\'_setAccount\', \'UA-2831726-1\']);\n  _gaq.push([\'_trackPageview\']);\n\n  (function() {\n    var ga = document.createElement(\'script\'); ga.type = \'text/javascript\'; ga.async = true;\n    ga.src = (\'https:\' == document.location.protocol ? \'https://ssl\' : \'http://www\') + \'.google-analytics.com/ga.js\';\n    (document.getElementsByTagName(\'head\')[0] || document.getElementsByTagName(\'body\')[0]).appendChild(ga);\n  })();\n\n</script>\n<!-- GOOGLE ANALYTICS CODE ENDS -->\n\t<div id="hp_banner">\n\t<div id="top_links">\n\t\t<div style="float: left"><a href="/daily/chart/">Daily Box Office (Sun.)</a> | <a href="/weekend/chart/">Weekend Box Office (Oct. 2&ndash;4)</a> | <a href="/movies/?id=scott2016.htm">#1 Movie: \'The Martian\'</a> | <a href="http://www.imdb.com/showtimes/?ref_=mojo">Showtimes</a></div>\n\t\t<div style="float: right">Updated 10/4/2015 7:11 P.M. Pacific Time</div>\n\t\t<div style="clear:both; height: 0px"></div>\n\t</div>\n</div>\n\t\t\n<div id="header">\n\t<div id="leaderboard"><!-- begin ad tag (tile=1) -->\r\n<script type="text/javascript">\r\n//<![CDATA[\r\nord=2052247139;\r\ndocument.write(\'<iframe src="http://ad.doubleclick.net/N4215/adi/imdb2.bom.other/;p=t;tile=1;sz=728x90;oe=ISO-8859-1;ord=\' + ord + \'?" width="728" height="90" marginwidth="0" marginheight="0" frameborder="0" scrolling="no">\');\r\n\r\nif (navigator.userAgent.indexOf("Gecko")==-1)\r\n{\r\ndocument.write(\'<script type="text/javascript" src="http://ad.doubleclick.net/N4215/adj/imdb2.bom.other/;p=t;tile=1;sz=728x90;abr=!ie;oe=ISO-8859-1;ord=\' + ord + \'?"><\\/script>\');\r\n}\r\ndocument.write(\'<\\/iframe>\');\r\n//]]>\r\n</script>\r\n<noscript><a href="http://ad.doubleclick.net/N4215/jump/imdb2.bom.other/;p=t;tile=1;sz=728x90;oe=ISO-8859-1;ord=2052247139?" target="_blank" ><img src="http://ad.doubleclick.net/N4215/ad/imdb2.bom.other/;p=t;tile=1;sz=728x90;oe=ISO-8859-1;ord=2052247139?" border="0" alt="" ></a></noscript>\r\n<!-- end ad tag --></div>\t<div id="hp_logo"><a href="/"><img src="/img/misc/bom_logo1.png" width="245" height="56" alt="Box Office Mojo"></a></div>\n\t<div style="clear:both; height: 0px"></div>\n</div>\n\n\n</div>\n\n\n<div id="main">\n<!-- COLUMN 1 of 4 -->\n\t<div id="leftnav">\n<!-- google_ad_section_start(weight=ignore) -->\n<!-- <table id="navleft" cellspacing="0" cellpadding="2" border="0"> -->\n<ul id="leftnav">\n<li class="nl_section">Search Site</li>\n<li class="nl_link" style="padding-left:0px">\n\t<form name="searchbox" method="POST" action="/search/q.php">\n\t<input name="q"  type="text" style="font-size: 9 pt; font-weight: bold; width: 90px;"><br>\n\t<input type="submit" value="Search..." ></form> \n</li>\n<li class=\'nl_section\'>Social</li>\n<li class="nl_link"><a href="http://facebook.com/boxofficemojo" style="vertical-align:middle;"><img src="/images/FaceBook_16x16.png" border="0" alt="Facebook Logo">Facebook</a></li>\n<li class="nl_link"><a href="http://twitter.com/boxofficemojo" style="vertical-align:middle;"><img src="/images/Twitter_16x16.png" border="0" alt="Twitter Logo">Twitter</a></li>\n\n<li class=\'nl_section\'>Features</li>\n<li class=\'nl_link\'><a href="/news/">News</a></li>\n<li class=\'nl_link\'><a href="/schedule/">Release Sched.</a></li>\n<li class=\'nl_link\'><a href="http://www.imdb.com/showtimes?ref_=mojo">Showtimes<br/><span style="margin-left:7px;color: #999999; font-size: 9px;">at <img src="/images/mojo_imdb_sm.png"/></span></a></li>\n<li class=\'nl_section\'>Box Office</li>\n<li class=\'nl_link\'><a href="/daily/">Daily</a></li>\n<li class=\'nl_link\'><a href="/weekend/">Weekend</a></li>\n<li class=\'nl_link\'><a href="/weekly/">Weekly</a></li>\n<li class=\'nl_link\'><a href="/monthly/">Monthly</a></li>\n<li class=\'nl_link\'><a href="/quarterly/">Quarterly</a></li>\n<li class=\'nl_link\'><a href="/seasonal/">Seasonal</a></li>\n<li class=\'nl_link_current\'><a href="/yearly/">Yearly</a></li>\n<li class=\'nl_link\'><a href="/alltime/">All Time</a></li>\n<li class=\'nl_link\'><a href="/chartwatch/">Chart Watch</a></li>\n<li class=\'nl_link\'><a href="/intl/">International</a></li>\n<li class=\'nl_section\'>Indices</li>\n<li class=\'nl_link\'><a href="/movies/">Movies A-Z</a></li>\n<li class=\'nl_link\'><a href="/studio/">Studios</a></li>\n<li class=\'nl_link\'><a href="/people/">People</a></li>\n<li class=\'nl_link\'><a href="/genres/">Genres</a></li>\n<li class=\'nl_link\'><a href="/franchises/">Franchises</a></li>\n<li class=\'nl_link\'><a href="/showdowns/">Showdowns</a></li>\n<li class=\'nl_link\'><a href="/oscar/">Oscar</a></li>\n<li class=\'nl_link\'><a href="/counts/">Theater Counts</a></li>\n</ul>\n</div>\n\t<div id="body">\n\t<div id="addthis"><table border="0" cellspacing="0" cellpadding="0">\r\n<tr>\r\n<form method="POST" action="/adjuster.php" name="adjuster">\r\n<input type="hidden" name="returnURL" value="/yearly/chart/?yr=2011&amp;view=releasedate&amp;view2=domestic&amp;sort=gross&amp;order=DESC&amp;&amp;p=.htm">\r\n<td valign="center">\r\n  <font face="Verdana" size="2"><a href="/about/adjuster.htm"><b>Adjuster:</b></a></font>\r\n  <select size="1" name="ticketyr" style="font-family: Verdana; font-size: 10pt">\r\n  <option value="0" selected>Actuals</option>\r\n  <option value="1" >Est. Tckts</option>\r\n<script language="javascript">\r\n  for(i=2015; i>=1933; i--) {\r\n  \tdocument.write(\'<option value="\' + i + \'"\');\r\n\tif(i==\'0\') document.write(\' selected\');\r\n\tdocument.write(\'>\' + i );\r\n\tif(i==\'0\') document.write(\', $\' + \'0.00\');\r\n\tdocument.write(\'</option>\');\r\n  }\r\n</script>\r\n  <option value="1929" >1929</option>\r\n  <option value="1924" >1924</option>\r\n  <option value="1910" >1910</option>\r\n  </select><input type="submit" name="Go" value="Go" style="font-size: 10pt; height: 22">\r\n\r\n</td></form></tr></table>\r\n\r\n</div>\t\n\t<h2><a href="/yearly/">Yearly Box Office</a></h2>\n\n\t<table border="0" cellpadding="0" cellspacing="0" width="100%">\n\t\t<tr><td bgcolor="#8b0000" colspan="2"><img src="/images/space.gif" border="0" width="1" height="5"></td></tr>\n\t</table>\n\t\n<table border="0" width="100%" cellspacing="0" cellpadding="3">\n\t<tr>\n\t\t<td bgcolor="#FFFFFF" align="center"><b><font face="Verdana" size="1"><a href="/yearly/chart/?view=releasedate&view2=domestic&yr=2011&p=.htm">ALL RELEASES</a></font></b></td>\n\t\t<td bgcolor="#DCDCDC" align="center"><b><font face="Verdana" size="1"><a href="/yearly/chart/?view=widedate&view2=domestic&yr=2011&p=.htm">WIDE RELEASES</font></b></td>\n\t\t<td bgcolor="#DCDCDC" align="center"><b><font face="Verdana" size="1"><a href="/yearly/chart/?view=limited&view2=domestic&yr=2011&p=.htm">LIMITED RELEASES</font></b></td>\n\t\t\t\t<td bgcolor="#DCDCDC" align="center"><b><font face="Verdana" size="1"><a href="/yearly/chart/?view=calendargross&view2=domestic&yr=2011&p=.htm">CALENDAR GROSSES</font></b></td>\n\t\t\t</tr>\n</table>\n<table border="0" cellspacing="0" cellpadding="0" width="100%"><tr><td valign="top" align="center"><br>\n<h1>2011 DOMESTIC GROSSES</h1><p>Total Grosses of all Movies Released in 2011</h1></b></FONT></p>\n\n<center><font face="Verdana" size="4"><b><font face="Verdana" size="5">#1&#150;100</font> - <a href="/yearly/chart/?page=2&view=releasedate&view2=domestic&yr=2011&p=.htm">#101&#150;200</a> - <a href="/yearly/chart/?page=3&view=releasedate&view2=domestic&yr=2011&p=.htm">#201&#150;300</a> - <a href="/yearly/chart/?page=4&view=releasedate&view2=domestic&yr=2011&p=.htm">#301&#150;400</a> - <a href="/yearly/chart/?page=5&view=releasedate&view2=domestic&yr=2011&p=.htm">#401&#150;500</a> - <a href="/yearly/chart/?page=6&view=releasedate&view2=domestic&yr=2011&p=.htm">#501&#150;600</a> - <a href="/yearly/chart/?page=7&view=releasedate&view2=domestic&yr=2011&p=.htm">#601&#150;602</a></b></font></center><table border="0" cellspacing="0" cellpadding="0"><tr><td valign="bottom"><font face="Verdana" size="1"><b><a href="/yearly/chart/?yr=2010&view=releasedate&view2=domestic&sort=gross&order=DESC&&p=.htm">&lt; Previous Year</a></b></font></td><td align="center"><table border="0" cellspacing="0" cellpadding="0">\n\t\t\t\t\t<form method="POST" action="yearly.asof.php" name="asofjump">\n\t\t\t\t\t<tr><td><font face="Verdana" size="1"><br>Data as of:\n\t\t\t\t\t<select size="1" name="asof" style="font-size: 8pt">\n\t\t\t\t\t<option selected value="today">Today</option>\n\t\t\t\t\t<option  value="sametime">Today in 2011</option>\n\t\t\t\t\t<option value="2011-01-31">Jan. 31, 2011</option>\n\t\t\t\t\t<option value="2011-02-28">Feb. 28, 2011</option>\n\t\t\t\t\t<option value="2011-03-31">Mar. 31, 2011</option>\n\t\t\t\t\t<option value="2011-04-30">Apr. 30, 2011</option>\n\t\t\t\t\t<option value="2011-05-31">May 31, 2011</option>\n\t\t\t\t\t<option value="2011-06-30">Jun. 30, 2011</option>\n\t\t\t\t\t<option value="2011-07-31">Jul. 31, 2011</option>\n\t\t\t\t\t<option value="2011-08-31">Aug. 31, 2011</option>\n\t\t\t\t\t<option value="2011-09-30">Sep. 30, 2011</option>\n\t\t\t\t\t<option value="2011-10-31">Oct. 31, 2011</option>\n\t\t\t\t\t<option value="2011-11-30">Nov. 30, 2011</option>\n\t\t\t\t\t<option value="2011-12-31">Dec. 31, 2011</option>\n\t\t\t\t\t<option value="specify">Specify Date</option>\n\t\t\t\t\t<option value="about">About this feature</option>\n\t\t\t\t\t</select> or (<select size="1" name="asof_mo" style="font-size: 8pt">\n\t\t\t\t\t<option selected value="">Month</option>\n\t\t\t\t\t\n\t\t\t\t\t<option value="01">Jan.</option>\n\t\t\t\t\t<option value="02">Feb.</option>\n\t\t\t\t\t<option value="03">Mar.</option>\n\t\t\t\t\t<option value="04">Apr.</option>\n\t\t\t\t\t<option value="05">May</option>\n\t\t\t\t\t<option value="06">Jun.</option>\n\t\t\t\t\t<option value="07">Jul.</option>\n\t\t\t\t\t<option value="08">Aug.</option>\n\t\t\t\t\t<option value="09">Sep.</option>\n\t\t\t\t\t<option value="10">Oct.</option>\n\t\t\t\t\t<option value="11">Nov.</option>\n\t\t\t\t\t<option value="12">Dec.</option>\n\t\t\t\t\t</select> / <select size="1" name="asof_day" style="font-size: 8pt">\n\t\t\t\t\t<option selected value="">Day</option>\n\t\t\t\t\t<option value="01">1</option>\n\t\t\t\t\t<option value="02">2</option>\n\t\t\t\t\t<option value="03">3</option>\n\t\t\t\t\t<option value="04">4</option>\n\t\t\t\t\t<option value="05">5</option>\n\t\t\t\t\t<option value="06">6</option>\n\t\t\t\t\t<option value="07">7</option>\n\t\t\t\t\t<option value="08">8</option>\n\t\t\t\t\t<option value="09">9</option>\n\t\t\t\t\t<option value="10">10</option>\n\t\t\t\t\t<option value="11">11</option>\n\t\t\t\t\t<option value="12">12</option>\n\t\t\t\t\t<option value="13">13</option>\n\t\t\t\t\t<option value="14">14</option>\n\t\t\t\t\t<option value="15">15</option>\n\t\t\t\t\t<option value="16">16</option>\n\t\t\t\t\t<option value="17">17</option>\n\t\t\t\t\t<option value="18">18</option>\n\t\t\t\t\t<option value="19">19</option>\n\t\t\t\t\t<option value="20">20</option>\n\t\t\t\t\t<option value="21">21</option>\n\t\t\t\t\t<option value="22">22</option>\n\t\t\t\t\t<option value="23">23</option>\n\t\t\t\t\t<option value="24">24</option>\n\t\t\t\t\t<option value="25">25</option>\n\t\t\t\t\t<option value="26">26</option>\n\t\t\t\t\t<option value="27">27</option>\n\t\t\t\t\t<option value="28">28</option>\n\t\t\t\t\t<option value="29">29</option>\n\t\t\t\t\t<option value="30">30</option>\n\t\t\t\t\t<option value="31">31</option>\n\t\t\t\t\t</select> / <select size="1" name="asof_yr" style="font-size: 8pt">\n\t\t\t\t\t\t<option selected>2011</option>\n\t\t\t\t\t\t<option>2012</option>\n\t\t\t\t\t\t</select>) <input type="submit" value="Go" name="go" style="font-size: 8pt; height: 16">\n\t\t\t\t\t</font></td></tr>\n\t\t\t\t\t<input type="hidden" name="jumpstuff" value="view=releasedate&view2=domestic&yr=2011&sort=gross&order=DESC&p=.htm">\n\t\t\t\t\t<input type="hidden" name="curasof" value="today">\n\t\t\t\t\t<input type="hidden" name="yr" value="2011">\n\t\t\t\t\t</form>\n\t\t\t\t\t</table>\n\t\t\t\t</font></td><td valign="bottom" align="right"><font face="Verdana" size="1"><b><a href="/yearly/chart/?yr=2012&view=releasedate&view2=domestic&sort=gross&order=DESC&&p=.htm">Next Year &gt;</a></b></font></td></tr><tr><td colspan="3"><table border="0" cellspacing="1" cellpadding="5" bgcolor="#ffffff"><tr bgcolor="#dcdcdc"><td align="center"><font size="2"><a href="/yearly/chart/?view=releasedate&view2=domestic&yr=2011&sort=gross&order=ASC&p=.htm"><b>Rank</b></a></font></td><td align="center"><font size="2"><a href="/yearly/chart/?view=releasedate&view2=domestic&yr=2011&sort=title&order=ASC&p=.htm">Movie Title (click to view)</a></font></td><td align="center"><font size="2"><a href="/yearly/chart/?view=releasedate&view2=domestic&yr=2011&sort=studio&order=ASC&p=.htm">Studio</a><br><script language="javascript">\r\nfunction MojoDrop1() {\r\nvar number = document.MojoDropDown1.mojolinks1.selectedIndex;location.href = document.MojoDropDown1.mojolinks1.options[number].value;}</script>\r\n<table border="0" cellspacing="0" cellpadding="0">\r\n<form name="MojoDropDown1"><tr><td>\r\n<select name="mojolinks1" style="font-family: Verdana; font-size: 8pt" onChange="MojoDrop1(this.form)">\r\n<option selected>Filter</option><option value="/yearly/chart/?view=releasedate&view2=domestic&yr=2011&sort=gross&order=DESC&studio=108pics.htm">108</option>\r\n<option value="/yearly/chart/?view=releasedate&view2=domestic&yr=2011&sort=gross&order=DESC&studio=twelvethirty.htm">1230</option>\r\n<option value="/yearly/chart/?view=releasedate&view2=domestic&yr=2011&sort=gross&order=DESC&studio=fiveandtwo.htm">5&amp;2</option>\r\n<option value="/yearly/chart/?view=releasedate&view2=domestic&yr=2011&sort=gross&order=DESC&studio=area23a.htm">A23</option>\r\n<option value="/yearly/chart/?view=releasedate&view2=domestic&yr=2011&sort=gross&order=DESC&studio=abramorama.htm">Abr.</option>\r\n<option value="/yearly/chart/?view=releasedate&view2=domestic&yr=2011&sort=gross&order=DESC&studio=affrm.htm">AFFRM</option>\r\n<option value="/yearly/chart/?view=releasedate&view2=domestic&yr=2011&sort=gross&order=DESC&studio=alphagalore.htm">AGF</option>\r\n<option value="/yearly/chart/?view=releasedate&view2=domestic&yr=2011&sort=gross&order=DESC&studio=afterlifepictures.htm">ALP</option>\r\n<option value="/yearly/chart/?view=releasedate&view2=domestic&yr=2011&sort=gross&order=DESC&studio=alivemind.htm">AM</option>\r\n<option value="/yearly/chart/?view=releasedate&view2=domestic&yr=2011&sort=gross&order=DESC&studio=anchorbayentertainment.htm">Anch.</option>\r\n<option value="/yearly/chart/?view=releasedate&view2=domestic&yr=2011&sort=gross&order=DESC&studio=arcent.htm">ArcEnt</option>\r\n<option value="/yearly/chart/?view=releasedate&view2=domestic&yr=2011&sort=gross&order=DESC&studio=argotpictures.htm">Argo.</option>\r\n<option value="/yearly/chart/?view=releasedate&view2=domestic&yr=2011&sort=gross&order=DESC&studio=atopictures.htm">ATO</option>\r\n<option value="/yearly/chart/?view=releasedate&view2=domestic&yr=2011&sort=gross&order=DESC&studio=balcony.htm">Bal.</option>\r\n<option value="/yearly/chart/?view=releasedate&view2=domestic&yr=2011&sort=gross&order=DESC&studio=bubbledistribution.htm">BD</option>\r\n<option value="/yearly/chart/?view=releasedate&view2=domestic&yr=2011&sort=gross&order=DESC&studio=bdfox.htm">BDF</option>\r\n<option value="/yearly/chart/?view=releasedate&view2=domestic&yr=2011&sort=gross&order=DESC&studio=bigfootascendant.htm">BFA</option>\r\n<option value="/yearly/chart/?view=releasedate&view2=domestic&yr=2011&sort=gross&order=DESC&studio=breakingglass.htm">BGP</option>\r\n<option value="/yearly/chart/?view=releasedate&view2=domestic&yr=2011&sort=gross&order=DESC&studio=blackrockfilms.htm">BR</option>\r\n<option value="/yearly/chart/?view=releasedate&view2=domestic&yr=2011&sort=gross&order=DESC&studio=buenavista.htm">BV</option>\r\n<option value="/yearly/chart/?view=releasedate&view2=domestic&yr=2011&sort=gross&order=DESC&studio=categoryone.htm">C1</option>\r\n<option value="/yearly/chart/?view=releasedate&view2=domestic&yr=2011&sort=gross&order=DESC&studio=cavu.htm">CAVU</option>\r\n<option value="/yearly/chart/?view=releasedate&view2=domestic&yr=2011&sort=gross&order=DESC&studio=cbsfilms.htm">CBS</option>\r\n<option value="/yearly/chart/?view=releasedate&view2=domestic&yr=2011&sort=gross&order=DESC&studio=cinedigmentertainment.htm">Cdgm.</option>\r\n<option value="/yearly/chart/?view=releasedate&view2=domestic&yr=2011&sort=gross&order=DESC&studio=checkentertainment.htm">CED</option>\r\n<option value="/yearly/chart/?view=releasedate&view2=domestic&yr=2011&sort=gross&order=DESC&studio=cinemaguild.htm">CGld</option>\r\n<option value="/yearly/chart/?view=releasedate&view2=domestic&yr=2011&sort=gross&order=DESC&studio=cjentertainment.htm">CJ</option>\r\n<option value="/yearly/chart/?view=releasedate&view2=domestic&yr=2011&sort=gross&order=DESC&studio=chinalion.htm">CL</option>\r\n<option value="/yearly/chart/?view=releasedate&view2=domestic&yr=2011&sort=gross&order=DESC&studio=codeblackentertainment.htm">Code</option>\r\n<option value="/yearly/chart/?view=releasedate&view2=domestic&yr=2011&sort=gross&order=DESC&studio=cohenmedia.htm">Cohen</option>\r\n<option value="/yearly/chart/?view=releasedate&view2=domestic&yr=2011&sort=gross&order=DESC&studio=cinemapurgatorio.htm">CP</option>\r\n<option value="/yearly/chart/?view=releasedate&view2=domestic&yr=2011&sort=gross&order=DESC&studio=corinthfilmsinc.htm">Crnth</option>\r\n<option value="/yearly/chart/?view=releasedate&view2=domestic&yr=2011&sort=gross&order=DESC&studio=crowdstarter.htm">CS</option>\r\n<option value="/yearly/chart/?view=releasedate&view2=domestic&yr=2011&sort=gross&order=DESC&studio=dada.htm">Da.</option>\r\n<option value="/yearly/chart/?view=releasedate&view2=domestic&yr=2011&sort=gross&order=DESC&studio=docuramafilms.htm">DF</option>\r\n<option value="/yearly/chart/?view=releasedate&view2=domestic&yr=2011&sort=gross&order=DESC&studio=dressed.htm">Dress.</option>\r\n<option value="/yearly/chart/?view=releasedate&view2=domestic&yr=2011&sort=gross&order=DESC&studio=drivingwithoureyesshut.htm">DWOES</option>\r\n<option value="/yearly/chart/?view=releasedate&view2=domestic&yr=2011&sort=gross&order=DESC&studio=extrabutter.htm">EBP</option>\r\n<option value="/yearly/chart/?view=releasedate&view2=domestic&yr=2011&sort=gross&order=DESC&studio=eammonfilms.htm">EF</option>\r\n<option value="/yearly/chart/?view=releasedate&view2=domestic&yr=2011&sort=gross&order=DESC&studio=elevenarts.htm">Elev.</option>\r\n<option value="/yearly/chart/?view=releasedate&view2=domestic&yr=2011&sort=gross&order=DESC&studio=entertainmentone.htm">EOne</option>\r\n<option value="/yearly/chart/?view=releasedate&view2=domestic&yr=2011&sort=gross&order=DESC&studio=eros.htm">Eros</option>\r\n<option value="/yearly/chart/?view=releasedate&view2=domestic&yr=2011&sort=gross&order=DESC&studio=filmdistrict.htm">FD</option>\r\n<option value="/yearly/chart/?view=releasedate&view2=domestic&yr=2011&sort=gross&order=DESC&studio=filmdemic.htm">FDem</option>\r\n<option value="/yearly/chart/?view=releasedate&view2=domestic&yr=2011&sort=gross&order=DESC&studio=thefilmdesk.htm">FDesk</option>\r\n<option value="/yearly/chart/?view=releasedate&view2=domestic&yr=2011&sort=gross&order=DESC&studio=fisherklingenstein.htm">FKF</option>\r\n<option value="/yearly/chart/?view=releasedate&view2=domestic&yr=2011&sort=gross&order=DESC&studio=filmmovement.htm">FM</option>\r\n<option value="/yearly/chart/?view=releasedate&view2=domestic&yr=2011&sort=gross&order=DESC&studio=fullmoonpictures.htm">FMP</option>\r\n<option value="/yearly/chart/?view=releasedate&view2=domestic&yr=2011&sort=gross&order=DESC&studio=focus.htm">Focus</option>\r\n<option value="/yearly/chart/?view=releasedate&view2=domestic&yr=2011&sort=gross&order=DESC&studio=fox.htm">Fox</option>\r\n<option value="/yearly/chart/?view=releasedate&view2=domestic&yr=2011&sort=gross&order=DESC&studio=foxsearchlight.htm">FoxS</option>\r\n<option value="/yearly/chart/?view=releasedate&view2=domestic&yr=2011&sort=gross&order=DESC&studio=freestyle.htm">Free</option>\r\n<option value="/yearly/chart/?view=releasedate&view2=domestic&yr=2011&sort=gross&order=DESC&studio=firstrun.htm">FRun</option>\r\n<option value="/yearly/chart/?view=releasedate&view2=domestic&yr=2011&sort=gross&order=DESC&studio=gkids.htm">GK</option>\r\n<option value="/yearly/chart/?view=releasedate&view2=domestic&yr=2011&sort=gross&order=DESC&studio=samuelgoldwyn.htm">Gold.</option>\r\n<option value="/yearly/chart/?view=releasedate&view2=domestic&yr=2011&sort=gross&order=DESC&studio=hannoverhouse.htm">Hann.</option>\r\n<option value="/yearly/chart/?view=releasedate&view2=domestic&yr=2011&sort=gross&order=DESC&studio=icarus.htm">Icar.</option>\r\n<option value="/yearly/chart/?view=releasedate&view2=domestic&yr=2011&sort=gross&order=DESC&studio=intlfilmcircuit.htm">ICir</option>\r\n<option value="/yearly/chart/?view=releasedate&view2=domestic&yr=2011&sort=gross&order=DESC&studio=ifc.htm">IFC</option>\r\n<option value="/yearly/chart/?view=releasedate&view2=domestic&yr=2011&sort=gross&order=DESC&studio=indomina.htm">IM</option>\r\n<option value="/yearly/chart/?view=releasedate&view2=domestic&yr=2011&sort=gross&order=DESC&studio=imageentertainment.htm">Imag.</option>\r\n<option value="/yearly/chart/?view=releasedate&view2=domestic&yr=2011&sort=gross&order=DESC&studio=indican.htm">Indic.</option>\r\n<option value="/yearly/chart/?view=releasedate&view2=domestic&yr=2011&sort=gross&order=DESC&studio=insurgent.htm">IR</option>\r\n<option value="/yearly/chart/?view=releasedate&view2=domestic&yr=2011&sort=gross&order=DESC&studio=inthefamily.htm">ITF</option>\r\n<option value="/yearly/chart/?view=releasedate&view2=domestic&yr=2011&sort=gross&order=DESC&studio=janusfilms.htm">Jan.</option>\r\n<option value="/yearly/chart/?view=releasedate&view2=domestic&yr=2011&sort=gross&order=DESC&studio=jefflipsky.htm">JL</option>\r\n<option value="/yearly/chart/?view=releasedate&view2=domestic&yr=2011&sort=gross&order=DESC&studio=kinobild.htm">KBR</option>\r\n<option value="/yearly/chart/?view=releasedate&view2=domestic&yr=2011&sort=gross&order=DESC&studio=kinoclassics.htm">KC</option>\r\n<option value="/yearly/chart/?view=releasedate&view2=domestic&yr=2011&sort=gross&order=DESC&studio=kino.htm">Kino</option>\r\n<option value="/yearly/chart/?view=releasedate&view2=domestic&yr=2011&sort=gross&order=DESC&studio=kkm.htm">KKM</option>\r\n<option value="/yearly/chart/?view=releasedate&view2=domestic&yr=2011&sort=gross&order=DESC&studio=kinolorber.htm">KL</option>\r\n<option value="/yearly/chart/?view=releasedate&view2=domestic&yr=2011&sort=gross&order=DESC&studio=kristinmarie.htm">KMP</option>\r\n<option value="/yearly/chart/?view=releasedate&view2=domestic&yr=2011&sort=gross&order=DESC&studio=lionsgate.htm">LGF</option>\r\n<option value="/yearly/chart/?view=releasedate&view2=domestic&yr=2011&sort=gross&order=DESC&studio=cinemalibre.htm">Libre</option>\r\n<option value="/yearly/chart/?view=releasedate&view2=domestic&yr=2011&sort=gross&order=DESC&studio=longshotfactory.htm">Long Shot</option>\r\n<option value="/yearly/chart/?view=releasedate&view2=domestic&yr=2011&sort=gross&order=DESC&studio=lorberfilms.htm">Lorb.</option>\r\n<option value="/yearly/chart/?view=releasedate&view2=domestic&yr=2011&sort=gross&order=DESC&studio=lifesentence.htm">LSF</option>\r\n<option value="/yearly/chart/?view=releasedate&view2=domestic&yr=2011&sort=gross&order=DESC&studio=magnolia.htm">Magn.</option>\r\n<option value="/yearly/chart/?view=releasedate&view2=domestic&yr=2011&sort=gross&order=DESC&studio=mayaentertainment.htm">Maya</option>\r\n<option value="/yearly/chart/?view=releasedate&view2=domestic&yr=2011&sort=gross&order=DESC&studio=musicboxfilms.htm">MBox</option>\r\n<option value="/yearly/chart/?view=releasedate&view2=domestic&yr=2011&sort=gross&order=DESC&studio=motionfilmgroup.htm">MFG</option>\r\n<option value="/yearly/chart/?view=releasedate&view2=domestic&yr=2011&sort=gross&order=DESC&studio=millenniumentertainment.htm">MNE</option>\r\n<option value="/yearly/chart/?view=releasedate&view2=domestic&yr=2011&sort=gross&order=DESC&studio=montereymediainc.htm">Mont.</option>\r\n<option value="/yearly/chart/?view=releasedate&view2=domestic&yr=2011&sort=gross&order=DESC&studio=mpft.htm">MPFT</option>\r\n<option value="/yearly/chart/?view=releasedate&view2=domestic&yr=2011&sort=gross&order=DESC&studio=unknown.htm">N/A</option>\r\n<option value="/yearly/chart/?view=releasedate&view2=domestic&yr=2011&sort=gross&order=DESC&studio=neoclassicsfilms.htm">NeoC</option>\r\n<option value="/yearly/chart/?view=releasedate&view2=domestic&yr=2011&sort=gross&order=DESC&studio=nationalgeographiccinema.htm">NGE</option>\r\n<option value="/yearly/chart/?view=releasedate&view2=domestic&yr=2011&sort=gross&order=DESC&studio=newmarket.htm">NM</option>\r\n<option value="/yearly/chart/?view=releasedate&view2=domestic&yr=2011&sort=gross&order=DESC&studio=nobelityproject.htm">NobP</option>\r\n<option value="/yearly/chart/?view=releasedate&view2=domestic&yr=2011&sort=gross&order=DESC&studio=nocturnalfeatures.htm">Noct.</option>\r\n<option value="/yearly/chart/?view=releasedate&view2=domestic&yr=2011&sort=gross&order=DESC&studio=newyorker.htm">NYer</option>\r\n<option value="/yearly/chart/?view=releasedate&view2=domestic&yr=2011&sort=gross&order=DESC&studio=olivefilms.htm">Olive</option>\r\n<option value="/yearly/chart/?view=releasedate&view2=domestic&yr=2011&sort=gross&order=DESC&studio=omnifreestyle.htm">OMNI/FSR</option>\r\n<option value="/yearly/chart/?view=releasedate&view2=domestic&yr=2011&sort=gross&order=DESC&studio=openroads.htm">ORF</option>\r\n<option value="/yearly/chart/?view=releasedate&view2=domestic&yr=2011&sort=gross&order=DESC&studio=oscilloscopepictures.htm">Osci.</option>\r\n<option value="/yearly/chart/?view=releasedate&view2=domestic&yr=2011&sort=gross&order=DESC&studio=pardw.htm">P/DW</option>\r\n<option value="/yearly/chart/?view=releasedate&view2=domestic&yr=2011&sort=gross&order=DESC&studio=phase4.htm">P4</option>\r\n<option value="/yearly/chart/?view=releasedate&view2=domestic&yr=2011&sort=gross&order=DESC&studio=paladin.htm">Pala.</option>\r\n<option value="/yearly/chart/?view=releasedate&view2=domestic&yr=2011&sort=gross&order=DESC&studio=paramount.htm">Par.</option>\r\n<option value="/yearly/chart/?view=releasedate&view2=domestic&yr=2011&sort=gross&order=DESC&studio=paramountvantage.htm">ParV</option>\r\n<option value="/yearly/chart/?view=releasedate&view2=domestic&yr=2011&sort=gross&order=DESC&studio=pascack.htm">Pas.</option>\r\n<option value="/yearly/chart/?view=releasedate&view2=domestic&yr=2011&sort=gross&order=DESC&studio=pda.htm">PDA</option>\r\n<option value="/yearly/chart/?view=releasedate&view2=domestic&yr=2011&sort=gross&order=DESC&studio=peacefilm.htm">PF</option>\r\n<option value="/yearly/chart/?view=releasedate&view2=domestic&yr=2011&sort=gross&order=DESC&studio=pmkbnc.htm">PMK</option>\r\n<option value="/yearly/chart/?view=releasedate&view2=domestic&yr=2011&sort=gross&order=DESC&studio=pmkbncfilms.htm">PMKBNC</option>\r\n<option value="/yearly/chart/?view=releasedate&view2=domestic&yr=2011&sort=gross&order=DESC&studio=quakermedia.htm">QM</option>\r\n<option value="/yearly/chart/?view=releasedate&view2=domestic&yr=2011&sort=gross&order=DESC&studio=roadsideattractions.htm">RAtt.</option>\r\n<option value="/yearly/chart/?view=releasedate&view2=domestic&yr=2011&sort=gross&order=DESC&studio=relativity.htm">Rela.</option>\r\n<option value="/yearly/chart/?view=releasedate&view2=domestic&yr=2011&sort=gross&order=DESC&studio=reliancebigpictures.htm">Relbig.</option>\r\n<option value="/yearly/chart/?view=releasedate&view2=domestic&yr=2011&sort=gross&order=DESC&studio=redflag.htm">RF</option>\r\n<option value="/yearly/chart/?view=releasedate&view2=domestic&yr=2011&sort=gross&order=DESC&studio=rialto.htm">Rialto</option>\r\n<option value="/yearly/chart/?view=releasedate&view2=domestic&yr=2011&sort=gross&order=DESC&studio=riverrain.htm">RivR</option>\r\n<option value="/yearly/chart/?view=releasedate&view2=domestic&yr=2011&sort=gross&order=DESC&studio=rockymountainpictures.htm">RM</option>\r\n<option value="/yearly/chart/?view=releasedate&view2=domestic&yr=2011&sort=gross&order=DESC&studio=rocketreleasing.htm">Rocket</option>\r\n<option value="/yearly/chart/?view=releasedate&view2=domestic&yr=2011&sort=gross&order=DESC&studio=rumurreleasing.htm">Rum.</option>\r\n<option value="/yearly/chart/?view=releasedate&view2=domestic&yr=2011&sort=gross&order=DESC&studio=screenmedia.htm">Scre.</option>\r\n<option value="/yearly/chart/?view=releasedate&view2=domestic&yr=2011&sort=gross&order=DESC&studio=submarinedeluxe.htm">SD</option>\r\n<option value="/yearly/chart/?view=releasedate&view2=domestic&yr=2011&sort=gross&order=DESC&studio=screengems.htm">SGem</option>\r\n<option value="/yearly/chart/?view=releasedate&view2=domestic&yr=2011&sort=gross&order=DESC&studio=shortsinternational.htm">Shrts.</option>\r\n<option value="/yearly/chart/?view=releasedate&view2=domestic&yr=2011&sort=gross&order=DESC&studio=smodcast.htm">SMod</option>\r\n<option value="/yearly/chart/?view=releasedate&view2=domestic&yr=2011&sort=gross&order=DESC&studio=sony.htm">Sony</option>\r\n<option value="/yearly/chart/?view=releasedate&view2=domestic&yr=2011&sort=gross&order=DESC&studio=sonyclassics.htm">SPC</option>\r\n<option value="/yearly/chart/?view=releasedate&view2=domestic&yr=2011&sort=gross&order=DESC&studio=sphe.htm">SPHE</option>\r\n<option value="/yearly/chart/?view=releasedate&view2=domestic&yr=2011&sort=gross&order=DESC&studio=shotown.htm">STP</option>\r\n<option value="/yearly/chart/?view=releasedate&view2=domestic&yr=2011&sort=gross&order=DESC&studio=strand.htm">Strand</option>\r\n<option value="/yearly/chart/?view=releasedate&view2=domestic&yr=2011&sort=gross&order=DESC&studio=summitentertainment.htm">Sum.</option>\r\n<option value="/yearly/chart/?view=releasedate&view2=domestic&yr=2011&sort=gross&order=DESC&studio=tla.htm">TLA</option>\r\n<option value="/yearly/chart/?view=releasedate&view2=domestic&yr=2011&sort=gross&order=DESC&studio=tostieproductions.htm">Tost.</option>\r\n<option value="/yearly/chart/?view=releasedate&view2=domestic&yr=2011&sort=gross&order=DESC&studio=tribecafilm.htm">Trib.</option>\r\n<option value="/yearly/chart/?view=releasedate&view2=domestic&yr=2011&sort=gross&order=DESC&studio=tristar.htm">TriS</option>\r\n<option value="/yearly/chart/?view=releasedate&view2=domestic&yr=2011&sort=gross&order=DESC&studio=trulyindie.htm">Truly</option>\r\n<option value="/yearly/chart/?view=releasedate&view2=domestic&yr=2011&sort=gross&order=DESC&studio=universal.htm">Uni.</option>\r\n<option value="/yearly/chart/?view=releasedate&view2=domestic&yr=2011&sort=gross&order=DESC&studio=utv.htm">UTV</option>\r\n<option value="/yearly/chart/?view=releasedate&view2=domestic&yr=2011&sort=gross&order=DESC&studio=variancefilms.htm">Vari.</option>\r\n<option value="/yearly/chart/?view=releasedate&view2=domestic&yr=2011&sort=gross&order=DESC&studio=visioentertainment.htm">Visio</option>\r\n<option value="/yearly/chart/?view=releasedate&view2=domestic&yr=2011&sort=gross&order=DESC&studio=vitagraph.htm">Vita.</option>\r\n<option value="/yearly/chart/?view=releasedate&view2=domestic&yr=2011&sort=gross&order=DESC&studio=wdimension.htm">W/Dim.</option>\r\n<option value="/yearly/chart/?view=releasedate&view2=domestic&yr=2011&sort=gross&order=DESC&studio=wavereleasing.htm">Wave</option>\r\n<option value="/yearly/chart/?view=releasedate&view2=domestic&yr=2011&sort=gross&order=DESC&studio=warnerbros.htm">WB</option>\r\n<option value="/yearly/chart/?view=releasedate&view2=domestic&yr=2011&sort=gross&order=DESC&studio=wb-newline.htm">WB (NL)</option>\r\n<option value="/yearly/chart/?view=releasedate&view2=domestic&yr=2011&sort=gross&order=DESC&studio=weinsteincompany.htm">Wein.</option>\r\n<option value="/yearly/chart/?view=releasedate&view2=domestic&yr=2011&sort=gross&order=DESC&studio=wreckinhill.htm">WHE</option>\r\n<option value="/yearly/chart/?view=releasedate&view2=domestic&yr=2011&sort=gross&order=DESC&studio=xenonpictures.htm">Xen.</option>\r\n<option value="/yearly/chart/?view=releasedate&view2=domestic&yr=2011&sort=gross&order=DESC&studio=yashraj.htm">Yash</option>\r\n<option value="/yearly/chart/?view=releasedate&view2=domestic&yr=2011&sort=gross&order=DESC&studio=zeitgeist.htm">Zeit.</option>\r\n<option value="/yearly/chart/?view=releasedate&view2=domestic&yr=2011&sort=gross&order=DESC&studio=zomularmedia.htm">ZMG</option>\r\n<option value="/yearly/chart/?view=releasedate&view2=domestic&yr=2011&sort=gross&order=DESC&p=.htm">ALL</option>\r\n</select></td></tr></form></table><a></a></font></td><td align="center" colspan="2"><font size="2"><a href="/yearly/chart/?view=releasedate&view2=domestic&yr=2011&sort=gross&order=ASC&p=.htm"><b>Total Gross</b></a> / </font><font size="2"><a href="/yearly/chart/?view=releasedate&view2=domestic&yr=2011&sort=theaters&order=DESC&p=.htm">Theaters</a></font></td><td align="center" colspan="2"><font size="2"><a href="/yearly/chart/?view=releasedate&view2=domestic&yr=2011&sort=opengross&order=DESC&p=.htm">Opening</a> / </font><font size="2"><a href="/yearly/chart/?view=releasedate&view2=domestic&yr=2011&sort=opentheaters&order=DESC&p=.htm">Theaters</a></font></td><td align="center"><font size="2"><a href="/yearly/chart/?view=releasedate&view2=domestic&yr=2011&sort=open&order=DESC&p=.htm">Open</a></font></td><td align="center"><font size="2"><a href="/yearly/chart/?view=releasedate&view2=domestic&yr=2011&sort=close&order=DESC&p=.htm">Close</a></font></td></tr><tr bgcolor="#ffffff"><td align="center"><font size="2">1</font></td><td><b><font size="2"><a href="/movies/?id=harrypotter72.htm">Harry Potter and the Deathly Hallows Part 2</a></font></b></td><td><font size="2">WB</font></td><td align="right"><font size="2"><b>$381,011,219</b></font></td><td align="right"><font size="2">4,375</font></td><td align="right"><font size="2">$169,189,427</font></td><td align="right"><font size="2">4,375</font></td><td align="right"><font size="2"><a href="/schedule/?view=bydate&release=theatrical&date=2011-07-15&p=.htm">7/15</a></font></td><td align="right"><font size="2">11/24</font></td></tr><tr bgcolor="#f4f4ff"><td align="center"><font size="2">2</font></td><td><b><font size="2"><a href="/movies/?id=transformers3.htm">Transformers: Dark of the Moon</a></font></b></td><td><font size="2">P/DW</font></td><td align="right"><font size="2"><b>$352,390,543</b></font></td><td align="right"><font size="2">4,088</font></td><td align="right"><font size="2">$97,852,865</font></td><td align="right"><font size="2">4,088</font></td><td align="right"><font size="2"><a href="/schedule/?view=bydate&release=theatrical&date=2011-06-29&p=.htm">6/29</a></font></td><td align="right"><font size="2">10/13</font></td></tr><tr bgcolor="#ffffff"><td align="center"><font size="2">3</font></td><td><b><font size="2"><a href="/movies/?id=breakingdawn.htm">The Twilight Saga: Breaking Dawn Part 1</a></font></b></td><td><font size="2">Sum.</font></td><td align="right"><font size="2"><b>$281,287,133</b></font></td><td align="right"><font size="2">4,066</font></td><td align="right"><font size="2">$138,122,261</font></td><td align="right"><font size="2">4,061</font></td><td align="right"><font size="2"><a href="/schedule/?view=bydate&release=theatrical&date=2011-11-18&p=.htm">11/18</a></font></td><td align="right"><font size="2">2/23</font></td></tr><tr bgcolor="#f4f4ff"><td align="center"><font size="2">4</font></td><td><b><font size="2"><a href="/movies/?id=hangover2.htm">The Hangover Part II</a></font></b></td><td><font size="2">WB</font></td><td align="right"><font size="2"><b>$254,464,305</b></font></td><td align="right"><font size="2">3,675</font></td><td align="right"><font size="2">$85,946,294</font></td><td align="right"><font size="2">3,615</font></td><td align="right"><font size="2"><a href="/schedule/?view=bydate&release=theatrical&date=2011-05-26&p=.htm">5/26</a></font></td><td align="right"><font size="2">9/15</font></td></tr><tr bgcolor="#ffffff"><td align="center"><font size="2">5</font></td><td><b><font size="2"><a href="/movies/?id=piratesofthecaribbean4.htm">Pirates of the Caribbean: On Stranger Tides</a></font></b></td><td><font size="2">BV</font></td><td align="right"><font size="2"><b>$241,071,802</b></font></td><td align="right"><font size="2">4,164</font></td><td align="right"><font size="2">$90,151,958</font></td><td align="right"><font size="2">4,155</font></td><td align="right"><font size="2"><a href="/schedule/?view=bydate&release=theatrical&date=2011-05-20&p=.htm">5/20</a></font></td><td align="right"><font size="2">9/29</font></td></tr><tr bgcolor="#f4f4ff"><td align="center"><font size="2">6</font></td><td><b><font size="2"><a href="/movies/?id=fastfive.htm">Fast Five</a></font></b></td><td><font size="2">Uni.</font></td><td align="right"><font size="2"><b>$209,837,675</b></font></td><td align="right"><font size="2">3,793</font></td><td align="right"><font size="2">$86,198,765</font></td><td align="right"><font size="2">3,644</font></td><td align="right"><font size="2"><a href="/schedule/?view=bydate&release=theatrical&date=2011-04-29&p=.htm">4/29</a></font></td><td align="right"><font size="2">8/11</font></td></tr><tr bgcolor="#ffffff"><td align="center"><font size="2">7</font></td><td><b><font size="2"><a href="/movies/?id=mi4.htm">Mission: Impossible - Ghost Protocol</a></font></b></td><td><font size="2">Par.</font></td><td align="right"><font size="2"><b>$209,397,903</b></font></td><td align="right"><font size="2">3,555</font></td><td align="right"><font size="2">$12,785,204</font></td><td align="right"><font size="2">425</font></td><td align="right"><font size="2"><a href="/schedule/?view=bydate&release=theatrical&date=2011-12-16&p=.htm">12/16</a></font></td><td align="right"><font size="2">4/12</font></td></tr><tr bgcolor="#f4f4ff"><td align="center"><font size="2">8</font></td><td><b><font size="2"><a href="/movies/?id=cars2.htm">Cars 2</a></font></b></td><td><font size="2">BV</font></td><td align="right"><font size="2"><b>$191,452,396</b></font></td><td align="right"><font size="2">4,115</font></td><td align="right"><font size="2">$66,135,507</font></td><td align="right"><font size="2">4,115</font></td><td align="right"><font size="2"><a href="/schedule/?view=bydate&release=theatrical&date=2011-06-24&p=.htm">6/24</a></font></td><td align="right"><font size="2">12/15</font></td></tr><tr bgcolor="#ffffff"><td align="center"><font size="2">9</font></td><td><b><font size="2"><a href="/movies/?id=sherlockholmes2.htm">Sherlock Holmes: A Game of Shadows</a></font></b></td><td><font size="2">WB</font></td><td align="right"><font size="2"><b>$186,848,418</b></font></td><td align="right"><font size="2">3,703</font></td><td align="right"><font size="2">$39,637,079</font></td><td align="right"><font size="2">3,703</font></td><td align="right"><font size="2"><a href="/schedule/?view=bydate&release=theatrical&date=2011-12-16&p=.htm">12/16</a></font></td><td align="right"><font size="2">4/5</font></td></tr><tr bgcolor="#f4f4ff"><td align="center"><font size="2">10</font></td><td><b><font size="2"><a href="/movies/?id=thor.htm">Thor</a></font></b></td><td><font size="2">Par.</font></td><td align="right"><font size="2"><b>$181,030,624</b></font></td><td align="right"><font size="2">3,963</font></td><td align="right"><font size="2">$65,723,338</font></td><td align="right"><font size="2">3,955</font></td><td align="right"><font size="2"><a href="/schedule/?view=bydate&release=theatrical&date=2011-05-06&p=.htm">5/6</a></font></td><td align="right"><font size="2">8/25</font></td></tr><tr bgcolor="#ffffff"><td align="center"><font size="2">11</font></td><td><b><font size="2"><a href="/movies/?id=riseoftheapes.htm">Rise of the Planet of the Apes</a></font></b></td><td><font size="2">Fox</font></td><td align="right"><font size="2"><b>$176,760,185</b></font></td><td align="right"><font size="2">3,691</font></td><td align="right"><font size="2">$54,806,191</font></td><td align="right"><font size="2">3,648</font></td><td align="right"><font size="2"><a href="/schedule/?view=bydate&release=theatrical&date=2011-08-05&p=.htm">8/5</a></font></td><td align="right"><font size="2">12/15</font></td></tr><tr bgcolor="#f4f4ff"><td align="center"><font size="2">12</font></td><td><b><font size="2"><a href="/movies/?id=captainamerica.htm">Captain America: The First Avenger</a></font></b></td><td><font size="2">Par.</font></td><td align="right"><font size="2"><b>$176,654,505</b></font></td><td align="right"><font size="2">3,715</font></td><td align="right"><font size="2">$65,058,524</font></td><td align="right"><font size="2">3,715</font></td><td align="right"><font size="2"><a href="/schedule/?view=bydate&release=theatrical&date=2011-07-22&p=.htm">7/22</a></font></td><td align="right"><font size="2">11/10</font></td></tr><tr bgcolor="#ffffff"><td align="center"><font size="2">13</font></td><td><b><font size="2"><a href="/movies/?id=help2011.htm">The Help</a></font></b></td><td><font size="2">BV</font></td><td align="right"><font size="2"><b>$169,708,112</b></font></td><td align="right"><font size="2">3,014</font></td><td align="right"><font size="2">$26,044,590</font></td><td align="right"><font size="2">2,534</font></td><td align="right"><font size="2"><a href="/schedule/?view=bydate&release=theatrical&date=2011-08-10&p=.htm">8/10</a></font></td><td align="right"><font size="2">3/8</font></td></tr><tr bgcolor="#f4f4ff"><td align="center"><font size="2">14</font></td><td><b><font size="2"><a href="/movies/?id=wiigapatow.htm">Bridesmaids</a></font></b></td><td><font size="2">Uni.</font></td><td align="right"><font size="2"><b>$169,106,725</b></font></td><td align="right"><font size="2">2,958</font></td><td align="right"><font size="2">$26,247,410</font></td><td align="right"><font size="2">2,918</font></td><td align="right"><font size="2"><a href="/schedule/?view=bydate&release=theatrical&date=2011-05-13&p=.htm">5/13</a></font></td><td align="right"><font size="2">9/29</font></td></tr><tr bgcolor="#ffffff"><td align="center"><font size="2">15</font></td><td><b><font size="2"><a href="/movies/?id=kungfupanda2.htm">Kung Fu Panda 2</a></font></b></td><td><font size="2">P/DW</font></td><td align="right"><font size="2"><b>$165,249,063</b></font></td><td align="right"><font size="2">3,952</font></td><td align="right"><font size="2">$47,656,302</font></td><td align="right"><font size="2">3,925</font></td><td align="right"><font size="2"><a href="/schedule/?view=bydate&release=theatrical&date=2011-05-26&p=.htm">5/26</a></font></td><td align="right"><font size="2">9/29</font></td></tr><tr bgcolor="#f4f4ff"><td align="center"><font size="2">16</font></td><td><b><font size="2"><a href="/movies/?id=pussinboots12.htm">Puss in Boots</a></font></b></td><td><font size="2">P/DW</font></td><td align="right"><font size="2"><b>$149,260,504</b></font></td><td align="right"><font size="2">3,963</font></td><td align="right"><font size="2">$34,077,439</font></td><td align="right"><font size="2">3,952</font></td><td align="right"><font size="2"><a href="/schedule/?view=bydate&release=theatrical&date=2011-10-28&p=.htm">10/28</a></font></td><td align="right"><font size="2">3/1</font></td></tr><tr bgcolor="#ffffff"><td align="center"><font size="2">17</font></td><td><b><font size="2"><a href="/movies/?id=xmenfirstclass.htm">X-Men: First Class</a></font></b></td><td><font size="2">Fox</font></td><td align="right"><font size="2"><b>$146,408,305</b></font></td><td align="right"><font size="2">3,692</font></td><td align="right"><font size="2">$55,101,604</font></td><td align="right"><font size="2">3,641</font></td><td align="right"><font size="2"><a href="/schedule/?view=bydate&release=theatrical&date=2011-06-03&p=.htm">6/3</a></font></td><td align="right"><font size="2">9/29</font></td></tr><tr bgcolor="#f4f4ff"><td align="center"><font size="2">18</font></td><td><b><font size="2"><a href="/movies/?id=rio.htm">Rio</a></font></b></td><td><font size="2">Fox</font></td><td align="right"><font size="2"><b>$143,619,809</b></font></td><td align="right"><font size="2">3,842</font></td><td align="right"><font size="2">$39,225,962</font></td><td align="right"><font size="2">3,826</font></td><td align="right"><font size="2"><a href="/schedule/?view=bydate&release=theatrical&date=2011-04-15&p=.htm">4/15</a></font></td><td align="right"><font size="2">9/8</font></td></tr><tr bgcolor="#ffffff"><td align="center"><font size="2">19</font></td><td><b><font size="2"><a href="/movies/?id=smurfs.htm">The Smurfs</a></font></b></td><td><font size="2">Sony</font></td><td align="right"><font size="2"><b>$142,614,158</b></font></td><td align="right"><font size="2">3,427</font></td><td align="right"><font size="2">$35,611,637</font></td><td align="right"><font size="2">3,395</font></td><td align="right"><font size="2"><a href="/schedule/?view=bydate&release=theatrical&date=2011-07-29&p=.htm">7/29</a></font></td><td align="right"><font size="2">12/15</font></td></tr><tr bgcolor="#f4f4ff"><td align="center"><font size="2">20</font></td><td><b><font size="2"><a href="/movies/?id=alvin3d.htm">Alvin and the Chipmunks: Chipwrecked</a></font></b></td><td><font size="2">Fox</font></td><td align="right"><font size="2"><b>$133,110,742</b></font></td><td align="right"><font size="2">3,734</font></td><td align="right"><font size="2">$23,244,744</font></td><td align="right"><font size="2">3,723</font></td><td align="right"><font size="2"><a href="/schedule/?view=bydate&release=theatrical&date=2011-12-16&p=.htm">12/16</a></font></td><td align="right"><font size="2">6/7</font></td></tr><tr bgcolor="#ffffff"><td align="center"><font size="2">21</font></td><td><b><font size="2"><a href="/movies/?id=super8.htm">Super 8</a></font></b></td><td><font size="2">Par.</font></td><td align="right"><font size="2"><b>$127,004,179</b></font></td><td align="right"><font size="2">3,424</font></td><td align="right"><font size="2">$35,451,168</font></td><td align="right"><font size="2">3,379</font></td><td align="right"><font size="2"><a href="/schedule/?view=bydate&release=theatrical&date=2011-06-10&p=.htm">6/10</a></font></td><td align="right"><font size="2">9/29</font></td></tr><tr bgcolor="#f4f4ff"><td align="center"><font size="2">22</font></td><td><b><font size="2"><a href="/movies/?id=rango.htm">Rango</a></font></b></td><td><font size="2">Par.</font></td><td align="right"><font size="2"><b>$123,477,607</b></font></td><td align="right"><font size="2">3,923</font></td><td align="right"><font size="2">$38,079,323</font></td><td align="right"><font size="2">3,917</font></td><td align="right"><font size="2"><a href="/schedule/?view=bydate&release=theatrical&date=2011-03-04&p=.htm">3/4</a></font></td><td align="right"><font size="2">7/7</font></td></tr><tr bgcolor="#ffffff"><td align="center"><font size="2">23</font></td><td><b><font size="2"><a href="/movies/?id=horriblebosses.htm">Horrible Bosses</a></font></b></td><td><font size="2">WB (NL)</font></td><td align="right"><font size="2"><b>$117,538,559</b></font></td><td align="right"><font size="2">3,134</font></td><td align="right"><font size="2">$28,302,165</font></td><td align="right"><font size="2">3,040</font></td><td align="right"><font size="2"><a href="/schedule/?view=bydate&release=theatrical&date=2011-07-08&p=.htm">7/8</a></font></td><td align="right"><font size="2">10/27</font></td></tr><tr bgcolor="#f4f4ff"><td align="center"><font size="2">24</font></td><td><b><font size="2"><a href="/movies/?id=greenlantern.htm">Green Lantern</a></font></b></td><td><font size="2">WB</font></td><td align="right"><font size="2"><b>$116,601,172</b></font></td><td align="right"><font size="2">3,816</font></td><td align="right"><font size="2">$53,174,303</font></td><td align="right"><font size="2">3,816</font></td><td align="right"><font size="2"><a href="/schedule/?view=bydate&release=theatrical&date=2011-06-17&p=.htm">6/17</a></font></td><td align="right"><font size="2">9/29</font></td></tr><tr bgcolor="#ffffff"><td align="center"><font size="2">25</font></td><td><b><font size="2"><a href="/movies/?id=ihop.htm">Hop</a></font></b></td><td><font size="2">Uni.</font></td><td align="right"><font size="2"><b>$108,085,305</b></font></td><td align="right"><font size="2">3,616</font></td><td align="right"><font size="2">$37,543,710</font></td><td align="right"><font size="2">3,579</font></td><td align="right"><font size="2"><a href="/schedule/?view=bydate&release=theatrical&date=2011-04-01&p=.htm">4/1</a></font></td><td align="right"><font size="2">6/16</font></td></tr><tr bgcolor="#f4f4ff"><td align="center"><font size="2">26</font></td><td><b><font size="2"><a href="/movies/?id=paranormalactivity3.htm">Paranormal Activity 3</a></font></b></td><td><font size="2">Par.</font></td><td align="right"><font size="2"><b>$104,028,807</b></font></td><td align="right"><font size="2">3,329</font></td><td align="right"><font size="2">$52,568,183</font></td><td align="right"><font size="2">3,321</font></td><td align="right"><font size="2"><a href="/schedule/?view=bydate&release=theatrical&date=2011-10-21&p=.htm">10/21</a></font></td><td align="right"><font size="2">1/5</font></td></tr><tr bgcolor="#ffffff"><td align="center"><font size="2">27</font></td><td><b><font size="2"><a href="/movies/?id=thepretendwife.htm">Just Go With It</a></font></b></td><td><font size="2">Sony</font></td><td align="right"><font size="2"><b>$103,028,109</b></font></td><td align="right"><font size="2">3,548</font></td><td align="right"><font size="2">$30,514,732</font></td><td align="right"><font size="2">3,548</font></td><td align="right"><font size="2"><a href="/schedule/?view=bydate&release=theatrical&date=2011-02-11&p=.htm">2/11</a></font></td><td align="right"><font size="2">5/19</font></td></tr><tr bgcolor="#f4f4ff"><td align="center"><font size="2">28</font></td><td><b><font size="2"><a href="/movies/?id=girldragontattoo11.htm">The Girl with the Dragon Tattoo (2011)</a></font></b></td><td><font size="2">Sony</font></td><td align="right"><font size="2"><b>$102,515,793</b></font></td><td align="right"><font size="2">2,950</font></td><td align="right"><font size="2">$12,768,604</font></td><td align="right"><font size="2">2,914</font></td><td align="right"><font size="2"><a href="/schedule/?view=bydate&release=theatrical&date=2011-12-21&p=.htm">12/21</a></font></td><td align="right"><font size="2">3/22</font></td></tr><tr bgcolor="#ffffff"><td align="center"><font size="2">29</font></td><td><b><font size="2"><a href="/movies/?id=badteacher.htm">Bad Teacher</a></font></b></td><td><font size="2">Sony</font></td><td align="right"><font size="2"><b>$100,292,856</b></font></td><td align="right"><font size="2">3,049</font></td><td align="right"><font size="2">$31,603,106</font></td><td align="right"><font size="2">3,049</font></td><td align="right"><font size="2"><a href="/schedule/?view=bydate&release=theatrical&date=2011-06-24&p=.htm">6/24</a></font></td><td align="right"><font size="2">10/13</font></td></tr><tr bgcolor="#f4f4ff"><td align="center"><font size="2">30</font></td><td><b><font size="2"><a href="/movies/?id=cowboysandaliens.htm">Cowboys &amp; Aliens</a></font></b></td><td><font size="2">Uni.</font></td><td align="right"><font size="2"><b>$100,240,551</b></font></td><td align="right"><font size="2">3,754</font></td><td align="right"><font size="2">$36,431,290</font></td><td align="right"><font size="2">3,750</font></td><td align="right"><font size="2"><a href="/schedule/?view=bydate&release=theatrical&date=2011-07-29&p=.htm">7/29</a></font></td><td align="right"><font size="2">11/3</font></td></tr><tr bgcolor="#ffffff"><td align="center"><font size="2">31</font></td><td><b><font size="2"><a href="/movies/?id=gnomeoandjuliet.htm">Gnomeo and Juliet</a></font></b></td><td><font size="2">BV</font></td><td align="right"><font size="2"><b>$99,967,670</b></font></td><td align="right"><font size="2">3,037</font></td><td align="right"><font size="2">$25,356,909</font></td><td align="right"><font size="2">2,994</font></td><td align="right"><font size="2"><a href="/schedule/?view=bydate&release=theatrical&date=2011-02-11&p=.htm">2/11</a></font></td><td align="right"><font size="2">6/23</font></td></tr><tr bgcolor="#f4f4ff"><td align="center"><font size="2">32</font></td><td><b><font size="2"><a href="/movies/?id=greenhornet.htm">The Green Hornet</a></font></b></td><td><font size="2">Sony</font></td><td align="right"><font size="2"><b>$98,780,042</b></font></td><td align="right"><font size="2">3,584</font></td><td align="right"><font size="2">$33,526,876</font></td><td align="right"><font size="2">3,584</font></td><td align="right"><font size="2"><a href="/schedule/?view=bydate&release=theatrical&date=2011-01-14&p=.htm">1/14</a></font></td><td align="right"><font size="2">4/21</font></td></tr><tr bgcolor="#ffffff"><td align="center"><font size="2">33</font></td><td><b><font size="2"><a href="/movies/?id=lionking3d.htm">The Lion King (in 3D)</a></font></b></td><td><font size="2">BV</font></td><td align="right"><font size="2"><b>$94,242,001</b></font></td><td align="right"><font size="2">2,340</font></td><td align="right"><font size="2">$30,151,614</font></td><td align="right"><font size="2">2,330</font></td><td align="right"><font size="2"><a href="/schedule/?view=bydate&release=theatrical&date=2011-09-16&p=.htm">9/16</a></font></td><td align="right"><font size="2">1/12</font></td></tr><tr bgcolor="#f4f4ff"><td align="center"><font size="2">34</font></td><td><b><font size="2"><a href="/movies/?id=themuppets.htm">The Muppets</a></font></b></td><td><font size="2">BV</font></td><td align="right"><font size="2"><b>$88,631,237</b></font></td><td align="right"><font size="2">3,440</font></td><td align="right"><font size="2">$29,239,026</font></td><td align="right"><font size="2">3,440</font></td><td align="right"><font size="2"><a href="/schedule/?view=bydate&release=theatrical&date=2011-11-23&p=.htm">11/23</a></font></td><td align="right"><font size="2">4/5</font></td></tr><tr bgcolor="#ffffff"><td align="center"><font size="2">35</font></td><td><b><font size="2"><a href="/movies/?id=realsteel.htm">Real Steel</a></font></b></td><td><font size="2">BV</font></td><td align="right"><font size="2"><b>$85,468,508</b></font></td><td align="right"><font size="2">3,440</font></td><td align="right"><font size="2">$27,319,677</font></td><td align="right"><font size="2">3,440</font></td><td align="right"><font size="2"><a href="/schedule/?view=bydate&release=theatrical&date=2011-10-07&p=.htm">10/7</a></font></td><td align="right"><font size="2">2/16</font></td></tr><tr bgcolor="#f4f4ff"><td align="center"><font size="2">36</font></td><td><b><font size="2"><a href="/movies/?id=crazystupidlove.htm">Crazy, Stupid, Love.</a></font></b></td><td><font size="2">WB</font></td><td align="right"><font size="2"><b>$84,351,197</b></font></td><td align="right"><font size="2">3,020</font></td><td align="right"><font size="2">$19,104,303</font></td><td align="right"><font size="2">3,020</font></td><td align="right"><font size="2"><a href="/schedule/?view=bydate&release=theatrical&date=2011-07-29&p=.htm">7/29</a></font></td><td align="right"><font size="2">11/24</font></td></tr><tr bgcolor="#ffffff"><td align="center"><font size="2">37</font></td><td><b><font size="2"><a href="/movies/?id=battlelosangeles.htm">Battle: Los Angeles</a></font></b></td><td><font size="2">Sony</font></td><td align="right"><font size="2"><b>$83,552,429</b></font></td><td align="right"><font size="2">3,417</font></td><td align="right"><font size="2">$35,573,187</font></td><td align="right"><font size="2">3,417</font></td><td align="right"><font size="2"><a href="/schedule/?view=bydate&release=theatrical&date=2011-03-11&p=.htm">3/11</a></font></td><td align="right"><font size="2">6/2</font></td></tr><tr bgcolor="#f4f4ff"><td align="center"><font size="2">38</font></td><td><b><font size="2"><a href="/movies/?id=warofgods.htm">Immortals</a></font></b></td><td><font size="2">Rela.</font></td><td align="right"><font size="2"><b>$83,504,017</b></font></td><td align="right"><font size="2">3,120</font></td><td align="right"><font size="2">$32,206,425</font></td><td align="right"><font size="2">3,112</font></td><td align="right"><font size="2"><a href="/schedule/?view=bydate&release=theatrical&date=2011-11-11&p=.htm">11/11</a></font></td><td align="right"><font size="2">2/23</font></td></tr><tr bgcolor="#ffffff"><td align="center"><font size="2">39</font></td><td><b><font size="2"><a href="/movies/?id=descendents.htm">The Descendants</a></font></b></td><td><font size="2">FoxS</font></td><td align="right"><font size="2"><b>$82,584,160</b></font></td><td align="right"><font size="2">2,038</font></td><td align="right"><font size="2">$1,190,096</font></td><td align="right"><font size="2">29</font></td><td align="right"><font size="2"><a href="/schedule/?view=bydate&release=theatrical&date=2011-11-16&p=.htm">11/16</a></font></td><td align="right"><font size="2">4/19</font></td></tr><tr bgcolor="#f4f4ff"><td align="center"><font size="2">40</font></td><td><b><font size="2"><a href="/movies/?id=zookeeper.htm">Zookeeper</a></font></b></td><td><font size="2">Sony</font></td><td align="right"><font size="2"><b>$80,360,843</b></font></td><td align="right"><font size="2">3,482</font></td><td align="right"><font size="2">$20,065,617</font></td><td align="right"><font size="2">3,482</font></td><td align="right"><font size="2"><a href="/schedule/?view=bydate&release=theatrical&date=2011-07-08&p=.htm">7/8</a></font></td><td align="right"><font size="2">10/27</font></td></tr><tr bgcolor="#ffffff"><td align="center"><font size="2">41</font></td><td><b><font size="2"><a href="/movies/?id=warhorse.htm">War Horse</a></font></b></td><td><font size="2">BV</font></td><td align="right"><font size="2"><b>$79,884,879</b></font></td><td align="right"><font size="2">2,856</font></td><td align="right"><font size="2">$7,515,402</font></td><td align="right"><font size="2">2,376</font></td><td align="right"><font size="2"><a href="/schedule/?view=bydate&release=theatrical&date=2011-12-25&p=.htm">12/25</a></font></td><td align="right"><font size="2">5/3</font></td></tr><tr bgcolor="#f4f4ff"><td align="center"><font size="2">42</font></td><td><b><font size="2"><a href="/movies/?id=darkfields.htm">Limitless</a></font></b></td><td><font size="2">Rela.</font></td><td align="right"><font size="2"><b>$79,249,455</b></font></td><td align="right"><font size="2">2,838</font></td><td align="right"><font size="2">$18,907,302</font></td><td align="right"><font size="2">2,756</font></td><td align="right"><font size="2"><a href="/schedule/?view=bydate&release=theatrical&date=2011-03-18&p=.htm">3/18</a></font></td><td align="right"><font size="2">7/7</font></td></tr><tr bgcolor="#ffffff"><td align="center"><font size="2">43</font></td><td><b><font size="2"><a href="/movies/?id=towerheist.htm">Tower Heist</a></font></b></td><td><font size="2">Uni.</font></td><td align="right"><font size="2"><b>$78,046,570</b></font></td><td align="right"><font size="2">3,870</font></td><td align="right"><font size="2">$24,025,190</font></td><td align="right"><font size="2">3,367</font></td><td align="right"><font size="2"><a href="/schedule/?view=bydate&release=theatrical&date=2011-11-04&p=.htm">11/4</a></font></td><td align="right"><font size="2">2/2</font></td></tr><tr bgcolor="#f4f4ff"><td align="center"><font size="2">44</font></td><td><b><font size="2"><a href="/movies/?id=tintin.htm">The Adventures of Tintin</a></font></b></td><td><font size="2">Par.</font></td><td align="right"><font size="2"><b>$77,591,831</b></font></td><td align="right"><font size="2">3,087</font></td><td align="right"><font size="2">$9,720,993</font></td><td align="right"><font size="2">3,087</font></td><td align="right"><font size="2"><a href="/schedule/?view=bydate&release=theatrical&date=2011-12-21&p=.htm">12/21</a></font></td><td align="right"><font size="2">3/22</font></td></tr><tr bgcolor="#ffffff"><td align="center"><font size="2">45</font></td><td><b><font size="2"><a href="/movies/?id=contagion.htm">Contagion</a></font></b></td><td><font size="2">WB</font></td><td align="right"><font size="2"><b>$75,658,097</b></font></td><td align="right"><font size="2">3,222</font></td><td align="right"><font size="2">$22,403,596</font></td><td align="right"><font size="2">3,222</font></td><td align="right"><font size="2"><a href="/schedule/?view=bydate&release=theatrical&date=2011-09-09&p=.htm">9/9</a></font></td><td align="right"><font size="2">12/15</font></td></tr><tr bgcolor="#f4f4ff"><td align="center"><font size="2">46</font></td><td><b><font size="2"><a href="/movies/?id=weboughtazoo.htm">We Bought a Zoo</a></font></b></td><td><font size="2">Fox</font></td><td align="right"><font size="2"><b>$75,624,550</b></font></td><td align="right"><font size="2">3,170</font></td><td align="right"><font size="2">$9,360,434</font></td><td align="right"><font size="2">3,117</font></td><td align="right"><font size="2"><a href="/schedule/?view=bydate&release=theatrical&date=2011-12-23&p=.htm">12/23</a></font></td><td align="right"><font size="2">5/17</font></td></tr><tr bgcolor="#ffffff"><td align="center"><font size="2">47</font></td><td><b><font size="2"><a href="/movies/?id=moneyball.htm">Moneyball</a></font></b></td><td><font size="2">Sony</font></td><td align="right"><font size="2"><b>$75,605,492</b></font></td><td align="right"><font size="2">3,018</font></td><td align="right"><font size="2">$19,501,302</font></td><td align="right"><font size="2">2,993</font></td><td align="right"><font size="2"><a href="/schedule/?view=bydate&release=theatrical&date=2011-09-23&p=.htm">9/23</a></font></td><td align="right"><font size="2">2/2</font></td></tr><tr bgcolor="#f4f4ff"><td align="center"><font size="2">48</font></td><td><b><font size="2"><a href="/movies/?id=jackandjill.htm">Jack and Jill</a></font></b></td><td><font size="2">Sony</font></td><td align="right"><font size="2"><b>$74,158,157</b></font></td><td align="right"><font size="2">3,438</font></td><td align="right"><font size="2">$25,003,575</font></td><td align="right"><font size="2">3,438</font></td><td align="right"><font size="2"><a href="/schedule/?view=bydate&release=theatrical&date=2011-11-11&p=.htm">11/11</a></font></td><td align="right"><font size="2">2/26</font></td></tr><tr bgcolor="#ffffff"><td align="center"><font size="2">49</font></td><td><b><font size="2"><a href="/movies/?id=hugocabret.htm">Hugo</a></font></b></td><td><font size="2">Par.</font></td><td align="right"><font size="2"><b>$73,864,507</b></font></td><td align="right"><font size="2">2,608</font></td><td align="right"><font size="2">$11,364,505</font></td><td align="right"><font size="2">1,277</font></td><td align="right"><font size="2"><a href="/schedule/?view=bydate&release=theatrical&date=2011-11-23&p=.htm">11/23</a></font></td><td align="right"><font size="2">4/12</font></td></tr><tr bgcolor="#f4f4ff"><td align="center"><font size="2">50</font></td><td><b><font size="2"><a href="/movies/?id=bieber3d.htm">Justin Bieber: Never Say Never</a></font></b></td><td><font size="2">Par.</font></td><td align="right"><font size="2"><b>$73,013,910</b></font></td><td align="right"><font size="2">3,118</font></td><td align="right"><font size="2">$29,514,054</font></td><td align="right"><font size="2">3,105</font></td><td align="right"><font size="2"><a href="/schedule/?view=bydate&release=theatrical&date=2011-02-11&p=.htm">2/11</a></font></td><td align="right"><font size="2">5/12</font></td></tr><tr bgcolor="#ffffff"><td align="center"><font size="2">51</font></td><td><b><font size="2"><a href="/movies/?id=dolphintale.htm">Dolphin Tale</a></font></b></td><td><font size="2">WB</font></td><td align="right"><font size="2"><b>$72,286,779</b></font></td><td align="right"><font size="2">3,515</font></td><td align="right"><font size="2">$19,152,401</font></td><td align="right"><font size="2">3,507</font></td><td align="right"><font size="2"><a href="/schedule/?view=bydate&release=theatrical&date=2011-09-23&p=.htm">9/23</a></font></td><td align="right"><font size="2">1/26</font></td></tr><tr bgcolor="#f4f4ff"><td align="center"><font size="2">52</font></td><td><b><font size="2"><a href="/movies/?id=friendswithbenefits.htm">No Strings Attached</a></font></b></td><td><font size="2">Par.</font></td><td align="right"><font size="2"><b>$70,662,220</b></font></td><td align="right"><font size="2">3,050</font></td><td align="right"><font size="2">$19,652,921</font></td><td align="right"><font size="2">3,018</font></td><td align="right"><font size="2"><a href="/schedule/?view=bydate&release=theatrical&date=2011-01-21&p=.htm">1/21</a></font></td><td align="right"><font size="2">4/7</font></td></tr><tr bgcolor="#ffffff"><td align="center"><font size="2">53</font></td><td><b><font size="2"><a href="/movies/?id=mrpopperspenguins.htm">Mr. Popper\'s Penguins</a></font></b></td><td><font size="2">Fox</font></td><td align="right"><font size="2"><b>$68,224,452</b></font></td><td align="right"><font size="2">3,342</font></td><td align="right"><font size="2">$18,445,355</font></td><td align="right"><font size="2">3,339</font></td><td align="right"><font size="2"><a href="/schedule/?view=bydate&release=theatrical&date=2011-06-17&p=.htm">6/17</a></font></td><td align="right"><font size="2">10/20</font></td></tr><tr bgcolor="#f4f4ff"><td align="center"><font size="2">54</font></td><td><b><font size="2"><a href="/movies/?id=happyfeet2.htm">Happy Feet Two</a></font></b></td><td><font size="2">WB</font></td><td align="right"><font size="2"><b>$64,006,466</b></font></td><td align="right"><font size="2">3,611</font></td><td align="right"><font size="2">$21,237,068</font></td><td align="right"><font size="2">3,606</font></td><td align="right"><font size="2"><a href="/schedule/?view=bydate&release=theatrical&date=2011-11-18&p=.htm">11/18</a></font></td><td align="right"><font size="2">3/8</font></td></tr><tr bgcolor="#ffffff"><td align="center"><font size="2">55</font></td><td><b><font size="2"><a href="/movies/?id=unknownwhitemale11.htm">Unknown</a></font></b></td><td><font size="2">WB</font></td><td align="right"><font size="2"><b>$63,686,397</b></font></td><td align="right"><font size="2">3,043</font></td><td align="right"><font size="2">$21,856,389</font></td><td align="right"><font size="2">3,043</font></td><td align="right"><font size="2"><a href="/schedule/?view=bydate&release=theatrical&date=2011-02-18&p=.htm">2/18</a></font></td><td align="right"><font size="2">5/12</font></td></tr><tr bgcolor="#f4f4ff"><td align="center"><font size="2">56</font></td><td><b><font size="2"><a href="/movies/?id=adjustmentbureau.htm">The Adjustment Bureau</a></font></b></td><td><font size="2">Uni.</font></td><td align="right"><font size="2"><b>$62,495,645</b></font></td><td align="right"><font size="2">2,847</font></td><td align="right"><font size="2">$21,157,730</font></td><td align="right"><font size="2">2,840</font></td><td align="right"><font size="2"><a href="/schedule/?view=bydate&release=theatrical&date=2011-03-04&p=.htm">3/4</a></font></td><td align="right"><font size="2">5/26</font></td></tr><tr bgcolor="#ffffff"><td align="center"><font size="2">57</font></td><td><b><font size="2"><a href="/movies/?id=waterforelephants.htm">Water for Elephants</a></font></b></td><td><font size="2">Fox</font></td><td align="right"><font size="2"><b>$58,709,717</b></font></td><td align="right"><font size="2">2,820</font></td><td align="right"><font size="2">$16,842,353</font></td><td align="right"><font size="2">2,817</font></td><td align="right"><font size="2"><a href="/schedule/?view=bydate&release=theatrical&date=2011-04-22&p=.htm">4/22</a></font></td><td align="right"><font size="2">8/11</font></td></tr><tr bgcolor="#f4f4ff"><td align="center"><font size="2">58</font></td><td><b><font size="2"><a href="/movies/?id=lincolnlawyer.htm">The Lincoln Lawyer</a></font></b></td><td><font size="2">LGF</font></td><td align="right"><font size="2"><b>$58,009,200</b></font></td><td align="right"><font size="2">2,707</font></td><td align="right"><font size="2">$13,206,453</font></td><td align="right"><font size="2">2,707</font></td><td align="right"><font size="2"><a href="/schedule/?view=bydate&release=theatrical&date=2011-03-18&p=.htm">3/18</a></font></td><td align="right"><font size="2">7/21</font></td></tr><tr bgcolor="#ffffff"><td align="center"><font size="2">59</font></td><td><b><font size="2"><a href="/movies/?id=midnightinparis.htm">Midnight in Paris</a></font></b></td><td><font size="2">SPC</font></td><td align="right"><font size="2"><b>$56,817,045</b></font></td><td align="right"><font size="2">1,038</font></td><td align="right"><font size="2">$599,003</font></td><td align="right"><font size="2">6</font></td><td align="right"><font size="2"><a href="/schedule/?view=bydate&release=theatrical&date=2011-05-20&p=.htm">5/20</a></font></td><td align="right"><font size="2">3/22</font></td></tr><tr bgcolor="#f4f4ff"><td align="center"><font size="2">60</font></td><td><b><font size="2"><a href="/movies/?id=friendswithbenefits10.htm">Friends with Benefits</a></font></b></td><td><font size="2">SGem</font></td><td align="right"><font size="2"><b>$55,802,754</b></font></td><td align="right"><font size="2">2,926</font></td><td align="right"><font size="2">$18,622,150</font></td><td align="right"><font size="2">2,926</font></td><td align="right"><font size="2"><a href="/schedule/?view=bydate&release=theatrical&date=2011-07-22&p=.htm">7/22</a></font></td><td align="right"><font size="2">9/22</font></td></tr><tr bgcolor="#ffffff"><td align="center"><font size="2">61</font></td><td><b><font size="2"><a href="/movies/?id=iamnumberfour.htm">I Am Number Four</a></font></b></td><td><font size="2">BV</font></td><td align="right"><font size="2"><b>$55,100,437</b></font></td><td align="right"><font size="2">3,156</font></td><td align="right"><font size="2">$19,449,893</font></td><td align="right"><font size="2">3,154</font></td><td align="right"><font size="2"><a href="/schedule/?view=bydate&release=theatrical&date=2011-02-18&p=.htm">2/18</a></font></td><td align="right"><font size="2">6/2</font></td></tr><tr bgcolor="#f4f4ff"><td align="center"><font size="2">62</font></td><td><b><font size="2"><a href="/movies/?id=sourcecode.htm">Source Code</a></font></b></td><td><font size="2">Sum.</font></td><td align="right"><font size="2"><b>$54,712,227</b></font></td><td align="right"><font size="2">2,971</font></td><td align="right"><font size="2">$14,812,094</font></td><td align="right"><font size="2">2,961</font></td><td align="right"><font size="2"><a href="/schedule/?view=bydate&release=theatrical&date=2011-04-01&p=.htm">4/1</a></font></td><td align="right"><font size="2">7/14</font></td></tr><tr bgcolor="#ffffff"><td align="center"><font size="2">63</font></td><td><b><font size="2"><a href="/movies/?id=newyearseve.htm">New Year\'s Eve</a></font></b></td><td><font size="2">WB (NL)</font></td><td align="right"><font size="2"><b>$54,544,638</b></font></td><td align="right"><font size="2">3,505</font></td><td align="right"><font size="2">$13,019,180</font></td><td align="right"><font size="2">3,505</font></td><td align="right"><font size="2"><a href="/schedule/?view=bydate&release=theatrical&date=2011-12-09&p=.htm">12/9</a></font></td><td align="right"><font size="2">2/23</font></td></tr><tr bgcolor="#f4f4ff"><td align="center"><font size="2">64</font></td><td><b><font size="2"><a href="/movies/?id=insidious.htm">Insidious</a></font></b></td><td><font size="2">FD</font></td><td align="right"><font size="2"><b>$54,009,150</b></font></td><td align="right"><font size="2">2,419</font></td><td align="right"><font size="2">$13,271,464</font></td><td align="right"><font size="2">2,408</font></td><td align="right"><font size="2"><a href="/schedule/?view=bydate&release=theatrical&date=2011-04-01&p=.htm">4/1</a></font></td><td align="right"><font size="2">9/8</font></td></tr><tr bgcolor="#ffffff"><td align="center"><font size="2">65</font></td><td><b><font size="2"><a href="/movies/?id=madeasbighappyfamily.htm">Tyler Perry\'s Madea\'s Big Happy Family</a></font></b></td><td><font size="2">LGF</font></td><td align="right"><font size="2"><b>$53,345,287</b></font></td><td align="right"><font size="2">2,288</font></td><td align="right"><font size="2">$25,068,677</font></td><td align="right"><font size="2">2,288</font></td><td align="right"><font size="2"><a href="/schedule/?view=bydate&release=theatrical&date=2011-04-22&p=.htm">4/22</a></font></td><td align="right"><font size="2">7/21</font></td></tr><tr bgcolor="#f4f4ff"><td align="center"><font size="2">66</font></td><td><b><font size="2"><a href="/movies/?id=diaryofawimpykid2.htm">Diary of a Wimpy Kid: Rodrick Rules</a></font></b></td><td><font size="2">Fox</font></td><td align="right"><font size="2"><b>$52,698,535</b></font></td><td align="right"><font size="2">3,169</font></td><td align="right"><font size="2">$23,751,502</font></td><td align="right"><font size="2">3,167</font></td><td align="right"><font size="2"><a href="/schedule/?view=bydate&release=theatrical&date=2011-03-25&p=.htm">3/25</a></font></td><td align="right"><font size="2">7/14</font></td></tr><tr bgcolor="#ffffff"><td align="center"><font size="2">67</font></td><td><b><font size="2"><a href="/movies/?id=footloose2010.htm">Footloose (2011)</a></font></b></td><td><font size="2">Par.</font></td><td align="right"><font size="2"><b>$51,802,742</b></font></td><td align="right"><font size="2">3,555</font></td><td align="right"><font size="2">$15,556,113</font></td><td align="right"><font size="2">3,549</font></td><td align="right"><font size="2"><a href="/schedule/?view=bydate&release=theatrical&date=2011-10-14&p=.htm">10/14</a></font></td><td align="right"><font size="2">1/12</font></td></tr><tr bgcolor="#f4f4ff"><td align="center"><font size="2">68</font></td><td><b><font size="2"><a href="/movies/?id=howardvaughnjames.htm">The Dilemma</a></font></b></td><td><font size="2">Uni.</font></td><td align="right"><font size="2"><b>$48,475,290</b></font></td><td align="right"><font size="2">2,943</font></td><td align="right"><font size="2">$17,816,230</font></td><td align="right"><font size="2">2,940</font></td><td align="right"><font size="2"><a href="/schedule/?view=bydate&release=theatrical&date=2011-01-14&p=.htm">1/14</a></font></td><td align="right"><font size="2">3/3</font></td></tr><tr bgcolor="#ffffff"><td align="center"><font size="2">69</font></td><td><b><font size="2"><a href="/movies/?id=arthurchristmas.htm">Arthur Christmas</a></font></b></td><td><font size="2">Sony</font></td><td align="right"><font size="2"><b>$46,462,469</b></font></td><td align="right"><font size="2">3,376</font></td><td align="right"><font size="2">$12,068,931</font></td><td align="right"><font size="2">3,376</font></td><td align="right"><font size="2"><a href="/schedule/?view=bydate&release=theatrical&date=2011-11-23&p=.htm">11/23</a></font></td><td align="right"><font size="2">1/12</font></td></tr><tr bgcolor="#f4f4ff"><td align="center"><font size="2">70</font></td><td><b><font size="2"><a href="/movies/?id=hallpass.htm">Hall Pass</a></font></b></td><td><font size="2">WB (NL)</font></td><td align="right"><font size="2"><b>$45,060,734</b></font></td><td align="right"><font size="2">2,950</font></td><td align="right"><font size="2">$13,535,374</font></td><td align="right"><font size="2">2,950</font></td><td align="right"><font size="2"><a href="/schedule/?view=bydate&release=theatrical&date=2011-02-25&p=.htm">2/25</a></font></td><td align="right"><font size="2">5/12</font></td></tr><tr bgcolor="#ffffff"><td align="center"><font size="2">71</font></td><td><b><font size="2"><a href="/movies/?id=artist.htm">The Artist</a></font></b></td><td><font size="2">Wein.</font></td><td align="right"><font size="2"><b>$44,671,682</b></font></td><td align="right"><font size="2">1,756</font></td><td align="right"><font size="2">$204,878</font></td><td align="right"><font size="2">4</font></td><td align="right"><font size="2"><a href="/schedule/?view=bydate&release=theatrical&date=2011-11-25&p=.htm">11/25</a></font></td><td align="right"><font size="2">6/21</font></td></tr><tr bgcolor="#f4f4ff"><td align="center"><font size="2">72</font></td><td><b><font size="2"><a href="/movies/?id=soulsurfer.htm">Soul Surfer</a></font></b></td><td><font size="2">TriS</font></td><td align="right"><font size="2"><b>$43,853,424</b></font></td><td align="right"><font size="2">2,240</font></td><td align="right"><font size="2">$10,601,862</font></td><td align="right"><font size="2">2,214</font></td><td align="right"><font size="2"><a href="/schedule/?view=bydate&release=theatrical&date=2011-04-08&p=.htm">4/8</a></font></td><td align="right"><font size="2">7/21</font></td></tr><tr bgcolor="#ffffff"><td align="center"><font size="2">73</font></td><td><b><font size="2"><a href="/movies/?id=finaldestination5.htm">Final Destination 5</a></font></b></td><td><font size="2">WB (NL)</font></td><td align="right"><font size="2"><b>$42,587,643</b></font></td><td align="right"><font size="2">3,155</font></td><td align="right"><font size="2">$18,031,396</font></td><td align="right"><font size="2">3,155</font></td><td align="right"><font size="2"><a href="/schedule/?view=bydate&release=theatrical&date=2011-08-12&p=.htm">8/12</a></font></td><td align="right"><font size="2">10/13</font></td></tr><tr bgcolor="#f4f4ff"><td align="center"><font size="2">74</font></td><td><b><font size="2"><a href="/movies/?id=idesofmarch.htm">The Ides of March</a></font></b></td><td><font size="2">Sony</font></td><td align="right"><font size="2"><b>$40,962,534</b></font></td><td align="right"><font size="2">2,199</font></td><td align="right"><font size="2">$10,470,143</font></td><td align="right"><font size="2">2,199</font></td><td align="right"><font size="2"><a href="/schedule/?view=bydate&release=theatrical&date=2011-10-07&p=.htm">10/7</a></font></td><td align="right"><font size="2">1/12</font></td></tr><tr bgcolor="#ffffff"><td align="center"><font size="2">75</font></td><td><b><font size="2"><a href="/movies/?id=hanna.htm">Hanna</a></font></b></td><td><font size="2">Focus</font></td><td align="right"><font size="2"><b>$40,259,119</b></font></td><td align="right"><font size="2">2,545</font></td><td align="right"><font size="2">$12,370,549</font></td><td align="right"><font size="2">2,535</font></td><td align="right"><font size="2"><a href="/schedule/?view=bydate&release=theatrical&date=2011-04-08&p=.htm">4/8</a></font></td><td align="right"><font size="2">7/7</font></td></tr><tr bgcolor="#f4f4ff"><td align="center"><font size="2">76</font></td><td><b><font size="2"><a href="/movies/?id=somethingborrowed.htm">Something Borrowed</a></font></b></td><td><font size="2">WB</font></td><td align="right"><font size="2"><b>$39,046,489</b></font></td><td align="right"><font size="2">2,904</font></td><td align="right"><font size="2">$13,945,368</font></td><td align="right"><font size="2">2,904</font></td><td align="right"><font size="2"><a href="/schedule/?view=bydate&release=theatrical&date=2011-05-06&p=.htm">5/6</a></font></td><td align="right"><font size="2">7/28</font></td></tr><tr bgcolor="#ffffff"><td align="center"><font size="2">77</font></td><td><b><font size="2"><a href="/movies/?id=spykids4.htm">Spy Kids: All the Time in the World</a></font></b></td><td><font size="2">W/Dim.</font></td><td align="right"><font size="2"><b>$38,538,188</b></font></td><td align="right"><font size="2">3,305</font></td><td align="right"><font size="2">$11,644,672</font></td><td align="right"><font size="2">3,295</font></td><td align="right"><font size="2"><a href="/schedule/?view=bydate&release=theatrical&date=2011-08-19&p=.htm">8/19</a></font></td><td align="right"><font size="2">12/15</font></td></tr><tr bgcolor="#f4f4ff"><td align="center"><font size="2">78</font></td><td><b><font size="2"><a href="/movies/?id=scream4.htm">Scream 4</a></font></b></td><td><font size="2">W/Dim.</font></td><td align="right"><font size="2"><b>$38,180,928</b></font></td><td align="right"><font size="2">3,314</font></td><td align="right"><font size="2">$18,692,090</font></td><td align="right"><font size="2">3,305</font></td><td align="right"><font size="2"><a href="/schedule/?view=bydate&release=theatrical&date=2011-04-15&p=.htm">4/15</a></font></td><td align="right"><font size="2">6/30</font></td></tr><tr bgcolor="#ffffff"><td align="center"><font size="2">79</font></td><td><b><font size="2"><a href="/movies/?id=bigmomma3.htm">Big Mommas: Like Father, Like Son</a></font></b></td><td><font size="2">Fox</font></td><td align="right"><font size="2"><b>$37,915,414</b></font></td><td align="right"><font size="2">2,821</font></td><td align="right"><font size="2">$16,300,803</font></td><td align="right"><font size="2">2,821</font></td><td align="right"><font size="2"><a href="/schedule/?view=bydate&release=theatrical&date=2011-02-18&p=.htm">2/18</a></font></td><td align="right"><font size="2">5/26</font></td></tr><tr bgcolor="#f4f4ff"><td align="center"><font size="2">80</font></td><td><b><font size="2"><a href="/movies/?id=redridinghood.htm">Red Riding Hood</a></font></b></td><td><font size="2">WB</font></td><td align="right"><font size="2"><b>$37,662,162</b></font></td><td align="right"><font size="2">3,030</font></td><td align="right"><font size="2">$14,005,335</font></td><td align="right"><font size="2">3,030</font></td><td align="right"><font size="2"><a href="/schedule/?view=bydate&release=theatrical&date=2011-03-11&p=.htm">3/11</a></font></td><td align="right"><font size="2">5/26</font></td></tr><tr bgcolor="#ffffff"><td align="center"><font size="2">81</font></td><td><b><font size="2"><a href="/movies/?id=now.htm">In Time</a></font></b></td><td><font size="2">Fox</font></td><td align="right"><font size="2"><b>$37,520,095</b></font></td><td align="right"><font size="2">3,127</font></td><td align="right"><font size="2">$12,050,368</font></td><td align="right"><font size="2">3,122</font></td><td align="right"><font size="2"><a href="/schedule/?view=bydate&release=theatrical&date=2011-10-28&p=.htm">10/28</a></font></td><td align="right"><font size="2">2/2</font></td></tr><tr bgcolor="#f4f4ff"><td align="center"><font size="2">82</font></td><td><b><font size="2"><a href="/movies/?id=paul.htm">Paul</a></font></b></td><td><font size="2">Uni.</font></td><td align="right"><font size="2"><b>$37,412,945</b></font></td><td align="right"><font size="2">2,806</font></td><td align="right"><font size="2">$13,043,310</font></td><td align="right"><font size="2">2,802</font></td><td align="right"><font size="2"><a href="/schedule/?view=bydate&release=theatrical&date=2011-03-18&p=.htm">3/18</a></font></td><td align="right"><font size="2">5/19</font></td></tr><tr bgcolor="#ffffff"><td align="center"><font size="2">83</font></td><td><b><font size="2"><a href="/movies/?id=jedgar.htm">J. Edgar</a></font></b></td><td><font size="2">WB</font></td><td align="right"><font size="2"><b>$37,306,030</b></font></td><td align="right"><font size="2">1,985</font></td><td align="right"><font size="2">$11,217,324</font></td><td align="right"><font size="2">1,910</font></td><td align="right"><font size="2"><a href="/schedule/?view=bydate&release=theatrical&date=2011-11-09&p=.htm">11/9</a></font></td><td align="right"><font size="2">2/23</font></td></tr><tr bgcolor="#f4f4ff"><td align="center"><font size="2">84</font></td><td><b><font size="2"><a href="/movies/?id=roommate10.htm">The Roommate</a></font></b></td><td><font size="2">SGem</font></td><td align="right"><font size="2"><b>$37,300,107</b></font></td><td align="right"><font size="2">2,534</font></td><td align="right"><font size="2">$15,002,635</font></td><td align="right"><font size="2">2,534</font></td><td align="right"><font size="2"><a href="/schedule/?view=bydate&release=theatrical&date=2011-02-04&p=.htm">2/4</a></font></td><td align="right"><font size="2">3/24</font></td></tr><tr bgcolor="#ffffff"><td align="center"><font size="2">85</font></td><td><b><font size="2"><a href="/movies/?id=jumpingthebroom.htm">Jumping the Broom</a></font></b></td><td><font size="2">TriS</font></td><td align="right"><font size="2"><b>$37,295,394</b></font></td><td align="right"><font size="2">2,035</font></td><td align="right"><font size="2">$15,215,487</font></td><td align="right"><font size="2">2,035</font></td><td align="right"><font size="2"><a href="/schedule/?view=bydate&release=theatrical&date=2011-05-06&p=.htm">5/6</a></font></td><td align="right"><font size="2">6/30</font></td></tr><tr bgcolor="#f4f4ff"><td align="center"><font size="2">86</font></td><td><b><font size="2"><a href="/movies/?id=changeup.htm">The Change-Up</a></font></b></td><td><font size="2">Uni.</font></td><td align="right"><font size="2"><b>$37,081,475</b></font></td><td align="right"><font size="2">2,913</font></td><td align="right"><font size="2">$13,531,115</font></td><td align="right"><font size="2">2,913</font></td><td align="right"><font size="2"><a href="/schedule/?view=bydate&release=theatrical&date=2011-08-05&p=.htm">8/5</a></font></td><td align="right"><font size="2">9/29</font></td></tr><tr bgcolor="#ffffff"><td align="center"><font size="2">87</font></td><td><b><font size="2"><a href="/movies/?id=30minutesorless.htm">30 Minutes or Less</a></font></b></td><td><font size="2">Sony</font></td><td align="right"><font size="2"><b>$37,053,924</b></font></td><td align="right"><font size="2">2,888</font></td><td align="right"><font size="2">$13,330,118</font></td><td align="right"><font size="2">2,888</font></td><td align="right"><font size="2"><a href="/schedule/?view=bydate&release=theatrical&date=2011-08-12&p=.htm">8/12</a></font></td><td align="right"><font size="2">9/29</font></td></tr><tr bgcolor="#f4f4ff"><td align="center"><font size="2">88</font></td><td><b><font size="2"><a href="/movies/?id=colombiana.htm">Colombiana</a></font></b></td><td><font size="2">TriS</font></td><td align="right"><font size="2"><b>$36,665,854</b></font></td><td align="right"><font size="2">2,614</font></td><td align="right"><font size="2">$10,408,176</font></td><td align="right"><font size="2">2,614</font></td><td align="right"><font size="2"><a href="/schedule/?view=bydate&release=theatrical&date=2011-08-26&p=.htm">8/26</a></font></td><td align="right"><font size="2">11/3</font></td></tr><tr bgcolor="#ffffff"><td align="center"><font size="2">89</font></td><td><b><font size="2"><a href="/movies/?id=suckerpunch.htm">Sucker Punch</a></font></b></td><td><font size="2">WB</font></td><td align="right"><font size="2"><b>$36,392,502</b></font></td><td align="right"><font size="2">3,033</font></td><td align="right"><font size="2">$19,058,199</font></td><td align="right"><font size="2">3,033</font></td><td align="right"><font size="2"><a href="/schedule/?view=bydate&release=theatrical&date=2011-03-25&p=.htm">3/25</a></font></td><td align="right"><font size="2">5/26</font></td></tr><tr bgcolor="#f4f4ff"><td align="center"><font size="2">90</font></td><td><b><font size="2"><a href="/movies/?id=larrycrowne.htm">Larry Crowne</a></font></b></td><td><font size="2">Uni.</font></td><td align="right"><font size="2"><b>$35,608,245</b></font></td><td align="right"><font size="2">2,976</font></td><td align="right"><font size="2">$13,096,065</font></td><td align="right"><font size="2">2,973</font></td><td align="right"><font size="2"><a href="/schedule/?view=bydate&release=theatrical&date=2011-07-01&p=.htm">7/1</a></font></td><td align="right"><font size="2">8/18</font></td></tr><tr bgcolor="#ffffff"><td align="center"><font size="2">91</font></td><td><b><font size="2"><a href="/movies/?id=haroldandkumar3.htm">A Very Harold &amp; Kumar 3D Christmas</a></font></b></td><td><font size="2">WB (NL)</font></td><td align="right"><font size="2"><b>$35,061,031</b></font></td><td align="right"><font size="2">2,875</font></td><td align="right"><font size="2">$12,954,142</font></td><td align="right"><font size="2">2,875</font></td><td align="right"><font size="2"><a href="/schedule/?view=bydate&release=theatrical&date=2011-11-04&p=.htm">11/4</a></font></td><td align="right"><font size="2">1/12</font></td></tr><tr bgcolor="#f4f4ff"><td align="center"><font size="2">92</font></td><td><b><font size="2"><a href="/movies/?id=drive2011.htm">Drive (2011)</a></font></b></td><td><font size="2">FD</font></td><td align="right"><font size="2"><b>$35,060,689</b></font></td><td align="right"><font size="2">2,904</font></td><td align="right"><font size="2">$11,340,461</font></td><td align="right"><font size="2">2,886</font></td><td align="right"><font size="2"><a href="/schedule/?view=bydate&release=theatrical&date=2011-09-16&p=.htm">9/16</a></font></td><td align="right"><font size="2">2/9</font></td></tr><tr bgcolor="#ffffff"><td align="center"><font size="2">93</font></td><td><b><font size="2"><a href="/movies/?id=50fifty.htm">50/50</a></font></b></td><td><font size="2">Sum.</font></td><td align="right"><font size="2"><b>$35,014,192</b></font></td><td align="right"><font size="2">2,479</font></td><td align="right"><font size="2">$8,644,095</font></td><td align="right"><font size="2">2,458</font></td><td align="right"><font size="2"><a href="/schedule/?view=bydate&release=theatrical&date=2011-09-30&p=.htm">9/30</a></font></td><td align="right"><font size="2">12/29</font></td></tr><tr bgcolor="#f4f4ff"><td align="center"><font size="2">94</font></td><td><b><font size="2"><a href="/movies/?id=courageous.htm">Courageous</a></font></b></td><td><font size="2">TriS</font></td><td align="right"><font size="2"><b>$34,522,221</b></font></td><td align="right"><font size="2">1,214</font></td><td align="right"><font size="2">$9,112,839</font></td><td align="right"><font size="2">1,161</font></td><td align="right"><font size="2"><a href="/schedule/?view=bydate&release=theatrical&date=2011-09-30&p=.htm">9/30</a></font></td><td align="right"><font size="2">1/26</font></td></tr><tr bgcolor="#ffffff"><td align="center"><font size="2">95</font></td><td><b><font size="2"><a href="/movies/?id=rite.htm">The Rite</a></font></b></td><td><font size="2">WB (NL)</font></td><td align="right"><font size="2"><b>$33,047,633</b></font></td><td align="right"><font size="2">2,985</font></td><td align="right"><font size="2">$14,789,393</font></td><td align="right"><font size="2">2,985</font></td><td align="right"><font size="2"><a href="/schedule/?view=bydate&release=theatrical&date=2011-01-28&p=.htm">1/28</a></font></td><td align="right"><font size="2">4/7</font></td></tr><tr bgcolor="#f4f4ff"><td align="center"><font size="2">96</font></td><td><b><font size="2"><a href="/movies/?id=arthur2011.htm">Arthur (2011)</a></font></b></td><td><font size="2">WB</font></td><td align="right"><font size="2"><b>$33,035,397</b></font></td><td align="right"><font size="2">3,276</font></td><td align="right"><font size="2">$12,222,756</font></td><td align="right"><font size="2">3,276</font></td><td align="right"><font size="2"><a href="/schedule/?view=bydate&release=theatrical&date=2011-04-08&p=.htm">4/8</a></font></td><td align="right"><font size="2">6/9</font></td></tr><tr bgcolor="#ffffff"><td align="center"><font size="2">97</font></td><td><b><font size="2"><a href="/movies/?id=extremelyloud.htm">Extremely Loud &amp; Incredibly Close</a></font></b></td><td><font size="2">WB</font></td><td align="right"><font size="2"><b>$31,847,881</b></font></td><td align="right"><font size="2">2,630</font></td><td align="right"><font size="2">$72,348</font></td><td align="right"><font size="2">6</font></td><td align="right"><font size="2"><a href="/schedule/?view=bydate&release=theatrical&date=2011-12-25&p=.htm">12/25</a></font></td><td align="right"><font size="2">3/29</font></td></tr><tr bgcolor="#f4f4ff"><td align="center"><font size="2">98</font></td><td><b><font size="2"><a href="/movies/?id=debt.htm">The Debt</a></font></b></td><td><font size="2">Focus</font></td><td align="right"><font size="2"><b>$31,177,548</b></font></td><td align="right"><font size="2">1,874</font></td><td align="right"><font size="2">$9,909,499</font></td><td align="right"><font size="2">1,826</font></td><td align="right"><font size="2"><a href="/schedule/?view=bydate&release=theatrical&date=2011-08-31&p=.htm">8/31</a></font></td><td align="right"><font size="2">11/3</font></td></tr><tr bgcolor="#ffffff"><td align="center"><font size="2">99</font></td><td><b><font size="2"><a href="/movies/?id=sitter.htm">The Sitter</a></font></b></td><td><font size="2">Fox</font></td><td align="right"><font size="2"><b>$30,441,326</b></font></td><td align="right"><font size="2">2,752</font></td><td align="right"><font size="2">$9,851,435</font></td><td align="right"><font size="2">2,750</font></td><td align="right"><font size="2"><a href="/schedule/?view=bydate&release=theatrical&date=2011-12-09&p=.htm">12/9</a></font></td><td align="right"><font size="2">2/16</font></td></tr><tr bgcolor="#f4f4ff"><td align="center"><font size="2">100</font></td><td><b><font size="2"><a href="/movies/?id=ironlady.htm">The Iron Lady</a></font></b></td><td><font size="2">Wein.</font></td><td align="right"><font size="2"><b>$30,017,992</b></font></td><td align="right"><font size="2">1,244</font></td><td align="right"><font size="2">$220,409</font></td><td align="right"><font size="2">4</font></td><td align="right"><font size="2"><a href="/schedule/?view=bydate&release=theatrical&date=2011-12-30&p=.htm">12/30</a></font></td><td align="right"><font size="2">4/26</font></td></tr><tr bgcolor="#dcdcdc"><td colspan="9" align="center"><font size="2"><b>Summary of 602 Movies on Chart:</b></font></td></tr><tr bgcolor="#f4f4ff"><td align="right" colspan="3"><font size="2"><b>Totals:</b></td><td align="right"><font size="2">$10,112,044,194</font></td><td align="center"><font size="2">-</font></td><td align="center"><font size="2">-</font></td><td align="center"><font size="2">-</font></td><td align="center"><font size="2">-</font></td><td align="center"><font size="2">-</font></td></tr><tr bgcolor="#ffffff"><td align="right" colspan="3"><font size="2"><b>Averages:</b></td><td align="right"><font size="2">$16,797,416</font></td><td align="right"><font size="2">-</font></td><td align="right"><font size="2">-</font></td><td align="right"><font size="2">-</font></td><td align="center"><font size="2">-</font></td><td align="center"><font size="2">-</font></td></tr><tr bgcolor="#dcdcdc"><td colspan="9"><img src="/images/space.gif" width="1" height="1"></td></tr></table></td></tr><tr><td valign="bottom"><font face="Verdana" size="1"><b><a href="/yearly/chart/?yr=2010&view=releasedate&view2=domestic&sort=gross&order=DESC&&p=.htm">&lt; Previous Year</a></b></font></td><td align="center"><table border="0" cellspacing="0" cellpadding="0">\n\t\t\t\t\t<form method="POST" action="yearly.asof.php" name="asofjump">\n\t\t\t\t\t<tr><td><font face="Verdana" size="1"><br>Data as of:\n\t\t\t\t\t<select size="1" name="asof" style="font-size: 8pt">\n\t\t\t\t\t<option selected value="today">Today</option>\n\t\t\t\t\t<option  value="sametime">Today in 2011</option>\n\t\t\t\t\t<option value="2011-01-31">Jan. 31, 2011</option>\n\t\t\t\t\t<option value="2011-02-28">Feb. 28, 2011</option>\n\t\t\t\t\t<option value="2011-03-31">Mar. 31, 2011</option>\n\t\t\t\t\t<option value="2011-04-30">Apr. 30, 2011</option>\n\t\t\t\t\t<option value="2011-05-31">May 31, 2011</option>\n\t\t\t\t\t<option value="2011-06-30">Jun. 30, 2011</option>\n\t\t\t\t\t<option value="2011-07-31">Jul. 31, 2011</option>\n\t\t\t\t\t<option value="2011-08-31">Aug. 31, 2011</option>\n\t\t\t\t\t<option value="2011-09-30">Sep. 30, 2011</option>\n\t\t\t\t\t<option value="2011-10-31">Oct. 31, 2011</option>\n\t\t\t\t\t<option value="2011-11-30">Nov. 30, 2011</option>\n\t\t\t\t\t<option value="2011-12-31">Dec. 31, 2011</option>\n\t\t\t\t\t<option value="specify">Specify Date</option>\n\t\t\t\t\t<option value="about">About this feature</option>\n\t\t\t\t\t</select> or (<select size="1" name="asof_mo" style="font-size: 8pt">\n\t\t\t\t\t<option selected value="">Month</option>\n\t\t\t\t\t\n\t\t\t\t\t<option value="01">Jan.</option>\n\t\t\t\t\t<option value="02">Feb.</option>\n\t\t\t\t\t<option value="03">Mar.</option>\n\t\t\t\t\t<option value="04">Apr.</option>\n\t\t\t\t\t<option value="05">May</option>\n\t\t\t\t\t<option value="06">Jun.</option>\n\t\t\t\t\t<option value="07">Jul.</option>\n\t\t\t\t\t<option value="08">Aug.</option>\n\t\t\t\t\t<option value="09">Sep.</option>\n\t\t\t\t\t<option value="10">Oct.</option>\n\t\t\t\t\t<option value="11">Nov.</option>\n\t\t\t\t\t<option value="12">Dec.</option>\n\t\t\t\t\t</select> / <select size="1" name="asof_day" style="font-size: 8pt">\n\t\t\t\t\t<option selected value="">Day</option>\n\t\t\t\t\t<option value="01">1</option>\n\t\t\t\t\t<option value="02">2</option>\n\t\t\t\t\t<option value="03">3</option>\n\t\t\t\t\t<option value="04">4</option>\n\t\t\t\t\t<option value="05">5</option>\n\t\t\t\t\t<option value="06">6</option>\n\t\t\t\t\t<option value="07">7</option>\n\t\t\t\t\t<option value="08">8</option>\n\t\t\t\t\t<option value="09">9</option>\n\t\t\t\t\t<option value="10">10</option>\n\t\t\t\t\t<option value="11">11</option>\n\t\t\t\t\t<option value="12">12</option>\n\t\t\t\t\t<option value="13">13</option>\n\t\t\t\t\t<option value="14">14</option>\n\t\t\t\t\t<option value="15">15</option>\n\t\t\t\t\t<option value="16">16</option>\n\t\t\t\t\t<option value="17">17</option>\n\t\t\t\t\t<option value="18">18</option>\n\t\t\t\t\t<option value="19">19</option>\n\t\t\t\t\t<option value="20">20</option>\n\t\t\t\t\t<option value="21">21</option>\n\t\t\t\t\t<option value="22">22</option>\n\t\t\t\t\t<option value="23">23</option>\n\t\t\t\t\t<option value="24">24</option>\n\t\t\t\t\t<option value="25">25</option>\n\t\t\t\t\t<option value="26">26</option>\n\t\t\t\t\t<option value="27">27</option>\n\t\t\t\t\t<option value="28">28</option>\n\t\t\t\t\t<option value="29">29</option>\n\t\t\t\t\t<option value="30">30</option>\n\t\t\t\t\t<option value="31">31</option>\n\t\t\t\t\t</select> / <select size="1" name="asof_yr" style="font-size: 8pt">\n\t\t\t\t\t\t<option selected>2011</option>\n\t\t\t\t\t\t<option>2012</option>\n\t\t\t\t\t\t</select>) <input type="submit" value="Go" name="go" style="font-size: 8pt; height: 16">\n\t\t\t\t\t</font></td></tr>\n\t\t\t\t\t<input type="hidden" name="jumpstuff" value="view=releasedate&view2=domestic&yr=2011&sort=gross&order=DESC&p=.htm">\n\t\t\t\t\t<input type="hidden" name="curasof" value="today">\n\t\t\t\t\t<input type="hidden" name="yr" value="2011">\n\t\t\t\t\t</form>\n\t\t\t\t\t</table>\n\t\t\t\t</font></td><td valign="bottom" align="right"><font face="Verdana" size="1"><b><a href="/yearly/chart/?yr=2012&view=releasedate&view2=domestic&sort=gross&order=DESC&&p=.htm">Next Year &gt;</a></b></font></td></tr></table><center><font face="Verdana" size="4"><b><font face="Verdana" size="5">#1&#150;100</font> - <a href="/yearly/chart/?page=2&view=releasedate&view2=domestic&yr=2011&p=.htm">#101&#150;200</a> - <a href="/yearly/chart/?page=3&view=releasedate&view2=domestic&yr=2011&p=.htm">#201&#150;300</a> - <a href="/yearly/chart/?page=4&view=releasedate&view2=domestic&yr=2011&p=.htm">#301&#150;400</a> - <a href="/yearly/chart/?page=5&view=releasedate&view2=domestic&yr=2011&p=.htm">#401&#150;500</a> - <a href="/yearly/chart/?page=6&view=releasedate&view2=domestic&yr=2011&p=.htm">#501&#150;600</a> - <a href="/yearly/chart/?page=7&view=releasedate&view2=domestic&yr=2011&p=.htm">#601&#150;602</a></b></font></center><br><font face="Verdana" size="2">Note: <b>RELEASE DATE</b> shows all movies that opened in a given time period and their total grosses. <b>WIDE RELEASES</b> shows only movies released in 600 or more theaters and their total grosses, grouped by wide release date. <b>LIMITED RELEASES</b> shows only movies released in less than 600 theaters and their total grosses, grouped by release date. <b>CALENDAR GROSSES</b> shows all movies playing during the indicated time period, both new and holdover, and their grosses (or estimated grosses) during that time period. Movies released outside the indicated time period are shown in italics. <b><a href="/about/boxoffice.htm">Click here for a full explanation of the various box office sections</a></b></font><br><br>\n<P ALIGN="CENTER"><A HREF="/yearly/"><FONT FACE="Verdana" SIZE=2><b>back to<br>Yearly Index Page</b></FONT></A></P>\n<br>\n</td><td valign="top" align="center" width="160"><br><br><br><br><br><br><!-- begin ad tag (tile=2) -->\r\n<script type="text/javascript">\r\n//<![CDATA[\r\nord=2052247139;\r\ndocument.write(\'<iframe src="http://ad.doubleclick.net/N4215/adi/imdb2.bom.other/;p=rh;tile=2;sz=160x600,120x600,115x600;oe=ISO-8859-1;ord=\' + ord + \'?" width="160" height="600" marginwidth="0" marginheight="0" frameborder="0" scrolling="no">\');\r\n\r\nif (navigator.userAgent.indexOf("Gecko")==-1)\r\n{\r\ndocument.write(\'<script type="text/javascript" src="http://ad.doubleclick.net/N4215/adj/imdb2.bom.other/;p=rh;tile=2;sz=160x600,115x600;abr=!ie;oe=ISO-8859-1;ord=\' + ord + \'?"><\\/script>\');\r\n}\r\ndocument.write(\'</iframe>\');\r\n//]]>\r\n</script>\r\n<noscript><a href="http://ad.doubleclick.net/N4215/jump/imdb2.bom.other/;p=rh;tile=2;sz=160x600;oe=ISO-8859-1;ord=2052247139?" target="_blank" ><img src="http://ad.doubleclick.net/N4215/ad/imdb2.bom.other/;p=rh;tile=2;sz=160x600,115x600;oe=ISO-8859-1;ord=2052247139?" border="0" alt="" /></a></noscript>\r\n<!-- end ad tag --></td></tr></table><table border="0" width="100%" cellspacing="0" cellpadding="3">\n\t<tr>\n\t\t<td bgcolor="#FFFFFF" align="center"><b><font face="Verdana" size="1"><a href="/yearly/chart/?view=releasedate&view2=domestic&yr=2011&p=.htm">ALL RELEASES</a></font></b></td>\n\t\t<td bgcolor="#DCDCDC" align="center"><b><font face="Verdana" size="1"><a href="/yearly/chart/?view=widedate&view2=domestic&yr=2011&p=.htm">WIDE RELEASES</font></b></td>\n\t\t<td bgcolor="#DCDCDC" align="center"><b><font face="Verdana" size="1"><a href="/yearly/chart/?view=limited&view2=domestic&yr=2011&p=.htm">LIMITED RELEASES</font></b></td>\n\t\t\t\t<td bgcolor="#DCDCDC" align="center"><b><font face="Verdana" size="1"><a href="/yearly/chart/?view=calendargross&view2=domestic&yr=2011&p=.htm">CALENDAR GROSSES</font></b></td>\n\t\t\t</tr>\n</table>\n<table border="0" cellspacing="0" cellpadding="0" width="100%">\n  <tr><td bgcolor="#8b0000" height="1" colspan="2"><img src="/images/space.gif" border="0" width="1" height="5"></td></tr>\n</table>\n\n</td></tr></table>\n\n\t</div>\n\t</div>\n\t<div id="hp_footer">\n\t\t<div style="padding-bottom: 20px;">\n\n\t\t\t<div style="margin: 0px 121px; vertical-align: top;">\n\t\t\t\t<div id="footer_links">\n\t\t\t\t\t<ul class="footer_link_list">\n\t\t\t\t\t\t<li><strong>Latest Updates</strong></li>\n\t\t\t\t\t\t<li><a href="/news/?ref=ft">Movie News</a>\n\t\t\t\t\t\t<li><a href="/daily/chart/?ref=ft">Daily Chart</a></li>\n\t\t\t\t\t\t<li><a href="/weekend/chart/?ref=ft">Weekend Chart</a></li>\n\t\t\t\t\t\t<li><a href="/alltime/?ref=ft">All Time Charts</a></li>\n\t\t\t\t\t\t<li><a href="/intl/?ref=ft">International Charts</a></li>\n\t\t\t\t\t</ul>\n\t\t\t\t\t<!--\n\t\t\t\t\t<ul class="footer_link_list">\n\t\t\t\t\t\t<li><strong>Popular Movies</strong></li>\n\t\t\t\t\t\t\t\t\t\t\t</ul>\n\t\t\t\t\t-->\n\t\t\t\t\t<ul class="footer_link_list">\n\t\t\t\t\t\t<li><strong>Indices</strong></li>\n\t\t\t\t\t\t<li><a href="/movies/?ref=ft">Movies A-Z</a></li>\n\t\t\t\t\t\t<li><a href="/people/?ref=ft">People</a></li>\n\t\t\t\t\t\t<li><a href="/genres/?ref=ft">Genres</a></li>\n\t\t\t\t\t\t<li><a href="/franchises/?ref=ft">Franchises</a></li>\n\t\t\t\t\t\t<li><a href="/showdowns/?ref=ft">Showdowns</a></li>\n\t\t\t\t\t</ul>\n\t\t\t\t\t<ul class="footer_link_list">\n\t\t\t\t\t\t<li><strong>Other</strong></li>\n\t\t\t\t\t\t<li><a href="/about/?ref=ft">About This Site</a></li>\n\t\t\t\t\t\t<li><a href="/about/advertise.htm?ref=ft">Advertising</a></li>\n\t\t\t\t\t\t<li><a href="/users/?ref=ft">My Account</a></li>\n\t\t\t\t\t\t<li><a href="/about/rss.htm?ref=ft">RSS Feeds</a></li>\n\t\t\t\t\t</ul>\n\t\t\t\t</div>\n\t\t\t\t<div id="copyright">\n\t\t\t\t\t<a href="/?ref=ft"><img src="/img/misc/bom_logo1.png" width="245" height="56" alt="Box Office Mojo"></a><br>\n\t\t\t\t\t<p>An <a href="http://imdb.com/"><img src="/img/misc/IMDbSm.png" width="34" height="16" alt="IMDb" valign="middle"></a> company<br><br></p>\n\t\t\t\t\t<p>&copy; <a href="http://imdb.com/">IMDb.com</a>, Inc. or its affiliates. All rights reserved. Box Office Mojo and IMDb are trademarks or registered trademarks of IMDb.com, Inc. or its affiliates. <a href="/about/termsofuse.htm">Terms of Use</a> and <a href="/about/privacy.htm">Privacy Policy</a> under which this service is provided to you.</p>\n\t\t\t\t\t</div>\t\t\t\n\t\t\t\t</div>\n\t\t\t\t<div style="clear:both;">\n\t\t\t\t<div>\n\t\t\t\t <!-- begin ad tag (tile=6) -->\r\n<script type="text/javascript">\r\n//<![CDATA[\r\nord=2052247139;\r\ndocument.write(\'<iframe src="http://ad.doubleclick.net/N4215/adi/imdb2.bom.other/;p=b;tile=3;sz=728x90;oe=ISO-8859-1;ord=\' + ord + \'?" width="728" height="90" marginwidth="0" marginheight="0" frameborder="0" scrolling="no">\');\r\n\r\nif (navigator.userAgent.indexOf("Gecko")==-1)\r\n{\r\ndocument.write(\'<script type="text/javascript" src="http://ad.doubleclick.net/N4215/adj/imdb2.bom.other/;p=b;tile=3;sz=728x90;abr=!ie;oe=ISO-8859-1;ord=\' + ord + \'?"><\\/script>\');\r\n}\r\ndocument.write(\'<\\/iframe>\');\r\n//]]>\r\n</script>\r\n<noscript><a href="http://ad.doubleclick.net/N4215/jump/imdb2.bom.other/;p=b;tile=3;sz=728x90;oe=ISO-8859-1;ord=2052247139?" target="_blank" ><img src="http://ad.doubleclick.net/N4215/ad/imdb2.bom.other/;p=b;tile=3;sz=728x90;oe=ISO-8859-1;ord=2052247139?" border="0" alt="" ></a></noscript>\r\n<!-- end ad tag --></div>\n\n\t\t\t\t</div>\n\t</div>\n</div>\n\n\n\n\n\n<!-- Page generated in 0.07 seconds | . -->\n<script>\n  var _comscore = _comscore || [];\n  _comscore.push({ c1: "2", c2: "6034961" });\n  (function() {\n    var s = document.createElement("script"), el = document.getElementsByTagName("script")[0]; s.async = true;\n    s.src = (document.location.protocol == "https:" ? "https://sb" : "http://b") + ".scorecardresearch.com/beacon.js";\n  el.parentNode.insertBefore(s, el);\n  })();\n</script>\n<noscript>\n    <img src="http://b.scorecardresearch.com/p?c1=2&c2=6034961&cv=2.0&cj=1" />\n</noscript>\n\n</body>\n</html>\n'
p30
sS'encoding'
p31
S'ISO-8859-1'
p32
sS'url'
p33
Vhttp://www.boxofficemojo.com/yearly/chart/?yr=2011&view=releasedate&view2=domestic&sort=gross&order=DESC&&p=.htm
p34
sS'status_code'
p35
I200
sS'request'
p36
g0
(crequests.models
PreparedRequest
p37
g2
Ntp38
Rp39
(dp40
S'body'
p41
Nsg33
S'http://www.boxofficemojo.com/yearly/chart/?yr=2011&view=releasedate&view2=domestic&sort=gross&order=DESC&&p=.htm'
p42
sS'hooks'
p43
(dp44
S'response'
p45
(lp46
ssS'headers'
p47
g0
(crequests.structures
CaseInsensitiveDict
p48
g2
Ntp49
Rp50
(dp51
S'_store'
p52
(dp53
S'connection'
p54
(S'Connection'
p55
S'keep-alive'
p56
tp57
sS'accept-encoding'
p58
(S'Accept-Encoding'
p59
S'gzip, deflate'
p60
tp61
sS'accept'
p62
(S'Accept'
p63
S'*/*'
p64
tp65
sS'user-agent'
p66
(S'User-Agent'
p67
S'python-requests/2.7.0 CPython/2.7.10 Darwin/14.5.0'
p68
tp69
ssbsg27
g0
(g7
g2
Ntp70
Rp71
(dp72
g11
I1444069024
sg12
(icookielib
DefaultCookiePolicy
p73
(dp74
g15
I01
sg16
I0
sg17
Nsg18
Nsg19
I00
sg20
I00
sg11
I1444069024
sg21
I00
sg22
I00
sg23
I00
sg24
I00
sg25
(tsg26
I01
sbsg27
(dp75
sbsS'method'
p76
S'GET'
p77
sbsS'elapsed'
p78
cdatetime
timedelta
p79
(I0
I0
I100804
tp80
Rp81
sg47
g0
(g48
g2
Ntp82
Rp83
(dp84
g52
(dp85
S'content-length'
p86
(S'content-length'
p87
S'18291'
p88
tp89
sS'x-xss-protection'
p90
(S'x-xss-protection'
p91
S'1; mode=block'
p92
tp93
sS'x-content-type-options'
p94
(S'x-content-type-options'
p95
S'nosniff'
p96
tp97
sS'content-encoding'
p98
(S'content-encoding'
p99
S'gzip'
p100
tp101
sS'expires'
p102
(S'expires'
p103
S'Thu, 19 Nov 1981 08:52:00 GMT'
p104
tp105
sS'server'
p106
(S'server'
p107
S'Server'
p108
tp109
sS'connection'
p110
(S'connection'
p111
S'keep-alive'
p112
tp113
sS'x-permitted-cross-domain-policies'
p114
(S'x-permitted-cross-domain-policies'
p115
S'master-only'
p116
tp117
sS'pragma'
p118
(S'pragma'
p119
S'no-cache'
p120
tp121
sS'cache-control'
p122
(S'cache-control'
p123
S'no-store, no-cache, must-revalidate, post-check=0, pre-check=0'
p124
tp125
sS'date'
p126
(S'date'
p127
S'Mon, 05 Oct 2015 18:20:02 GMT'
p128
tp129
sS'x-frame-options'
p130
(S'x-frame-options'
p131
S'SAMEORIGIN'
p132
tp133
sS'content-type'
p134
(S'content-type'
p135
S'text/html'
p136
tp137
ssbsS'reason'
p138
S'OK'
p139
sS'history'
p140
(lp141
sb.